Microsoft (R) Macro Assembler Version 5.10                  12/6/19 16:06:45
                                                             Page     1-1


				INCLUDE RANDOM.INC
			     C	;----------------------------------------------
				-------------------------------
			     C	;  MACRO TO GET RANDOM NUMBER WITHIN A PROVIDED
				 RANGE 
			     C	;----------------------------------------------
				-------------------------------
			     C	RANDOMIZE MACRO LOWER, UPPER, NUMBER, SEED 
			     C	LOCAL SET, NODIVISION
			     C	   PUSH     AX
			     C	   PUSH     BX
			     C	   PUSH     CX
			     C	   PUSH     DX
			     C	
			     C	   MOV     AX, 25173          ; LCG MULTIPLIER 
			     C	   MUL     WORD PTR SEED      ;DX:AX = LCG MULT
				IPLIER * SEED
			     C	   ADD     AX, 13849          ; ADD LCG INCREME
				NT VALUE
			     C	   ; MODULO 65536, AX = (MULTIPLIER*SEED+INCREM
				ENT) MOD 65536
			     C	   CMP     SEED, AX
			     C	   JNE     SET
			     C	   MOV     AH, 0
			     C	   INT     1AH
			     C	   MOV     SEED, DX    ; SEED WITH THE SYSTEM T
				IME
			     C	   
			     C	   SET:
			     C	   MOV     SEED, AX          ; UPDATE SEED = RE
				TURN VALUE
			     C	
			     C	   SUB      DX, DX
			     C	   MOV      CX, UPPER
			     C	   INC      CX
			     C	   SUB      CX, LOWER 
			     C	   CMP CX, 0 
			     C	   JE NODIVISION
			     C	   DIV      CX     ;THIS DIVIDES AX/CX AND THE 
				REMAINDER IS AT DX(NUMBER WITHIN RANGE OF THE S
				UBTRACTION UPPER - LOWER)
			     C	   NODIVISION:
			     C	   ADD      DX, LOWER
			     C	   MOV      NUMBER, DX
			     C	
			     C	   POP      DX
			     C	   POP      CX
			     C	   POP      BX
			     C	   POP      AX
			     C	ENDM RANDOMIZE
				INCLUDE PRINTNUM.INC
			     C	
			     C	;----------------------------------------------
				-------------------------------
Microsoft (R) Macro Assembler Version 5.10                  12/6/19 16:06:45
                                                             Page     1-2


			     C	;  macro to print any number providing the hexa
				decimal representation 
			     C	;----------------------------------------------
				-------------------------------
			     C	
			     C	PRINTNUM MACRO BINARY, DECIMAL
			     C	   LOCAL BACK 
			     C	   mov DECIMAL, '0'
			     C	   mov DECIMAL + 1, '0'
			     C	   MOV BX, 10            
			     C	   MOV SI, OFFSET DECIMAL
			     C	   ADD SI, 3
			     C	   DEC SI
			     C	   MOV AX, BINARY
			     C	   BACK:
			     C	      SUB DX, DX
			     C	      DIV BX
			     C	      OR DL, 30H
			     C	      MOV [SI], DL
			     C	      DEC SI
			     C	      CMP AX, 0
			     C	      JA BACK 
			     C	    
			     C	   MOV AH, 2
			     C	   MOV DH, 1    ;Y POSITION FOR PRINTING
			     C	   MOV DL, 35    ;X POSITION FOR PRINTING
			     C	   INT 10H
			     C	    
			     C	   MOV AH, 9H      ;PRINT THE NUMBER
			     C	   MOV DX, OFFSET DECIMAL   
			     C	   INT 21H
			     C	    
			     C	ENDM PRINTNUM 
				INCLUDE BUNDRY.INC
			     C	;----------------------------------------------
				-------------------------------
			     C	;  MACRO CHECK IF THE SHAPE IS WITHIN BOUNDARIE
				S 
			     C	;----------------------------------------------
				-------------------------------
			     C	WITHIN_BOUNDARIES MACRO STARTPOSX, STARTPOSY, S
				IZE, RESULT
			     C	   LOCAL UPPER_CHECK, LOWERCHECK, LEFTCHECK, RI
				GHTCHECK, WITHINRANGE
			     C	   PUSH AX
			     C	   PUSH BX
			     C	   PUSH CX
			     C	   PUSH DX
			     C	
			     C	
			     C	   MOV RESULT, 1           ;FIRST ASSUME THAT T
				HE SHAPE IS WITHIN BOUNDARIES
			     C	   UPPER_CHECK:
			     C	   ;{ CHECK FOR THE BOUNDARIES ABOVE
Microsoft (R) Macro Assembler Version 5.10                  12/6/19 16:06:45
                                                             Page     1-3


			     C	      MOV CX, STARTPOSY
			     C	      MOV BX, UPPERBOUND_Y
			     C	      SUB CX, BX
			     C	      CMP CX, 0  
			     C	      JGE LOWERCHECK
			     C	      MOV RESULT, 0   
			     C	   ;}
			     C	   
			     C	   LOWERCHECK:
			     C	   ;{CHECK FOR BOUNDARIES BELOW
			     C	      MOV CX, STARTPOSY
			     C	      ADD CX, SIZE    ;GET THE Y COORDINATE OF 
				THE LOWEST POINT OF THE TANK
			     C	      MOV BX, LOWERBOUND_Y
			     C	      SUB BX, CX
			     C	      CMP BX, 0  ;CURRENT Y DISTANCE TO THE BOU
				NDARY VS REMAINING DISTANCE TO THE BOUNDARY
			     C	      JGE RIGHTCHECK
			     C	      MOV RESULT, 0
			     C	   ;}  
			     C	
			     C	   RIGHTCHECK:
			     C	   ;{CHECK FOR BOUNDARIES ON THE RIGHT
			     C	      MOV CX, STARTPOSX
			     C	      ADD CX, SIZE    ;GET THE Y COORDINATE OF 
				THE LOWEST POINT OF THE TANK
			     C	      MOV BX, RIGHTBOUND_X
			     C	      SUB BX, CX
			     C	      CMP BX, 0  ;CURRENT Y DISTANCE TO THE BOU
				NDARY VS REMAINING DISTANCE TO THE BOUNDARY
			     C	      JGE LEFTCHECK
			     C	      MOV RESULT, 0
			     C	   ;} 
			     C	
			     C	   LEFTCHECK:
			     C	   ;{ CHECK FOR THE BOUNDARIES ON THE LEFT
			     C	      MOV CX, STARTPOSX
			     C	      MOV BX, LEFTBOUND_X
			     C	      SUB CX, BX
			     C	      CMP CX, 0  
			     C	      JGE WITHINRANGE
			     C	      MOV RESULT, 0   
			     C	   ;} 
			     C	
			     C	   WITHINRANGE:
			     C	   POP DX
			     C	   POP CX
			     C	   POP BX
			     C	   POP AX
			     C	ENDM WITHIN_BOUNDARIES 
				INCLUDE DWOBJ.INC
			     C	;----------------------------------------------
				-------------------------------
			     C	;  macro to draw any needed object(square) prov
Microsoft (R) Macro Assembler Version 5.10                  12/6/19 16:06:45
                                                             Page     1-4


				iding the length of the side,
			     C	;  a register containing the offset of the colo
				rs in the ds, starting x and y
			     C	;----------------------------------------------
				-------------------------------
			     C	DRAW_OBJECT MACRO SIZE, BITMAP, X, Y
			     C	LOCAL INNERLOOP, OUTERLOOP, DONT_DRAW
			     C	;{
			     C	   PUSH CX
			     C	   PUSH BX
			     C	   MOV SI, BITMAP  ;TAKE THE RIGHT BITMAP FROM 
				A REGISTER CONTAINING THE OFFSET
			     C	   MOV     DX, Y     ; Y TO START DRAWING AT
			     C	   MOV BP, SIZE
			     C	   MOV BH, [SI]
			     C	   
			     C	
			     C	   OUTERLOOP:;{ FOR(BP = 50; BD > 0; BP--)
			     C	      MOV     CX, X    ; X TO START 
			     C	      MOV DI, SIZE
			     C	      INNERLOOP:;{ FOR(DX = 50; DX > 0; DX--)
			     C	         LODSB              ; FETCH COLOR FOR T
				HIS PIXEL
			     C	         CMP BH ,AL
			     C	         JE DONT_DRAW
			     C	         MOV     AH, 0CH    ; AH=0CH IS BIOS.WR
				ITEPIXEL
			     C	         INT     10H
			     C	         DONT_DRAW:
			     C	         INC     CX         ; NEXT X POSITION
			     C	         DEC     DI
			     C	         JNZ     INNERLOOP
			     C	         ;}
			     C	      INC     DX         ; NEXT Y POSITION
			     C	      DEC     BP
			     C	      JNZ     OUTERLOOP
			     C		  
			     C	      POP BX
			     C	      POP CX
			     C	;} 
			     C	ENDM DRAW_OBJECT
				INCLUDE MENU.INC
			     C	MENU MACRO 
			     C	LOCAL OUTERLOOP, INNERLOOP, PRINT1, PRINT2, PRI
				NT3
			     C	                    ;{ OPEN VEDIO MODE
			     C	                        MOV     AX, 4F02H
			     C	                        MOV     BX, 105H
			     C	                        INT     10H
			     C	                    ;}
			     C	
			     C	
			     C	                ;{ DRAWING BACKGROUND
			     C	                    MOV     BH, 0      ; DISPLA
Microsoft (R) Macro Assembler Version 5.10                  12/6/19 16:06:45
                                                             Page     1-5


				YPAGE DOESN'T CHANGE
			     C	                    MOV     DX, 0     ; Y TO ST
				ART
			     C	                    MOV     CX, 0
			     C	                    MOV     AL, 7
			     C	                    MOV     AH, 0CH
			     C	                           OUTERLOOP: 
			     C	                                          INNER
				LOOP: 
			     C	                                               
				             INT     10H
			     C	                                               
				             INC     CX
			     C	                                               
				             CMP     CX, 1024
			     C	                                               
				             JNZ     INNERLOOP
			     C	                                          ;}
			     C	                                    MOV     CX,
				0
			     C	                                    INC     DX 
				        ; NEXT Y
			     C	                                    CMP     DX,
				 780
			     C	                                    JNZ     OUT
				ERLOOP
			     C	                ;}
			     C	                ;{ CLEAR THE PAGE
			     C	                    MOV     AX, 0600H
			     C	                    MOV     BH, 0
			     C	                    MOV     CX, 0
			     C	                    MOV     DX, 184FH
			     C	                    INT     10H
			     C	                ;}
			     C	                ;{ CURSUR = (34H,1AH)
			     C	                    MOV     AH, 2
			     C	                    MOV     DX, 1B34H
			     C	                    INT     10H
			     C	                ;}
			     C	                LEA     SI, MENUITEM1
			     C	                PRINT1:
			     C	                    ;{ PRINTING MENUETIME1
			     C	                        MOV     AH, 9
			     C	                        MOV     BH, 0
			     C	                        MOV     AL, [SI]
			     C	                        MOV     CX, 1
			     C	                        MOV     BL, 016H
			     C	                        INT     10H
			     C	                        INC     DL
			     C	                        MOV     AH, 2
			     C	                        INT     10H
			     C	                        INC     SI
			     C	                        MOV     AL, [SI]
			     C	                        CMP     AL, '$'
Microsoft (R) Macro Assembler Version 5.10                  12/6/19 16:06:45
                                                             Page     1-6


			     C	                        JNZ     PRINT1
			     C	                    ;}
			     C	                    ;{ CURSUR = (1BH,34H)
			     C	                        MOV     AH, 2
			     C	                        MOV     DX, 1D34H
			     C	                        INT     10H
			     C	                    ;}
			     C	                    LEA     SI, MENUITEM2
			     C	                    PRINT2:
			     C	                    ;{ PRINTING MENUETIME2
			     C	                        MOV     AH, 9
			     C	                        MOV     BH, 0
			     C	                        MOV     AL, [SI]
			     C	                        MOV     CX, 1
			     C	                        MOV     BL, 016H
			     C	                        INT     10H
			     C	                        INC     DL
			     C	                        MOV     AH, 2
			     C	                        INT     10H
			     C	                        INC     SI
			     C	                        MOV     AL, [SI]
			     C	                        CMP     AL, '$'
			     C	                        JNZ     PRINT2 
			     C	                    ;}
			     C	                    ;{ CURSUR = (33H,19H)
			     C	                        MOV     AH, 2
			     C	                        MOV     DX, 1933H
			     C	                        INT     10H
			     C	                    ;}
			     C	                    LEA     SI, MENUITEM3
			     C	                    PRINT3:
			     C	                    ;{ PRINTING MENUETIME3
			     C	                        MOV     AH, 9
			     C	                        MOV     BH, 0
			     C	                        MOV     AL, [SI]
			     C	                        MOV     CX, 1
			     C	                        MOV     BL, 016H
			     C	                        INT     10H
			     C	                        INC     DL
			     C	                        MOV     AH, 2
			     C	                        INT     10H
			     C	                        INC     SI
			     C	                        MOV     AL, [SI]
			     C	                        CMP     AL, '$'
			     C	                        JNZ     PRINT3
			     C	                    ;}
			     C	ENDM MENU
				INCLUDE GHOST.INC
			     C	GHOSTWORD MACRO
			     C	LOCAL ROW, COL, CON, CON2, CLM, RW, D, C, GMODC
				, GMODR
			     C	;GHOSTBUSTERS
			     C	;{ THIS BLOCK DRAW GHOST WORD 
			     C	    ;INITAL POINT
Microsoft (R) Macro Assembler Version 5.10                  12/6/19 16:06:45
                                                             Page     1-7


			     C	    MOV DX,250 ; Y = 250
			     C	    MOV CX,400 ; X = 400
			     C	
			     C	    MOV AL,04
			     C	    MOV AH,0CH
			     C	    ;{ THIS DRAW ALL VERTICAL LINES OF GHOST WO
				RD
			     C	    ROW: 
			     C	
			     C	        COL:
			     C	        ;{ VERTICAL LINS OF 'G'
			     C	         INT 10H 
			     C	         ADD CX,30
			     C	            ;{ IF(G) WE HANDLE IT'S VERTICAL LI
				NES 
			     C	                CMP DX,270
			     C	                JA D
			     C	                INT 10H
			     C	                JMP CON
			     C	                D: CMP DX,290 
			     C	                JB CON
			     C	                INT 10H
			     C	            ;}
			     C	        ;}   
			     C	        CON:
			     C	        ;{ VERTICAL LINS OF 'H'
			     C	            ADD CX,20
			     C	            INT 10H
			     C	            ADD CX,30
			     C	            INT 10H
			     C	        ;} 
			     C	        ;{ VERTICAL LINS OF 'O'
			     C	            ADD CX,20
			     C	            INT 10H
			     C	            ADD CX,30
			     C	            INT 10H
			     C	         ;}
			     C	        ;{ VERTICAL LINS OF 'S' 
			     C	         ADD CX,20
			     C	            ;{ IF(S) WE HANDLE IT'S VERTICAL LI
				NES 
			     C	                CMP DX,275
			     C	                JA C
			     C	                INT 10H
			     C	                JMP CON2
			     C	                C: 
			     C	                ADD CX,30
			     C	                INT 10H 
			     C	                SUB CX,30
			     C	            ;}
			     C	         CON2:
			     C	            ;{ VERTICAL LINS OF 'T' 
			     C	                ADD CX,65
			     C	                INT 10H
Microsoft (R) Macro Assembler Version 5.10                  12/6/19 16:06:45
                                                             Page     1-8


			     C	            ;} 
			     C	        SUB CX,215 
			     C	        INC DX
			     C	        CMP DX,310
			     C	        JNZ COL
			     C	    MOV DX,250      
			     C	    INC CX
			     C	    CMP CX,410
			     C	    JNZ ROW    
			     C	    ;}
			     C	    ;{ MODIFICATION TO 'G'
			     C	        MOV CX,420
			     C	        MOV DX,280
			     C	        GMODR:
			     C	            GMODC:
			     C	                INT 10H
			     C	                INC CX
			     C	                CMP CX,440
			     C	            JNZ GMODC
			     C	        MOV CX,420
			     C	        INC DX
			     C	        CMP DX,290
			     C	        JNZ GMODR    
			     C	    ;}
			     C	    ; BACK TO INTAIL POINT TO DRAW HORIZONTAL 
			     C	    MOV CX,400
			     C	    MOV DX,250
			     C	    ;{ THIS BLOCK JUST DRAW HORIZONTAL LINES OF
				 GHOST WORD
			     C	    CLM: 
			     C	        RW:
			     C	        ;{ HORIZONTAL LINS OF 'G'
			     C	            INT 10H
			     C	            ADD DX,50
			     C	            INT 10H
			     C	        ;}
			     C	        
			     C	        ;{ HORIZONTAL LINS OF 'H'
			     C	            SUB DX,50
			     C	            ADD CX,50
			     C	            ADD DX,25
			     C	            INT 10H
			     C	        ;}
			     C	
			     C	        ;{ HORIZONTAL LINS OF 'O'
			     C	            SUB DX,25
			     C	            SUB CX,50
			     C	            ADD CX,100
			     C	            INT 10H
			     C	            ADD DX,50
			     C	            INT 10H
			     C	        ;}
			     C	        ;{ HORIZONTAL LINS OF 'S'
			     C	            SUB DX,50
Microsoft (R) Macro Assembler Version 5.10                  12/6/19 16:06:45
                                                             Page     1-9


			     C	            ADD CX,50
			     C	            INT 10H
			     C	            ADD DX,25
			     C	            INT 10H
			     C	            SUB DX,25
			     C	            ADD DX,50
			     C	            INT 10H
			     C	        ;}
			     C	        ;{ HORIZONTAL LINS OF 'T'
			     C	            SUB DX,50
			     C	            ADD CX,50
			     C	            INT 10H
			     C	        ;}
			     C	        SUB CX,200
			     C	        INC CX
			     C	        CMP CX,440
			     C	        JNZ RW
			     C	    MOV CX,400
			     C	    INC DX
			     C	    CMP DX,260
			     C	    JNZ CLM
			     C	;}
			     C	ENDM GHOSTWORD
				INCLUDE BUSTERS.INC
			     C	BUSTERWORD MACRO
			     C	LOCAL ROW, COL, CON, CON2, CLM, RW, D, C, CN, R
				, L, CON3, T, CON4, CON5, CON6, CLMM, ROOW, K, 
				CON7, CON8, CON9, F, CON10
			     C	;{ THIS BLOCK DRAW BUSTER WORD 
			     C	    ;INITAL POINT
			     C	    MOV DX,320 ; Y = 320
			     C	    MOV CX,380 ; X = 380
			     C	
			     C	    MOV AL,01
			     C	    MOV AH,0CH
			     C	    ;{ THIS DRAW ALL VERTICAL LINES OF BUSTER W
				ORD
			     C	    ROW: 
			     C	
			     C	        COL:
			     C	        ;{ VERTICAL LINS OF 'B'
			     C	         INT 10H 
			     C	         ADD CX,30
			     C	            ;{ IF(B) WE HANDLE IT'S VERTICAL LI
				NES 
			     C	                CMP DX,345
			     C	                JA D
			     C	                INT 10H
			     C	                JMP CON
			     C	                D: CMP DX,355 
			     C	                JB CON
			     C	                INT 10H
			     C	            ;}
			     C	        ;}   
Microsoft (R) Macro Assembler Version 5.10                  12/6/19 16:06:45
                                                             Page     1-10


			     C	        CON:
			     C	        ;{ VERTICAL LINS OF 'U'
			     C	            ADD CX,20
			     C	            INT 10H
			     C	            ADD CX,30
			     C	            INT 10H
			     C	        ;}
			     C	        ;{ VERTICAL LINS OF 'S' 
			     C	         ADD CX,20
			     C	            ;{ IF(S) WE HANDLE IT'S VERTICAL LI
				NES 
			     C	                CMP DX,345
			     C	                JA C
			     C	                INT 10H
			     C	                JMP CON2
			     C	                C: 
			     C	                ADD CX,30
			     C	                INT 10H 
			     C	                SUB CX,30
			     C	            ;}
			     C	         CON2:
			     C	            ;{ VERTICAL LINS OF 'T' 
			     C	                ADD CX,65
			     C	                INT 10H
			     C	            ;}
			     C	        ;} 
			     C	 
			     C	        ;{ VERTICAL LINS OF 'E'
			     C	            ADD CX,35
			     C	            INT 10H
			     C	         ;}
			     C	         ;{ VERTICAL LINS OF 'R'
			     C	            ADD CX,50
			     C	            INT 10H
			     C	            ADD CX,30
			     C	                ;{ IF(R) WE HANDLE IT'S VERTICA
				L LINES 
			     C	                    CMP DX,345
			     C	                    JA R
			     C	                    INT 10H
			     C	                    JMP CN
			     C	                    R: CMP DX,355 
			     C	                    JB CN
			     C	                    INT 10H
			     C	                ;}
			     C	         ;}
			     C	        CN:
			     C	        SUB CX,280 
			     C	        INC DX
			     C	        CMP DX,380
			     C	        JNZ COL
			     C	    MOV DX,320      
			     C	    INC CX
			     C	    CMP CX,390
Microsoft (R) Macro Assembler Version 5.10                  12/6/19 16:06:45
                                                             Page     1-11


			     C	    JNZ ROW    
			     C	    ;}
			     C	    ; BACK TO INTAIL POINT TO DRAW HORIZONTAL 
			     C	    MOV DX,320
			     C	    MOV CX,380
			     C	    ;{ THIS BLOCK JUST DRAW HORIZONTAL LINES OF
				 BUSTER WORD
			     C	    CLM: 
			     C	        RW:
			     C	        ;{ HORIZONTAL LINS OF 'B'
			     C	            INT 10H
			     C	            ADD DX,20
			     C	            ;{ IF(B) WE HANDLE IT'S HORIZONTAL 
				LINES 
			     C	                CMP CX,415
			     C	                JA T
			     C	                INT 10H
			     C	                JMP CON4
			     C	                T: CMP DX,345 
			     C	                JA CON3
			     C	                INT 10H
			     C	                CON3: CMP DX,355
			     C	                JB CON4
			     C	                INT 10H
			     C	                CON4: ADD DX,10
			     C	                CMP CX,415
			     C	                JA L
			     C	                INT 10H
			     C	                JMP CON6
			     C	                L: CMP DX,345 
			     C	                JA CON5
			     C	                INT 10H
			     C	                CON5: CMP DX,355
			     C	                JB CON6
			     C	                INT 10H
			     C	                CON6:
			     C	                ADD DX,20
			     C	                INT 10H 
			     C	            ;}
			     C	        SUB DX,50
			     C	        ;}
			     C	        ;{ HORIZONTAL LINS OF 'U'
			     C	            ADD CX,50
			     C	            ADD DX,50
			     C	            INT 10H
			     C	            SUB CX,50
			     C	            SUB DX,50
			     C	        ;}
			     C	        ;{ HORIZONTAL LINS OF 'S'
			     C	            ADD CX,100
			     C	            INT 10H
			     C	            ADD DX,25
			     C	            INT 10H
			     C	            SUB DX,25
Microsoft (R) Macro Assembler Version 5.10                  12/6/19 16:06:45
                                                             Page     1-12


			     C	            ADD DX,50
			     C	            INT 10H
			     C	            SUB DX,50
			     C	            SUB CX,100
			     C	        ;}
			     C	    INC CX
			     C	    CMP CX,420
			     C	    JNZ RW
			     C	    MOV CX,380
			     C	    INC DX
			     C	    CMP DX,330
			     C	    JNZ CLM
			     C	;}
			     C	    MOV DX,320
			     C	    MOV CX,530
			     C	    ;{ THIS BLOCK JUST DRAW HORIZONTAL LINES OF
				 BUSTER WORD
			     C	    CLMM: 
			     C	        ROOW:
			     C	        INT 10H
			     C	        ;{ HORIZONTAL LINS OF 'E'
			     C	            ADD CX,50
			     C	            INT 10H
			     C	            ADD DX,25
			     C	            INT 10H
			     C	            ADD DX,25
			     C	            INT 10H
			     C	            SUB CX,50
			     C	            SUB DX,50
			     C	        ;}
			     C	        ;{HORIZONTAL LINS OF 'R'
			     C	            ADD CX,100
			     C	            INT 10H
			     C	            ADD DX,20
			     C	            ;{ IF(R) WE HANDLE IT'S HORIZONTAL 
				LINES 
			     C	                CMP CX,665
			     C	                JA K
			     C	                INT 10H
			     C	                JMP CON8
			     C	                K: CMP DX,345 
			     C	                JA CON8
			     C	                INT 10H
			     C	                CON7: CMP DX,355
			     C	                JB CON8
			     C	                INT 10H
			     C	                CON8: ADD DX,10
			     C	                CMP CX,665
			     C	                JA F
			     C	                INT 10H
			     C	                JMP CON9
			     C	                F: CMP DX,345 
			     C	                JA CON10
			     C	                INT 10H
Microsoft (R) Macro Assembler Version 5.10                  12/6/19 16:06:45
                                                             Page     1-13


			     C	                CON10: CMP DX,355
			     C	                JB CON9
			     C	                INT 10H
			     C	                CON9: 
			     C	            ;}
			     C	        SUB DX,30
			     C	        SUB CX,100
			     C	        ;}
			     C	
			     C	        ;}
			     C	        INC CX
			     C	        CMP CX,570
			     C	        JNZ ROOW
			     C	    MOV CX,530
			     C	    INC DX
			     C	    CMP DX,330
			     C	    JNZ CLMM
			     C	;}    
			     C	ENDM BUSTERWORD
				INCLUDE YWON.INC
			     C	YWN MACRO WDTH,HEGITH,STARTX,STARTY,COLOR
			     C	LOCAL ROW, COL,C, CON2,CLM,CLMN,RW,RWN
			     C	
			     C	PUSH AX
			     C	PUSH CX
			     C	PUSH DX
			     C	PUSH BX
			     C	PUSH SI
			     C	PUSH DI
			     C	
			     C	
			     C	
			     C	       ;INITAL POINT
			     C	    MOV DX,STARTY ; Y = 250
			     C	    MOV CX,STARTX ; X = 400
			     C	
			     C	    MOV AL,COLOR
			     C	    MOV AH,0CH
			     C	  
			     C	    ;{ THIS DRAW ALL VERTICAL LINES OF GHOST WO
				RD
			     C	    ROW: 
			     C	
			     C	        COL:
			     C	        ;{ IF(S) WE HANDLE IT'S VERTICAL LINES 
			     C	                CMP DX,STARTY + HEGITH / 2
			     C	                JA C
			     C	                INT 10H
			     C	                ADD CX, WDTH - 10
			     C	                INT 10H
			     C	                SUB CX,WDTH - 10
			     C	                JMP CON2
			     C	                C: 
			     C	                ADD CX,WDTH / 2
Microsoft (R) Macro Assembler Version 5.10                  12/6/19 16:06:45
                                                             Page     1-14


			     C	                SUB CX,5
			     C	                INT 10H 
			     C	                ADD CX,5
			     C	                SUB CX,WDTH / 2
			     C	            ;}
			     C	
			     C	
			     C	         CON2:
			     C	         ;{     
			     C	                ADD CX,WDTH + 10
			     C	                INT 10H
			     C	                ADD CX,WDTH -10
			     C	                INT 10H
			     C	         
			     C	         ;}
			     C	         ;{
			     C	            ADD CX,20
			     C	            INT 10H
			     C	            ADD CX,WDTH -10
			     C	            INT 10H
			     C	         ;}
			     C	
			     C	         ;{
			     C	            ADD CX,30
			     C	            INT 10H
			     C	            ADD CX,WDTH/2
			     C	            SUB CX,5
			     C	            INT 10H
			     C	            SUB CX,WDTH/2
			     C	            ADD CX,5
			     C	            ADD CX,WDTH -10
			     C	            INT 10H
			     C	         ;}
			     C	         ;{
			     C	            ADD CX,20
			     C	            INT 10H
			     C	            ADD CX,WDTH -10
			     C	            INT 10H
			     C	         ;}
			     C	
			     C	
			     C	          ;{
			     C	                 ADD CX,20
			     C	                 INT 10H
			     C	                 ADD CX,WDTH - 7
			     C	                 INT 10H         
			     C	           ;}
			     C	         SUB CX,6*WDTH + 53
			     C	           
			     C	        INC DX
			     C	        CMP DX,STARTY + HEGITH
			     C	        JNZ COL
			     C	    MOV DX,STARTY      
			     C	    INC CX
Microsoft (R) Macro Assembler Version 5.10                  12/6/19 16:06:45
                                                             Page     1-15


			     C	    CMP CX,STARTX + 10
			     C	    JNZ ROW    
			     C	    ;}
			     C	
			     C	
			     C	    ; BACK TO INTAIL POINT TO DRAW HORIZONTAL 
			     C	    MOV CX,STARTX
			     C	    MOV DX,STARTY + HEGITH / 2
			     C	    ;{ THIS BLOCK JUST DRAW HORIZONTAL LINES OF
				 GHOST WORD
			     C	    CLM: 
			     C	        RW:
			     C	        ;{ HORIZONTAL LINS OF 'G'
			     C	            INT 10H
			     C	        ;}
			     C	
			     C	        ;{
			     C	            ADD DX,HEGITH / 2 - 10
			     C	            ADD CX, WDTH + 10
			     C	            INT 10H
			     C	            SUB DX, HEGITH - 10
			     C	            INT 10H
			     C	            ADD DX,HEGITH -10
			     C	        ;}
			     C	
			     C	        ;{
			     C	            ADD CX,WDTH + 10
			     C	            INT 10H
			     C	        ;}
			     C	
			     C	        ;{
			     C	            ADD CX,WDTH + 20
			     C	            INT 10H
			     C	        ;}
			     C	        ;{
			     C	            ADD CX,WDTH + 10
			     C	            INT 10H
			     C	            SUB DX,HEGITH -10
			     C	            INT 10H
			     C	        ;}
			     C	
			     C	        ;{
			     C	            SUB CX,4*WDTH+50
			     C	            ADD DX,HEGITH/2
			     C	        ;}
			     C	        INC CX
			     C	        CMP CX,STARTX + WDTH
			     C	        JNZ RW
			     C	    MOV CX,STARTX
			     C	    INC DX
			     C	    CMP DX,STARTY + HEGITH / 2 + 10
			     C	    JNZ CLM
			     C	; }
			     C	
Microsoft (R) Macro Assembler Version 5.10                  12/6/19 16:06:45
                                                             Page     1-16


			     C	    MOV CX,STARTX + 5* WDTH + 70 
			     C	    MOV DX,STARTY
			     C	    MOV SI,STARTY
			     C	    ;{ THIS BLOCK JUST DRAW HORIZONTAL LINES OF
				 GHOST WORD
			     C	    CLMN: 
			     C	        RWN:
			     C	        ;{ HORIZONTAL LINS OF 'N'
			     C	            INT 10H
			     C	        ;}
			     C	            INC CX
			     C	            INC DX
			     C	            CMP CX,STARTX + 6* WDTH + 57
			     C	        JNZ RWN
			     C	            ADD SI,1
			     C	            MOV CX,STARTX + 5* WDTH + 70
			     C	            MOV DX,SI
			     C	            CMP DX,STARTY + 14
			     C	    JNZ CLMN
			     C	;}
			     C	
			     C	POP DI
			     C	POP SI
			     C	POP BX
			     C	POP DX
			     C	POP CX
			     C	POP AX
			     C	
			     C	ENDM YWN
				INCLUDE DRAW.INC
			     C	DRAW MACRO  WDTH,HEGITH,STARTX,STARTY,COLOR
			     C	LOCAL ROW, COL,C, CON2,CLM,CLMN,RW,RWN,CLMD,RWD
				,CLMDD,ROWDD,R,ROWRAW,ROWRAWW,CLMRAWW,K,CON8,CO
				N9,CON10,CON7,F
			     C	PUSH AX
			     C	PUSH CX
			     C	PUSH DX
			     C	PUSH BX
			     C	PUSH SI
			     C	PUSH DI
			     C	
			     C	
			     C	
			     C	   
			     C	          ;INITAL POINT
			     C	      ;INITAL POINT
			     C	    MOV DX,STARTY ; Y = 250
			     C	    MOV CX,STARTX ; X = 400
			     C	
			     C	    MOV AL,COLOR
			     C	    MOV AH,0CH
			     C	  
			     C	    ;{ THIS DRAW ALL VERTICAL LINES OF GHOST WO
				RD
Microsoft (R) Macro Assembler Version 5.10                  12/6/19 16:06:45
                                                             Page     1-17


			     C	    ROW: 
			     C	        COL:
			     C	        ;{ IF(S) WE HANDLE IT'S VERTICAL LINES 
			     C	                INT 10H
			     C	                ADD CX, WDTH - 10
			     C	                INT 10H
			     C	            ;}
			     C	         CON2:
			     C	         SUB CX,WDTH - 10
			     C	        INC DX
			     C	        CMP DX,STARTY + HEGITH
			     C	        JNZ COL
			     C	    MOV DX,STARTY      
			     C	    INC CX
			     C	    CMP CX,STARTX + 10
			     C	    JNZ ROW    
			     C	    ;}
			     C	
			     C	
			     C	    ; BACK TO INTAIL POINT TO DRAW HORIZONTAL 
			     C	    MOV CX,STARTX
			     C	    MOV DX,STARTY 
			     C	    ;{ THIS BLOCK JUST DRAW HORIZONTAL LINES OF
				 GHOST WORD
			     C	    CLM: 
			     C	        RW:
			     C	        ;{ HORIZONTAL LINS OF 'G'
			     C	            INT 10H
			     C	            ADD DX,HEGITH - 10
			     C	            INT 10H
			     C	        ;}
			     C	            SUB DX, HEGITH - 10
			     C	        INC CX
			     C	        CMP CX,STARTX + WDTH
			     C	        JNZ RW
			     C	    MOV CX,STARTX
			     C	    INC DX
			     C	    CMP DX,STARTY +  10 
			     C	    JNZ CLM
			     C	; }
			     C	
			     C	    MOV CX,STARTX + WDTH 
			     C	    MOV DX,STARTY
			     C	    MOV SI,STARTY
			     C	    ;{ THIS BLOCK JUST DRAW HORIZONTAL LINES OF
				 GHOST WORD
			     C	    CLMD: 
			     C	        RWD:
			     C	        ;{ HORIZONTAL LINS OF 'N'
			     C	            INT 10H
			     C	        ;}
			     C	            INC CX
			     C	            INC DX
			     C	            CMP CX,STARTX + WDTH + 5
Microsoft (R) Macro Assembler Version 5.10                  12/6/19 16:06:45
                                                             Page     1-18


			     C	        JNZ RWD
			     C	            ADD SI,1
			     C	            MOV CX,STARTX + WDTH 
			     C	            MOV DX,SI
			     C	            CMP DX,STARTY + 14
			     C	    JNZ CLMD
			     C	;}
			     C	
			     C	
			     C	
			     C	    MOV CX,STARTX + WDTH 
			     C	    MOV DX,STARTY + HEGITH
			     C	    MOV SI,STARTY + HEGITH
			     C	    ;{ THIS BLOCK JUST DRAW HORIZONTAL LINES OF
				 GHOST WORD
			     C	    CLMN: 
			     C	        RWN:
			     C	        ;{ HORIZONTAL LINS OF 'N'
			     C	            INT 10H
			     C	        ;}
			     C	            INC CX
			     C	            DEC DX
			     C	            CMP CX,STARTX + WDTH + 5
			     C	        JNZ RWN
			     C	            DEC SI
			     C	            MOV CX,STARTX + WDTH 
			     C	            MOV DX,SI
			     C	            CMP DX,STARTY + HEGITH -  14
			     C	    JNZ CLMN
			     C	;}
			     C	
			     C	    MOV CX,STARTX + WDTH 
			     C	    MOV DX,STARTY + 10
			     C	
			     C	    ;{ THIS DRAW ALL VERTICAL LINES OF GHOST WO
				RD
			     C	    ROWDD: 
			     C	        COLDD:
			     C	        ;{ IF(S) WE HANDLE IT'S VERTICAL LINES 
			     C	                INT 10H
			     C	            ;}
			     C	        INC DX
			     C	        CMP DX,STARTY + HEGITH - 10
			     C	        JNZ COLDD
			     C	    MOV DX,STARTY +10      
			     C	    INC CX
			     C	    CMP CX,STARTX + WDTH + 5
			     C	    JNZ ROWDD  
			     C	    ;}
			     C	    
			     C	    MOV CX,STARTX + WDTH + 15
			     C	    MOV DX, STARTY
			     C	
			     C	    ROWRAW: 
Microsoft (R) Macro Assembler Version 5.10                  12/6/19 16:06:45
                                                             Page     1-19


			     C	        COLRAW:
			     C	         ;{ VERTICAL LINS OF 'R'
			     C	            INT 10H
			     C	            ADD CX,WDTH - 10
			     C	                ;{ IF(R) WE HANDLE IT'S VERTICA
				L LINES 
			     C	                    CMP DX,STARTY +25
			     C	                    JA R
			     C	                    INT 10H
			     C	                    JMP CN
			     C	                    R: CMP DX,STARTY + 30 
			     C	                    JB CN
			     C	                    INT 10H
			     C	                ;}
			     C	         ;}
			     C	        CN:
			     C	        ;{
			     C	            ADD CX,20
			     C	            INT 10H
			     C	            ADD CX,WDTH -10
			     C	            INT 10H
			     C	        ;}
			     C	
			     C	        ;{
			     C	            ADD CX,20
			     C	            INT 10H
			     C	            ADD CX,WDTH/2
			     C	            SUB CX,5
			     C	            INT 10H
			     C	            SUB CX,WDTH/2
			     C	            ADD CX,5
			     C	            ADD CX,WDTH -10
			     C	            INT 10H
			     C	        ;}
			     C	         SUB CX, 3*WDTH + 10
			     C	        INC DX
			     C	        CMP DX,STARTY + HEGITH
			     C	        JNZ COLRAW
			     C	    MOV DX,STARTY      
			     C	    INC CX
			     C	    CMP CX,STARTX + WDTH + 25 
			     C	    JNZ ROWRAW    
			     C	    ;}
			     C	
			     C	
			     C	    MOV CX,STARTX + WDTH + 15
			     C	    MOV DX, STARTY
			     C	    ;{ THIS BLOCK JUST DRAW HORIZONTAL LINES OF
				 BUSTER WORD
			     C	    CLMRAWW: 
			     C	        ROWRAWW:
			     C	        INT 10H
			     C	        ;{HORIZONTAL LINS OF 'R'
			     C	            ADD DX,20
Microsoft (R) Macro Assembler Version 5.10                  12/6/19 16:06:45
                                                             Page     1-20


			     C	            ;{ IF(R) WE HANDLE IT'S HORIZONTAL 
				LINES 
			     C	                CMP CX,STARTX + 2 * WDTH + 10
			     C	                JA K
			     C	                INT 10H
			     C	                JMP CON8
			     C	                K: CMP DX,STARTY + 25 
			     C	                JA CON8
			     C	                INT 10H
			     C	                CON7: CMP DX,STARTY + 35
			     C	                JB CON8
			     C	                INT 10H
			     C	                CON8: ADD DX,10
			     C	                CMP CX,STARTX + 2*WDTH + 10
			     C	                JA F
			     C	                INT 10H
			     C	                JMP CON9
			     C	                F: CMP DX,STARTY + 25  
			     C	                JA CON10
			     C	                INT 10H
			     C	                CON10: CMP DX,STARTY + 35
			     C	                JB CON9
			     C	                INT 10H
			     C	                
			     C	            ;}
			     C	            CON9:
			     C	            SUB DX,30
			     C	            ;{
			     C	                ADD CX,WDTH + 10
			     C	                INT 10H
			     C	                ADD DX,HEGITH/2 
			     C	                INT 10H
			     C	                ADD DX,HEGITH/2 -10
			     C	            ;} 
			     C	            ;{
			     C	                ADD CX,WDTH + 10
			     C	                INT 10H
			     C	                SUB CX,2*WDTH + 20
			     C	                SUB DX,HEGITH -10
			     C	            ;}
			     C	
			     C	        INC CX
			     C	        CMP CX,STARTX + 2* WDTH + 15
			     C	        JNZ ROWRAWW
			     C	    MOV CX,STARTX + WDTH + 15
			     C	    INC DX
			     C	    CMP DX,STARTY + 10
			     C	    JNZ CLMRAWW
			     C	;}  
			     C	
			     C	POP DI
			     C	POP SI
			     C	POP BX
			     C	POP DX
Microsoft (R) Macro Assembler Version 5.10                  12/6/19 16:06:45
                                                             Page     1-21


			     C	POP CX
			     C	POP AX
			     C	
			     C	ENDM DRAW
				INCLUDE DCOL.INC
			     C	;----------------------------------------------
				-----------------------------------------------
				--------------
			     C	;  MACRO CHECK IF THE COLLISION OF TWO SQUARE G
				RIDS GIVEN THEIR SIZE AND UPPER LEFT VERTIX (ST
				ART POSITION)
			     C	;  COLLISION_STATUS = 0 IF THERE IS A COLLISION
				 ELSE IT IS EQUAL TO ONE 
			     C	;----------------------------------------------
				-----------------------------------------------
				--------------
			     C	DETECT_COLLISION MACRO STARTPOS_1X, STARTPOS_1Y
				, SIZE_1, STARTPOS_2X, STARTPOS_2Y, SIZE_2, COL
				LISION_STATUS
			     C	    LOCAL COMMUTATEX, SKIP_COMMUTATEX, NO_COLLI
				SION, COMMUTEY, SKIP_COMMUTATEY, END_DETECT_COL
				L
			     C	    PUSH AX
			     C	    PUSH BX
			     C	    PUSH CX
			     C	    PUSH DX
			     C	    PUSH BP
			     C	        ;DIVIDE THE FIRST SIZE BY 2
			     C	        MOV CX, SIZE_1
			     C	        SHR CX, 1
			     C	        ;DIVIDE THE SECOND SIZE BY 2
			     C	        MOV DX, SIZE_2
			     C	        SHR DX, 1
			     C	        ;GET THE SUPPOSED DISTANCE BETWEEN THEI
				R CENTERS
			     C	        MOV BP , 0
			     C	        ADD BP, DX
			     C	        ADD BP, CX
			     C	        ;INORDER TO MAKE SURE THE TWO SQUARES A
				RE COLLIDING NOT ONLY PASSING BY
			     C	        SUB BP ,3 
			     C	        ;GET THE ACTUAL DISTANCE BETWEEN THEIR 
				CENTERS
			     C	        ;GET THE CENTER X COORDINATE OF BOTH
			     C	        MOV AX, STARTPOS_1X
			     C	        ADD AX, CX
			     C	        MOV BX, STARTPOS_2X
			     C	        ADD BX, DX
			     C	        ;SUBTRACT THE TWO X COORDINATES TO GET 
				THE ACTUAL ABSOLUTE DISTANCE BETWEEN THEIR CENT
				ERS IN X
			     C	        CMP AX,BX
			     C	        JL COMMUTATEX
			     C	        SUB AX ,BX
Microsoft (R) Macro Assembler Version 5.10                  12/6/19 16:06:45
                                                             Page     1-22


			     C	        CMP AX, BP
			     C	        JA NO_COLLISION
			     C	        JMP SKIP_COMMUTATEX
			     C	        COMMUTATEX: 
			     C	        ;{
			     C	            SUB BX, AX
			     C	            CMP BX, BP
			     C	            JA NO_COLLISION
			     C	        ;}    
			     C	        SKIP_COMMUTATEX:
			     C	        ;MAKE SIMILAR CHECKS TO THE ABOVE BUT I
				N Y COORDINATES
			     C	        MOV AX, STARTPOS_1Y
			     C	        ADD AX, CX
			     C	        MOV BX, STARTPOS_2Y
			     C	        ADD BX, DX
			     C	        ;SUBTRACT THE TWO Y COORDINATES TO GET 
				THE ACTUAL ABSOLUTE DISTANCE BETWEEN THEIR CENT
				ERS IN Y
			     C	        CMP AX, BX
			     C	        JL COMMUTEY
			     C	        SUB AX,BX
			     C	        ;COMPARE WITH THE REQUIRED DISTANCE FOR
				 COLLISION
			     C	        CMP AX, BP
			     C	        JA NO_COLLISION
			     C	        JMP SKIP_COMMUTATEY
			     C	        COMMUTEY:
			     C	        ;{
			     C	            SUB BX, AX
			     C	            CMP BX, BP
			     C	            JA NO_COLLISION
			     C	        ;}    
			     C	        SKIP_COMMUTATEY:
			     C	        ;THEN THE TWO SQUARES COLLIDE
			     C	        MOV COLLISION_STATUS, 0
			     C	        JMP END_DETECT_COLL
			     C	
			     C	    NO_COLLISION:
			     C	    MOV COLLISION_STATUS, 1    
			     C	    END_DETECT_COLL:   
			     C	    POP BP
			     C	    POP DX
			     C	    POP CX
			     C	    POP BX
			     C	    POP AX
			     C	ENDM DETECT_COLLISION
				                    .MODEL COMPACT;TINY   :DATA
				+CODE = 64KB    
				                                ;SMALL  :DATA =
				 64KB AND CODE = 64KB
				                                ;MEDIUM :DATA =
				 64KB BUT NO CODE RESTRICTION
				                                ;COMPACT:CODE =
Microsoft (R) Macro Assembler Version 5.10                  12/6/19 16:06:45
                                                             Page     1-23


				 64KB BUT NO DATA RESTRICTION
				                                ;LARGE  :SINGLE
				 SET OF DATA CAN NOT EXCEED 64KB
				                                ;HUGE   :NO RES
				TRICTION
				;----------------------------------------------
				--------
				                    .STACK 64   ;64 BYTES FOR S
				TACK      
				;----------------------------------------------
				--------                    
				                    .DATA                      
				     
				                    
				
				
 0000  F5 F5 F5 F5 F5 F5	BITMAP_LEFT_PLAYER2 DB 245, 245, 245, 245, 245,
				 245, 245, 222, 18, 0, 0, 0, 0, 0, 0, 0, 0, 0, 
				0, 0
       F5 DE 12 00 00 00	
       00 00 00 00 00 00	
       00 00			
 0014  00 00 00 00 00 00	DB 0, 0, 0, 0, 0, 0, 0, 0, 0, 0, 0, 0, 0, 0, 0,
				 0, 0, 0, 0, 0
       00 00 00 00 00 00	
       00 00 00 00 00 00	
       00 00			
 0028  00 00 00 00 00 11	DB 0, 0, 0, 0, 0, 17, 222, 245, 245, 245, 245, 
				245, 245, 245, 245, 245, 245, 222, 17, 0
       DE F5 F5 F5 F5 F5	
       F5 F5 F5 F5 F5 DE	
       11 00			
 003C  00 00 00 00 00 00	DB 0, 0, 0, 0, 0, 0, 0, 17, 17, 17, 0, 0, 0, 17
				, 17, 198, 198, 199, 199, 199
       00 11 11 11 00 00	
       00 11 11 C6 C6 C7	
       C7 C7			
 0050  C7 C7 C6 C6 C6 00	DB 199, 199, 198, 198, 198, 0, 0, 0, 17, 199, 1
				7, 0, 0, 0, 17, 17, 18, 246, 245, 245
       00 00 11 C7 11 00	
       00 00 11 11 12 F6	
       F5 F5			
 0064  F5 F5 F5 F5 F5 F5	DB 245, 245, 245, 245, 245, 245, 18, 18, 17, 0,
				 0, 0, 0, 0, 0, 0, 198, 125, 125, 126
       12 12 11 00 00 00	
       00 00 00 00 C6 7D	
       7D 7E			
 0078  7E 7E 7E 7E 7D 7D	DB 126, 126, 126, 126, 125, 125, 125, 125, 125,
				 125, 125, 125, 55, 54, 125, 17, 0, 199, 125, 5
				4
       7D 7D 7D 7D 7D 7D	
       37 36 7D 11 00 C7	
       7D 36			
 008C  7D 11 00 C7 7E C5	DB 125, 17, 0, 199, 126, 197, 18, 18, 245, 245,
Microsoft (R) Macro Assembler Version 5.10                  12/6/19 16:06:45
                                                             Page     1-24


				 245, 245, 245, 245, 245, 222, 18, 17, 0, 0
       12 12 F5 F5 F5 F5	
       F5 F5 F5 DE 12 11	
       00 00			
 00A0  00 11 11 11 11 00	DB 0, 17, 17, 17, 17, 0, 126, 54, 54, 54, 54, 5
				4, 54, 54, 54, 54, 54, 54, 54, 54
       7E 36 36 36 36 36	
       36 36 36 36 36 36	
       36 36			
 00B4  36 36 36 36 36 C7	DB 54, 54, 54, 54, 54, 199, 0, 126, 54, 53, 54,
				 198, 0, 198, 54, 55, 198, 17, 222, 245
       00 7E 36 35 36 C6	
       00 C6 36 37 C6 11	
       DE F5			
 00C8  F5 F5 F5 F5 DE 12	DB 245, 245, 245, 245, 222, 18, 198, 198, 0, 0,
				 17, 126, 174, 161, 210, 17, 126, 54, 53, 54
       C6 C6 00 00 11 7E	
       AE A1 D2 11 7E 36	
       35 36			
 00DC  36 36 36 36 36 36	DB 54, 54, 54, 54, 54, 54, 55, 54, 54, 54, 55, 
				55, 54, 54, 125, 17, 0, 126, 53, 53
       37 36 36 36 37 37	
       36 36 7D 11 00 7E	
       35 35			
 00F0  35 C6 00 C6 36 36	DB 53, 198, 0, 198, 54, 54, 125, 17, 18, 18, 24
				5, 245, 245, 246, 18, 198, 125, 125, 17, 0
       7D 11 12 12 F5 F5	
       F5 F6 12 C6 7D 7D	
       11 00			
 0104  7F 36 4E 1B 8B 11	DB 127, 54, 78, 27, 139, 17, 126, 54, 53, 54, 5
				4, 54, 54, 54, 54, 126, 198, 198, 126, 198
       7E 36 35 36 36 36	
       36 36 36 7E C6 C6	
       7E C6			
 0118  C7 C6 7E 7E C7 00	DB 199, 198, 126, 126, 199, 0, 0, 126, 54, 53, 
				54, 126, 0, 126, 54, 53, 54, 126, 17, 17
       00 7E 36 35 36 7E	
       00 7E 36 35 36 7E	
       11 11			
 012C  F5 F5 F5 DE 11 C6	DB 245, 245, 245, 222, 17, 198, 54, 54, 199, 0,
				 126, 53, 77, 28, 6, 184, 126, 54, 53, 54
       36 36 C7 00 7E 35	
       4D 1C 06 B8 7E 36	
       35 36			
 0140  36 36 36 36 7E C6	DB 54, 54, 54, 54, 126, 198, 0, 0, 0, 0, 17, 20
				9, 187, 17, 0, 0, 199, 126, 55, 54
       00 00 00 00 11 D1	
       BB 11 00 00 C7 7E	
       37 36			
 0154  36 7E C7 7E 36 35	DB 54, 126, 199, 126, 54, 53, 54, 55, 198, 0, 2
				45, 245, 245, 222, 17, 198, 54, 54, 198, 0
       36 37 C6 00 F5 F5	
       F5 DE 11 C6 36 36	
       C6 00			
Microsoft (R) Macro Assembler Version 5.10                  12/6/19 16:06:45
                                                             Page     1-25


 0168  37 35 4E 18 72 11	DB 55, 53, 78, 24, 114, 17, 126, 54, 53, 54, 54
				, 54, 55, 126, 198, 126, 17, 0, 0, 17
       7E 36 35 36 36 36	
       37 7E C6 7E 11 00	
       00 11			
 017C  96 19 8C B9 00 C7	DB 150, 25, 140, 185, 0, 199, 126, 126, 126, 12
				6, 126, 126, 125, 54, 54, 53, 53, 54, 198, 0
       7E 7E 7E 7E 7E 7E	
       7D 36 36 35 35 36	
       C6 00			
 0190  F5 F5 F5 DE 11 C6	DB 245, 245, 245, 222, 17, 198, 54, 54, 198, 0,
				 125, 54, 54, 246, 184, 0, 126, 54, 54, 54
       36 36 C6 00 7D 36	
       36 F6 B8 00 7E 36	
       36 36			
 01A4  36 36 7E 11 C5 36	DB 54, 54, 126, 17, 197, 54, 126, 0, 0, 126, 78
				, 30, 89, 114, 0, 127, 55, 125, 17, 0
       7E 00 00 7E 4E 1E	
       59 72 00 7F 37 7D	
       11 00			
 01B8  00 7E 36 36 36 36	DB 0, 126, 54, 54, 54, 54, 54, 55, 198, 0, 245,
				 245, 245, 246, 17, 126, 54, 54, 198, 0
       36 37 C6 00 F5 F5	
       F5 F6 11 7E 36 36	
       C6 00			
 01CC  C6 37 37 7F 11 00	DB 198, 55, 55, 127, 17, 0, 198, 125, 55, 125, 
				125, 126, 198, 198, 125, 54, 125, 0, 0, 125
       C6 7D 37 7D 7D 7E	
       C6 C6 7D 36 7D 00	
       00 7D			
 01E0  0B 64 1C E8 00 7E	DB 11, 100, 28, 232, 0, 126, 54, 54, 199, 0, 0,
				 199, 125, 54, 55, 125, 125, 126, 17, 0
       36 36 C7 00 00 C7	
       7D 36 37 7D 7D 7E	
       11 00			
 01F4  F5 F5 F5 F6 12 7E	DB 245, 245, 245, 246, 18, 126, 54, 54, 126, 0,
				 0, 126, 125, 55, 126, 17, 0, 17, 17, 17
       36 36 7E 00 00 7E	
       7D 37 7E 11 00 11	
       11 11			
 0208  00 11 C6 7D 36 36	DB 0, 17, 198, 125, 54, 54, 125, 0, 0, 125, 53,
				 11, 3, 18, 0, 126, 54, 54, 125, 17
       7D 00 00 7D 35 0B	
       03 12 00 7E 36 36	
       7D 11			
 021C  00 00 11 C6 C7 11	DB 0, 0, 17, 198, 199, 17, 17, 17, 0, 0, 246, 2
				46, 246, 18, 17, 199, 126, 55, 199, 0
       11 11 00 00 F6 F6	
       F6 12 11 C7 7E 37	
       C7 00			
 0230  00 00 7F 7E 7E 11	DB 0, 0, 127, 126, 126, 17, 0, 0, 0, 0, 0, 0, 1
				98, 54, 53, 53, 125, 17, 17, 126
       00 00 00 00 00 00	
       C6 36 35 35 7D 11	
Microsoft (R) Macro Assembler Version 5.10                  12/6/19 16:06:45
                                                             Page     1-26


       11 7E			
 0244  36 36 7E 00 00 7D	DB 54, 54, 126, 0, 0, 125, 54, 54, 54, 126, 17,
				 0, 0, 0, 0, 0, 0, 0, 0, 0
       36 36 36 7E 11 00	
       00 00 00 00 00 00	
       00 00			
 0258  12 12 12 11 11 00	DB 18, 18, 18, 17, 17, 0, 176, 199, 0, 0, 0, 0,
				 0, 199, 199, 0, 0, 0, 0, 0
       B0 C7 00 00 00 00	
       00 C7 C7 00 00 00	
       00 00			
 026C  00 00 C6 36 35 36	DB 0, 0, 198, 54, 53, 54, 54, 126, 198, 199, 19
				9, 199, 199, 198, 126, 54, 54, 54, 54, 54
       36 7E C6 C7 C7 C7	
       C7 C6 7E 36 36 36	
       36 36			
 0280  7D 11 00 00 00 00	DB 125, 17, 0, 0, 0, 0, 0, 0, 0, 0, 17, 0, 17, 
				17, 17, 0, 0, 0, 0, 0
       00 00 00 00 11 00	
       11 11 11 00 00 00	
       00 00			
 0294  00 00 00 00 00 00	DB 0, 0, 0, 0, 0, 0, 17, 186, 17, 0, 0, 0, 198,
				 55, 54, 54, 54, 54, 125, 199
       11 BA 11 00 00 00	
       C6 37 36 36 36 36	
       7D C7			
 02A8  00 00 11 7D 36 36	DB 0, 0, 17, 125, 54, 54, 54, 54, 54, 54, 54, 1
				26, 0, 0, 0, 0, 0, 0, 0, 0
       36 36 36 36 36 7E	
       00 00 00 00 00 00	
       00 00			
 02BC  00 11 EC A2 A2 89	DB 0, 17, 236, 162, 162, 137, 136, 136, 137, 13
				7, 137, 137, 137, 212, 18, 198, 175, 24, 211, 0
       88 88 89 89 89 89	
       89 D4 12 C6 AF 18	
       D3 00			
 02D0  00 11 7E 7E 37 36	DB 0, 17, 126, 126, 55, 54, 54, 54, 54, 126, 0,
				 0, 198, 54, 54, 54, 54, 54, 54, 54
       36 36 36 7E 00 00	
       C6 36 36 36 36 36	
       36 36			
 02E4  36 7E 00 11 C6 C6	DB 54, 126, 0, 17, 198, 198, 17, 0, 17, 17, 0, 
				209, 25, 29, 29, 89, 28, 88, 28, 28
       11 00 11 11 00 D1	
       19 1D 1D 59 1C 58	
       1C 1C			
 02F8  1C 59 59 07 AC 36	DB 28, 89, 89, 7, 172, 54, 78, 29, 164, 17, 176
				, 126, 126, 198, 197, 54, 54, 54, 54, 55
       4E 1D A4 11 B0 7E	
       7E C6 C5 36 36 36	
       36 37			
 030C  7E C5 7E 36 36 36	DB 126, 197, 126, 54, 54, 54, 54, 54, 54, 54, 5
				4, 126, 0, 198, 125, 125, 199, 17, 18, 18
       36 36 36 36 36 7E	
Microsoft (R) Macro Assembler Version 5.10                  12/6/19 16:06:45
                                                             Page     1-27


       00 C6 7D 7D C7 11	
       12 12			
 0320  00 14 66 0F 0F 0F	DB 0, 20, 102, 15, 15, 15, 15, 15, 15, 15, 15, 
				15, 15, 100, 78, 53, 76, 15, 7, 18
       0F 0F 0F 0F 0F 0F	
       0F 64 4E 35 4C 0F	
       07 12			
 0334  7F 37 7D 11 00 7D	DB 127, 55, 125, 17, 0, 125, 54, 54, 54, 54, 54
				, 54, 54, 54, 54, 54, 54, 54, 54, 54
       36 36 36 36 36 36	
       36 36 36 36 36 36	
       36 36			
 0348  36 C5 00 7E 36 36	DB 54, 197, 0, 126, 54, 54, 198, 17, 222, 246, 
				0, 151, 78, 100, 100, 100, 101, 101, 101, 101
       C6 11 DE F6 00 97	
       4E 64 64 64 65 65	
       65 65			
 035C  65 64 64 4C 35 35	DB 101, 100, 100, 76, 53, 53, 76, 100, 25, 18, 
				127, 55, 125, 0, 0, 125, 54, 54, 54, 54
       4C 64 19 12 7F 37	
       7D 00 00 7D 36 36	
       36 36			
 0370  36 36 36 36 36 36	DB 54, 54, 54, 54, 54, 54, 54, 54, 54, 54, 54, 
				198, 0, 126, 54, 54, 198, 17, 222, 245
       36 36 36 36 36 C6	
       00 7E 36 36 C6 11	
       DE F5			
 0384  00 C6 36 35 35 35	DB 0, 198, 54, 53, 53, 53, 53, 53, 53, 53, 53, 
				53, 53, 54, 54, 54, 53, 78, 150, 17
       35 35 35 35 35 35	
       35 36 36 36 35 4E	
       96 11			
 0398  C6 7D 7E 11 11 37	DB 198, 125, 126, 17, 17, 55, 54, 54, 54, 54, 5
				4, 54, 54, 54, 54, 54, 54, 54, 54, 54
       36 36 36 36 36 36	
       36 36 36 36 36 36	
       36 36			
 03AC  36 C6 00 7E 36 36	DB 54, 198, 0, 126, 54, 54, 199, 17, 222, 245, 
				0, 0, 127, 126, 1, 126, 126, 126, 126, 126
       C7 11 DE F5 00 00	
       7F 7E 01 7E 7E 7E	
       7E 7E			
 03C0  7E 7E 7E 7E 7E 7E	DB 126, 126, 126, 126, 126, 126, 55, 126, 199, 
				0, 0, 198, 197, 198, 125, 54, 54, 126, 126, 54
       37 7E C7 00 00 C6	
       C5 C6 7D 36 36 7E	
       7E 36			
 03D4  36 36 36 35 36 7D	DB 54, 54, 54, 53, 54, 125, 126, 125, 54, 54, 5
				4, 198, 0, 126, 54, 55, 17, 17, 222, 245
       7E 7D 36 36 36 C6	
       00 7E 36 37 11 11	
       DE F5			
 03E8  00 00 00 11 11 00	DB 0, 0, 0, 17, 17, 0, 0, 0, 0, 0, 0, 0, 0, 0, 
				0, 17, 17, 17, 0, 0
Microsoft (R) Macro Assembler Version 5.10                  12/6/19 16:06:45
                                                             Page     1-28


       00 00 00 00 00 00	
       00 00 00 11 11 11	
       00 00			
 03FC  00 00 C7 7D 36 36	DB 0, 0, 199, 125, 54, 54, 126, 0, 17, 125, 54,
				 53, 53, 53, 54, 198, 0, 198, 54, 54
       7E 00 11 7D 36 35	
       35 35 36 C6 00 C6	
       36 36			
 0410  36 C6 00 C5 36 37	DB 54, 198, 0, 197, 54, 55, 17, 17, 222, 245, 1
				7, 17, 0, 0, 0, 0, 0, 0, 0, 0
       11 11 DE F5 11 11	
       00 00 00 00 00 00	
       00 00			
 0424  00 00 00 00 00 00	DB 0, 0, 0, 0, 0, 0, 0, 0, 0, 0, 0, 17, 126, 54
				, 54, 54, 125, 0, 0, 197
       00 00 00 00 00 11	
       7E 36 36 36 7D 00	
       00 C5			
 0438  37 36 36 36 7D 00	DB 55, 54, 54, 54, 125, 0, 0, 198, 54, 53, 54, 
				127, 0, 126, 54, 54, 199, 17, 222, 245
       00 C6 36 35 36 7F	
       00 7E 36 36 C7 11	
       DE F5			
 044C  F5 F5 11 00 00 00	DB 245, 245, 17, 0, 0, 0, 0, 0, 0, 0, 0, 0, 0, 
				0, 0, 0, 0, 0, 0, 0
       00 00 00 00 00 00	
       00 00 00 00 00 00	
       00 00			
 0460  11 7E 36 36 36 36	DB 17, 126, 54, 54, 54, 54, 54, 126, 198, 17, 1
				99, 199, 199, 199, 199, 199, 126, 125, 54, 53
       36 7E C6 11 C7 C7	
       C7 C7 C7 C7 7E 7D	
       36 35			
 0474  36 7E 00 7E 36 36	DB 54, 126, 0, 126, 54, 54, 198, 17, 222, 245, 
				245, 245, 18, 0, 0, 0, 0, 0, 0, 0
       C6 11 DE F5 F5 F5	
       12 00 00 00 00 00	
       00 00			
 0488  00 00 00 00 00 00	DB 0, 0, 0, 0, 0, 0, 0, 0, 0, 0, 198, 55, 54, 5
				4, 54, 54, 54, 54, 125, 199
       00 00 00 00 C6 37	
       36 36 36 36 36 36	
       7D C7			
 049C  00 00 00 00 00 7E	DB 0, 0, 0, 0, 0, 126, 54, 54, 54, 54, 54, 198,
				 0, 126, 54, 54, 198, 17, 222, 245
       36 36 36 36 36 C6	
       00 7E 36 36 C6 11	
       DE F5			
 04B0  F5 F5 F5 11 11 11	DB 245, 245, 245, 17, 17, 17, 0, 0, 198, 126, 1
				26, 198, 17, 0, 0, 0, 0, 0, 0, 0
       00 00 C6 7E 7E C6	
       11 00 00 00 00 00	
       00 00			
 04C4  C6 7D 36 36 36 36	DB 198, 125, 54, 54, 54, 54, 54, 54, 54, 126, 1
Microsoft (R) Macro Assembler Version 5.10                  12/6/19 16:06:45
                                                             Page     1-29


				7, 0, 0, 0, 17, 55, 54, 53, 54, 54
       36 36 36 7E 11 00	
       00 00 11 37 36 35	
       36 36			
 04D8  7D 11 00 C6 7E 7E	DB 125, 17, 0, 198, 126, 126, 17, 17, 222, 245,
				 245, 245, 245, 245, 18, 18, 17, 17, 126, 54
       11 11 DE F5 F5 F5	
       F5 F5 12 12 11 11	
       7E 36			
 04EC  36 37 7F 00 00 00	DB 54, 55, 127, 0, 0, 0, 17, 17, 0, 0, 0, 198, 
				125, 54, 54, 54, 54, 54, 54, 55
       11 11 00 00 00 C6	
       7D 36 36 36 36 36	
       36 37			
 0500  7E 7E 7E 7E 7D 36	DB 126, 126, 126, 126, 125, 54, 54, 54, 54, 55,
				 198, 0, 0, 17, 198, 17, 0, 17, 222, 245
       36 36 36 37 C6 00	
       00 11 C6 11 00 11	
       DE F5			
 0514  F5 F5 F5 F5 F5 DE	DB 245, 245, 245, 245, 245, 222, 17, 199, 54, 5
				3, 53, 54, 126, 0, 0, 0, 198, 126, 198, 0
       11 C7 36 35 35 36	
       7E 00 00 00 C6 7E	
       C6 00			
 0528  00 00 C6 7D 36 36	DB 0, 0, 198, 125, 54, 54, 54, 54, 54, 54, 54, 
				54, 54, 54, 54, 54, 54, 54, 55, 197
       36 36 36 36 36 36	
       36 36 36 36 36 36	
       37 C5			
 053C  00 00 00 00 11 00	DB 0, 0, 0, 0, 17, 0, 0, 17, 222, 245, 245, 245
				, 245, 245, 245, 246, 17, 198, 54, 53
       00 11 DE F5 F5 F5	
       F5 F5 F5 F6 11 C6	
       36 35			
 0550  35 36 7D 00 00 11	DB 53, 54, 125, 0, 0, 17, 126, 54, 126, 17, 0, 
				0, 0, 198, 55, 54, 54, 54, 54, 54
       7E 36 7E 11 00 00	
       00 C6 37 36 36 36	
       36 36			
 0564  35 35 35 35 35 35	DB 53, 53, 53, 53, 53, 53, 54, 54, 126, 17, 0, 
				0, 0, 17, 198, 199, 0, 17, 222, 245
       36 36 7E 11 00 00	
       00 11 C6 C7 00 11	
       DE F5			
 0578  F5 F5 F5 F5 F5 F6	DB 245, 245, 245, 245, 245, 246, 17, 17, 55, 53
				, 53, 54, 126, 0, 0, 17, 125, 54, 125, 17
       11 11 37 35 35 36	
       7E 00 00 11 7D 36	
       7D 11			
 058C  00 00 00 00 7E 36	DB 0, 0, 0, 0, 126, 54, 54, 54, 54, 54, 54, 54,
				 54, 54, 54, 54, 54, 126, 17, 0
       36 36 36 36 36 36	
       36 36 36 36 36 7E	
       11 00			
Microsoft (R) Macro Assembler Version 5.10                  12/6/19 16:06:45
                                                             Page     1-30


 05A0  00 00 00 7E 37 7D	DB 0, 0, 0, 126, 55, 125, 199, 17, 222, 246, 24
				5, 245, 245, 245, 245, 246, 17, 0, 198, 125
       C7 11 DE F6 F5 F5	
       F5 F5 F5 F6 11 00	
       C6 7D			
 05B4  37 7D C6 00 00 00	DB 55, 125, 198, 0, 0, 0, 126, 125, 197, 0, 0, 
				0, 0, 0, 17, 126, 125, 125, 125, 125
       7E 7D C5 00 00 00	
       00 00 11 7E 7D 7D	
       7D 7D			
 05C8  7D 7D 7D 7D 7D 37	DB 125, 125, 125, 125, 125, 55, 126, 198, 0, 0,
				 0, 0, 126, 54, 54, 54, 126, 17, 18, 18
       7E C6 00 00 00 00	
       7E 36 36 36 7E 11	
       12 12			
 05DC  F5 F5 F5 F5 F5 F6	DB 245, 245, 245, 245, 245, 246, 17, 0, 0, 0, 1
				7, 17, 0, 0, 0, 0, 0, 0, 0, 0
       11 00 00 00 11 11	
       00 00 00 00 00 00	
       00 00			
 05F0  00 00 00 00 00 00	DB 0, 0, 0, 0, 0, 0, 17, 17, 17, 17, 17, 17, 0,
				 17, 17, 199, 17, 0, 0, 0
       11 11 11 11 11 11	
       00 11 11 C7 11 00	
       00 00			
 0604  00 7E 36 36 36 36	DB 0, 126, 54, 54, 54, 54, 54, 126, 17, 17, 245
				, 245, 245, 245, 246, 18, 17, 0, 0, 0
       36 7E 11 11 F5 F5	
       F5 F5 F6 12 11 00	
       00 00			
 0618  00 00 00 00 00 00	DB 0, 0, 0, 0, 0, 0, 0, 0, 17, 17, 0, 0, 0, 0, 
				0, 0, 0, 0, 0, 0
       00 00 11 11 00 00	
       00 00 00 00 00 00	
       00 00			
 062C  00 00 00 00 00 00	DB 0, 0, 0, 0, 0, 0, 0, 0, 0, 0, 0, 125, 54, 53
				, 54, 54, 54, 55, 199, 0
       00 00 00 00 00 7D	
       36 35 36 36 36 37	
       C7 00			
 0640  F5 F5 F5 F6 12 11	DB 245, 245, 245, 246, 18, 17, 17, 0, 126, 126,
				 17, 0, 0, 0, 0, 0, 199, 126, 125, 126
       11 00 7E 7E 11 00	
       00 00 00 00 C7 7E	
       7D 7E			
 0654  C6 00 00 00 00 00	DB 198, 0, 0, 0, 0, 0, 0, 0, 0, 0, 0, 0, 0, 0, 
				0, 0, 0, 0, 0, 0
       00 00 00 00 00 00	
       00 00 00 00 00 00	
       00 00			
 0668  00 7E 36 35 36 36	DB 0, 126, 54, 53, 54, 54, 54, 55, 199, 0, 245,
				 245, 245, 222, 18, 0, 0, 199, 54, 54
       36 37 C7 00 F5 F5	
       F5 DE 12 00 00 C7	
Microsoft (R) Macro Assembler Version 5.10                  12/6/19 16:06:45
                                                             Page     1-31


       36 36			
 067C  C6 00 00 11 11 00	DB 198, 0, 0, 17, 17, 0, 126, 54, 54, 54, 126, 
				17, 0, 0, 0, 0, 0, 0, 0, 0
       7E 36 36 36 7E 11	
       00 00 00 00 00 00	
       00 00			
 0690  00 00 00 00 00 00	DB 0, 0, 0, 0, 0, 0, 0, 0, 0, 0, 0, 126, 54, 54
				, 54, 54, 54, 125, 17, 0
       00 00 00 00 00 7E	
       36 36 36 36 36 7D	
       11 00			
 06A4  F5 F5 F5 DE 11 00	DB 245, 245, 245, 222, 17, 0, 0, 125, 53, 54, 1
				27, 17, 186, 114, 187, 17, 126, 54, 53, 54
       00 7D 35 36 7F 11	
       BA 72 BB 11 7E 36	
       35 36			
 06B8  37 7E C6 C6 11 00	DB 55, 126, 198, 198, 17, 0, 0, 0, 0, 0, 0, 0, 
				0, 0, 0, 0, 0, 17, 198, 198
       00 00 00 00 00 00	
       00 00 00 00 00 11	
       C6 C6			
 06CC  C6 C6 7E 37 36 36	DB 198, 198, 126, 55, 54, 54, 54, 125, 17, 0, 2
				45, 245, 245, 222, 17, 0, 198, 54, 53, 54
       36 7D 11 00 F5 F5	
       F5 DE 11 00 C6 36	
       35 36			
 06E0  7F 12 A4 19 A4 11	DB 127, 18, 164, 25, 164, 17, 126, 54, 53, 54, 
				54, 54, 55, 55, 126, 17, 0, 0, 0, 0
       7E 36 35 36 36 36	
       37 37 7E 11 00 00	
       00 00			
 06F4  00 00 00 11 00 00	DB 0, 0, 0, 17, 0, 0, 0, 126, 55, 54, 125, 198,
				 17, 126, 54, 54, 54, 125, 17, 0
       00 7E 37 36 7D C6	
       11 7E 36 36 36 7D	
       11 00			
 0708  F5 F5 F5 DE 11 11	DB 245, 245, 245, 222, 17, 17, 125, 54, 54, 126
				, 198, 150, 27, 29, 25, 18, 127, 54, 53, 54
       7D 36 36 7E C6 96	
       1B 1D 19 12 7F 36	
       35 36			
 071C  36 36 36 36 36 7E	DB 54, 54, 54, 54, 54, 126, 199, 198, 198, 198,
				 198, 198, 198, 126, 199, 0, 0, 126, 54, 53
       C7 C6 C6 C6 C6 C6	
       C6 7E C7 00 00 7E	
       36 35			
 0730  36 C6 00 C6 36 35	DB 54, 198, 0, 198, 54, 53, 54, 55, 17, 0, 245,
				 245, 245, 222, 17, 198, 54, 54, 125, 199
       36 37 11 00 F5 F5	
       F5 DE 11 C6 36 36	
       7D C7			
 0744  7F 36 4D 4D 18 11	DB 127, 54, 77, 77, 24, 17, 127, 54, 53, 54, 54
				, 53, 53, 53, 54, 54, 125, 125, 125, 55
       7F 36 35 36 36 35	
Microsoft (R) Macro Assembler Version 5.10                  12/6/19 16:06:45
                                                             Page     1-32


       35 35 36 36 7D 7D	
       7D 37			
 0758  7D 7D 36 36 7E 11	DB 125, 125, 54, 54, 126, 17, 17, 125, 53, 52, 
				53, 127, 0, 198, 54, 53, 53, 55, 199, 0
       11 7D 35 34 35 7F	
       00 C6 36 35 35 37	
       C7 00			
 076C  F5 F5 F5 DE 11 C6	DB 245, 245, 245, 222, 17, 198, 54, 54, 198, 0,
				 126, 54, 53, 54, 151, 0, 199, 54, 54, 54
       36 36 C6 00 7E 36	
       35 36 97 00 C7 36	
       36 36			
 0780  36 36 36 36 36 36	DB 54, 54, 54, 54, 54, 54, 54, 54, 54, 54, 54, 
				54, 54, 54, 54, 198, 0, 126, 54, 53
       36 36 36 36 36 36	
       36 36 36 C6 00 7E	
       36 35			
 0794  36 C6 00 C6 36 35	DB 54, 198, 0, 198, 54, 53, 54, 125, 199, 0, 24
				5, 245, 245, 222, 17, 199, 55, 54, 125, 126
       36 7D C7 00 F5 F5	
       F5 DE 11 C7 37 36	
       7D 7E			
 07A8  7E 37 37 7E B0 00	DB 126, 55, 55, 126, 176, 0, 0, 127, 126, 125, 
				125, 125, 125, 125, 125, 55, 125, 126, 127, 127
       00 7F 7E 7D 7D 7D	
       7D 7D 7D 37 7D 7E	
       7F 7F			
 07BC  7E 7D 36 36 7D C6	DB 126, 125, 54, 54, 125, 198, 0, 198, 126, 55,
				 127, 0, 0, 17, 126, 54, 55, 126, 17, 0
       00 C6 7E 37 7F 00	
       00 11 7E 36 37 7E	
       11 00			
 07D0  F5 F5 F5 DE 11 11	DB 245, 245, 245, 222, 17, 17, 125, 54, 53, 54,
				 126, 17, 17, 0, 0, 0, 0, 0, 0, 0
       7D 36 35 36 7E 11	
       11 00 00 00 00 00	
       00 00			
 07E4  11 11 11 11 11 C7	DB 17, 17, 17, 17, 17, 199, 17, 0, 0, 0, 0, 0, 
				199, 198, 198, 0, 0, 0, 0, 0
       11 00 00 00 00 00	
       C7 C6 C6 00 00 00	
       00 00			
 07F8  00 00 00 00 00 C7	DB 0, 0, 0, 0, 0, 199, 199, 17, 0, 0, 245, 245,
				 245, 222, 17, 199, 55, 53, 53, 54
       C7 11 00 00 F5 F5	
       F5 DE 11 C7 37 35	
       35 36			
 080C  C6 00 00 00 00 BA	DB 198, 0, 0, 0, 0, 186, 187, 186, 17, 0, 0, 0,
				 0, 0, 0, 0, 0, 17, 186, 186
       BB BA 11 00 00 00	
       00 00 00 00 00 11	
       BA BA			
 0820  B9 00 00 00 00 00	DB 185, 0, 0, 0, 0, 0, 0, 0, 0, 0, 185, 211, 21
				0, 17, 0, 0, 0, 0, 0, 0
Microsoft (R) Macro Assembler Version 5.10                  12/6/19 16:06:45
                                                             Page     1-33


       00 00 00 00 B9 D3	
       D2 11 00 00 00 00	
       00 00			
 0834  F5 F5 F5 DE 11 C6	DB 245, 245, 245, 222, 17, 198, 54, 54, 54, 126
				, 0, 0, 0, 0, 211, 7, 28, 27, 138, 0
       36 36 36 7E 00 00	
       00 00 D3 07 1C 1B	
       8A 00			
 0848  00 00 00 00 00 00	DB 0, 0, 0, 0, 0, 0, 17, 164, 28, 27, 24, 209, 
				0, 0, 0, 0, 0, 0, 0, 209
       11 A4 1C 1B 18 D1	
       00 00 00 00 00 00	
       00 D1			
 085C  19 1C 1C A2 00 00	DB 25, 28, 28, 162, 0, 0, 0, 0, 0, 0, 245, 245,
				 245, 222, 17, 198, 54, 54, 126, 17
       00 00 00 00 F5 F5	
       F5 DE 11 C6 36 36	
       7E 11			
 0870  00 00 00 12 19 0F	DB 0, 0, 0, 18, 25, 15, 15, 15, 25, 17, 0, 0, 0
				, 0, 0, 17, 8, 29, 15, 15
       0F 0F 19 11 00 00	
       00 00 00 11 08 1D	
       0F 0F			
 0884  1D A1 00 00 00 00	DB 29, 161, 0, 0, 0, 0, 0, 0, 18, 25, 30, 15, 1
				5, 7, 17, 0, 0, 0, 0, 0
       00 00 12 19 1E 0F	
       0F 07 11 00 00 00	
       00 00			
 0898  F5 F5 F5 DE 11 11	DB 245, 245, 245, 222, 17, 17, 126, 125, 199, 0
				, 0, 0, 232, 24, 102, 15, 15, 15, 7, 18
       7E 7D C7 00 00 00	
       E8 18 66 0F 0F 0F	
       07 12			
 08AC  00 00 00 00 11 A2	DB 0, 0, 0, 0, 17, 162, 27, 30, 15, 15, 101, 17
				3, 0, 0, 0, 0, 0, 18, 24, 29
       1B 1E 0F 0F 65 AD	
       00 00 00 00 00 12	
       18 1D			
 08C0  0F 0F 0F 07 12 00	DB 15, 15, 15, 7, 18, 0, 0, 0, 17, 17, 245, 245
				, 245, 222, 17, 0, 198, 198, 0, 0
       00 00 11 11 F5 F5	
       F5 DE 11 00 C6 C6	
       00 00			
 08D4  00 11 17 1C 65 4D	DB 0, 17, 23, 28, 101, 77, 77, 77, 148, 17, 0, 
				0, 0, 0, 236, 27, 30, 101, 77, 77
       4D 4D 94 11 00 00	
       00 00 EC 1B 1E 65	
       4D 4D			
 08E8  4F 97 00 00 00 00	DB 79, 151, 0, 0, 0, 0, 17, 23, 28, 100, 77, 77
				, 77, 148, 17, 0, 0, 17, 18, 18
       11 17 1C 64 4D 4D	
       4D 94 11 00 00 11	
       12 12			
 08FC  F5 F5 F5 DE 12 00	DB 245, 245, 245, 222, 18, 0, 0, 0, 0, 0, 0, 18
Microsoft (R) Macro Assembler Version 5.10                  12/6/19 16:06:45
                                                             Page     1-34


				, 24, 29, 77, 54, 54, 54, 126, 17
       00 00 00 00 00 12	
       18 1D 4D 36 36 36	
       7E 11			
 0910  00 00 00 00 A2 5A	DB 0, 0, 0, 0, 162, 90, 101, 79, 54, 54, 125, 1
				98, 0, 0, 0, 0, 18, 24, 29, 77
       65 4F 36 36 7D C6	
       00 00 00 00 12 18	
       1D 4D			
 0924  36 36 36 7E 11 00	DB 54, 54, 54, 126, 17, 0, 0, 17, 222, 245, 245
				, 245, 245, 246, 18, 17, 0, 0, 0, 0
       00 11 DE F5 F5 F5	
       F5 F6 12 11 00 00	
       00 00			
 0938  00 12 A2 19 18 7E	DB 0, 18, 162, 25, 24, 126, 127, 127, 199, 0, 0
				, 0, 0, 0, 20, 27, 7, 125, 127, 127
       7F 7F C7 00 00 00	
       00 00 14 1B 07 7D	
       7F 7F			
 094C  C7 11 00 00 00 00	DB 199, 17, 0, 0, 0, 0, 18, 162, 25, 172, 126, 
				127, 127, 199, 0, 0, 17, 18, 245, 245
       12 A2 19 AC 7E 7F	
       7F C7 00 00 11 12	
       F5 F5			
 0960  F5 F5 F5 F5 F6 12	DB 245, 245, 245, 245, 246, 18, 17, 0, 0, 0, 0,
				 0, 18, 19, 18, 17, 0, 0, 0, 0
       11 00 00 00 00 00	
       12 13 12 11 00 00	
       00 00			
 0974  00 00 00 00 11 EC	DB 0, 0, 0, 0, 17, 236, 19, 17, 17, 0, 0, 0, 0,
				 0, 0, 0, 0, 18, 19, 18
       13 11 11 00 00 00	
       00 00 00 00 00 12	
       13 12			
 0988  11 11 00 00 00 11	DB 17, 17, 0, 0, 0, 17, 18, 246, 245, 245, 245,
				 245, 245, 245, 245, 222, 17, 0, 0, 0
       12 F6 F5 F5 F5 F5	
       F5 F5 F5 DE 11 00	
       00 00			
 099C  00 00 00 00 00 00	DB 0, 0, 0, 0, 0, 0, 0, 0, 0, 0, 0, 0, 0, 0, 0,
				 0, 0, 0, 0, 0
       00 00 00 00 00 00	
       00 00 00 00 00 00	
       00 00			
 09B0  00 00 00 00 00 00	DB 0, 0, 0, 0, 0, 0, 0, 0, 0, 0, 0, 0, 0, 0, 0,
				 17, 222, 245, 245, 245
       00 00 00 00 00 00	
       00 00 00 11 DE F5	
       F5 F5			
				
 09C4  F5 F5 F5 F5 F5 F5	BITMAP_UPLEFT_PLAYER2 DB 245, 245, 245, 245, 24
				5, 245, 245, 245, 245, 245, 245, 245, 245, 245,
				 245, 245, 245, 245, 245, 245
       F5 F5 F5 F5 F5 F5	
Microsoft (R) Macro Assembler Version 5.10                  12/6/19 16:06:45
                                                             Page     1-35


       F5 F5 F5 F5 F5 F5	
       F5 F5			
 09D8  F5 F5 F5 F5 F5 F5	DB 245, 245, 245, 245, 245, 245, 245, 245, 245,
				 245, 245, 245, 245, 245, 245, 245, 245, 245, 2
				45, 245
       F5 F5 F5 F5 F5 F5	
       F5 F5 F5 F5 F5 F5	
       F5 F5			
 09EC  F5 F5 F5 F5 F5 F5	DB 245, 245, 245, 245, 245, 245, 245, 245, 245,
				 245, 245, 245, 245, 245, 245, 245, 245, 245, 2
				45, 245
       F5 F5 F5 F5 F5 F5	
       F5 F5 F5 F5 F5 F5	
       F5 F5			
 0A00  F5 F5 F5 F5 F5 F5	DB 245, 245, 245, 245, 245, 245, 245, 245, 245,
				 245, 245, 245, 245, 245, 245, 245, 245, 245, 2
				45, 245
       F5 F5 F5 F5 F5 F5	
       F5 F5 F5 F5 F5 F5	
       F5 F5			
 0A14  F5 F5 F5 F5 F5 F5	DB 245, 245, 245, 245, 245, 245, 245, 245, 245,
				 245, 245, 245, 245, 245, 245, 245, 245, 244, 2
				45, 245
       F5 F5 F5 F5 F5 F5	
       F5 F5 F5 F5 F5 F4	
       F5 F5			
 0A28  F5 F5 F5 F5 F5 F5	DB 245, 245, 245, 245, 245, 245, 245, 245, 245,
				 245, 245, 245, 245, 245, 245, 245, 245, 245, 2
				45, 245
       F5 F5 F5 F5 F5 F5	
       F5 F5 F5 F5 F5 F5	
       F5 F5			
 0A3C  F5 F5 F5 F5 F5 F5	DB 245, 245, 245, 245, 245, 245, 245, 245, 245,
				 245, 245, 245, 245, 245, 245, 245, 245, 245, 2
				45, 245
       F5 F5 F5 F5 F5 F5	
       F5 F5 F5 F5 F5 F5	
       F5 F5			
 0A50  F5 F5 F5 F5 F5 F5	DB 245, 245, 245, 245, 245, 245, 245, 245, 245,
				 245, 245, 245, 245, 245, 245, 245, 245, 245, 2
				45, 245
       F5 F5 F5 F5 F5 F5	
       F5 F5 F5 F5 F5 F5	
       F5 F5			
 0A64  F5 F5 F5 F5 F5 F5	DB 245, 245, 245, 245, 245, 245, 245, 245, 245,
				 18, 18, 18, 18, 18, 18, 18, 18, 246, 245, 245
       F5 F5 F5 12 12 12	
       12 12 12 12 12 F6	
       F5 F5			
 0A78  F5 F5 F5 F5 F5 F5	DB 245, 245, 245, 245, 245, 245, 245, 245, 245,
				 245, 245, 245, 245, 245, 245, 245, 245, 245, 2
				45, 245
       F5 F5 F5 F5 F5 F5	
       F5 F5 F5 F5 F5 F5	
Microsoft (R) Macro Assembler Version 5.10                  12/6/19 16:06:45
                                                             Page     1-36


       F5 F5			
 0A8C  F5 F5 F5 F5 F5 F5	DB 245, 245, 245, 245, 245, 245, 245, 245, 245,
				 245, 245, 245, 245, 245, 245, 245, 245, 245, 2
				22, 17
       F5 F5 F5 F5 F5 F5	
       F5 F5 F5 F5 F5 F5	
       DE 11			
 0AA0  00 00 00 00 00 11	DB 0, 0, 0, 0, 0, 17, 17, 222, 245, 245, 245, 2
				45, 245, 245, 245, 245, 245, 245, 245, 245
       11 DE F5 F5 F5 F5	
       F5 F5 F5 F5 F5 F5	
       F5 F5			
 0AB4  F5 F5 F5 F5 F5 F5	DB 245, 245, 245, 245, 245, 245, 245, 245, 245,
				 245, 245, 245, 245, 245, 245, 245, 245, 245, 2
				45, 245
       F5 F5 F5 F5 F5 F5	
       F5 F5 F5 F5 F5 F5	
       F5 F5			
 0AC8  F5 F5 F5 12 12 DE	DB 245, 245, 245, 18, 18, 222, 245, 222, 17, 0,
				 17, 126, 127, 0, 199, 126, 126, 18, 18, 246
       F5 DE 11 00 11 7E	
       7F 00 C7 7E 7E 12	
       12 F6			
 0ADC  F5 F5 F5 F5 F5 F5	DB 245, 245, 245, 245, 245, 245, 245, 245, 245,
				 245, 245, 245, 245, 245, 245, 245, 245, 245, 2
				45, 245
       F5 F5 F5 F5 F5 F5	
       F5 F5 F5 F5 F5 F5	
       F5 F5			
 0AF0  F5 F5 F5 F5 F5 F5	DB 245, 245, 245, 245, 245, 245, 245, 245, 245,
				 245, 245, 245, 222, 18, 18, 18, 18, 17, 0, 198
       F5 F5 F5 F5 F5 F5	
       DE 12 12 12 12 11	
       00 C6			
 0B04  7E 37 94 18 17 7D	DB 126, 55, 148, 24, 23, 125, 198, 0, 17, 18, 2
				45, 245, 245, 245, 245, 245, 245, 245, 245, 245
       C6 00 11 12 F5 F5	
       F5 F5 F5 F5 F5 F5	
       F5 F5			
 0B18  F5 F5 F5 F5 F5 F5	DB 245, 245, 245, 245, 245, 245, 245, 245, 245,
				 245, 245, 245, 245, 245, 245, 245, 245, 245, 2
				45, 245
       F5 F5 F5 F5 F5 F5	
       F5 F5 F5 F5 F5 F5	
       F5 F5			
 0B2C  F5 12 12 18 19 12	DB 245, 18, 18, 24, 25, 18, 17, 17, 198, 54, 55
				, 126, 7, 15, 29, 20, 0, 0, 0, 17
       11 11 C6 36 37 7E	
       07 0F 1D 14 00 00	
       00 11			
 0B40  12 F6 F5 F5 F5 F5	DB 18, 246, 245, 245, 245, 245, 245, 245, 245, 
				245, 245, 245, 245, 245, 245, 245, 245, 245, 24
				5, 245
       F5 F5 F5 F5 F5 F5	
Microsoft (R) Macro Assembler Version 5.10                  12/6/19 16:06:45
                                                             Page     1-37


       F5 F5 F5 F5 F5 F5	
       F5 F5			
 0B54  F5 F5 F5 F5 F5 F5	DB 245, 245, 245, 245, 245, 245, 245, 245, 245,
				 245, 18, 18, 128, 29, 15, 7, 18, 0, 199, 55
       F5 F5 F5 F5 12 12	
       80 1D 0F 07 12 00	
       C7 37			
 0B68  7E 11 8A 1D 1B 14	DB 126, 17, 138, 29, 27, 20, 17, 17, 198, 199, 
				17, 18, 246, 245, 245, 245, 245, 245, 245, 245
       11 11 C6 C7 11 12	
       F6 F5 F5 F5 F5 F5	
       F5 F5			
 0B7C  F5 F5 F5 F5 F5 F5	DB 245, 245, 245, 245, 245, 245, 245, 245, 245,
				 245, 245, 245, 245, 245, 245, 245, 245, 245, 2
				45, 18
       F5 F5 F5 F5 F5 F5	
       F5 F5 F5 F5 F5 F5	
       F5 12			
 0B90  11 C7 36 4D 0F 0F	DB 17, 199, 54, 77, 15, 15, 28, 235, 0, 17, 17,
				 0, 17, 210, 151, 124, 54, 54, 54, 54
       1C EB 00 11 11 00	
       11 D2 97 7C 36 36	
       36 36			
 0BA4  7E 11 12 F6 F5 F5	DB 126, 17, 18, 246, 245, 245, 245, 245, 245, 2
				45, 245, 245, 245, 245, 245, 245, 245, 245, 245
				, 245
       F5 F5 F5 F5 F5 F5	
       F5 F5 F5 F5 F5 F5	
       F5 F5			
 0BB8  F5 F5 F5 F5 F5 F5	DB 245, 245, 245, 245, 245, 245, 245, 245, 245,
				 18, 0, 199, 126, 54, 101, 15, 15, 28, 235, 0
       F5 F5 F5 12 00 C7	
       7E 36 65 0F 0F 1C	
       EB 00			
 0BCC  00 C7 11 00 C7 36	DB 0, 199, 17, 0, 199, 54, 53, 53, 53, 53, 54, 
				126, 17, 18, 222, 245, 245, 245, 245, 245
       35 35 35 35 36 7E	
       11 12 DE F5 F5 F5	
       F5 F5			
 0BE0  F5 F5 F5 F5 F5 F5	DB 245, 245, 245, 245, 245, 245, 245, 245, 245,
				 245, 245, 245, 245, 245, 245, 245, 245, 245, 2
				45, 18
       F5 F5 F5 F5 F5 F5	
       F5 F5 F5 F5 F5 F5	
       F5 12			
 0BF4  00 00 00 7F 36 65	DB 0, 0, 0, 127, 54, 101, 15, 15, 28, 210, 176,
				 126, 126, 0, 199, 125, 54, 54, 54, 54
       0F 0F 1C D2 B0 7E	
       7E 00 C7 7D 36 36	
       36 36			
 0C08  35 36 7E 00 12 F6	DB 53, 54, 126, 0, 18, 246, 245, 245, 245, 245,
				 245, 245, 245, 245, 245, 245, 245, 245, 245, 2
				45
       F5 F5 F5 F5 F5 F5	
Microsoft (R) Macro Assembler Version 5.10                  12/6/19 16:06:45
                                                             Page     1-38


       F5 F5 F5 F5 F5 F5	
       F5 F5			
 0C1C  F5 F5 F5 F5 F5 F5	DB 245, 245, 245, 245, 245, 245, 245, 222, 18, 
				17, 0, 0, 0, 0, 127, 54, 102, 15, 15, 89
       F5 DE 12 11 00 00	
       00 00 7F 36 66 0F	
       0F 59			
 0C30  17 96 7D 7D 7E C6	DB 23, 150, 125, 125, 126, 198, 198, 198, 199, 
				126, 54, 53, 54, 126, 17, 18, 222, 245, 245, 24
				5
       C6 C6 C7 7E 36 35	
       36 7E 11 12 DE F5	
       F5 F5			
 0C44  F5 F5 F5 F5 F5 F5	DB 245, 245, 245, 245, 245, 245, 245, 245, 245,
				 245, 245, 245, 245, 245, 245, 245, 246, 18, 0,
				 0
       F5 F5 F5 F5 F5 F5	
       F5 F5 F5 F5 F6 12	
       00 00			
 0C58  00 00 00 00 00 7F	DB 0, 0, 0, 0, 0, 127, 54, 77, 15, 15, 27, 234,
				 199, 126, 125, 198, 17, 17, 17, 198
       36 4D 0F 0F 1B EA	
       C7 7E 7D C6 11 11	
       11 C6			
 0C6C  7E 03 36 36 7E C6	DB 126, 3, 54, 54, 126, 198, 18, 222, 245, 245,
				 245, 245, 245, 245, 245, 245, 245, 245, 245, 2
				45
       12 DE F5 F5 F5 F5	
       F5 F5 F5 F5 F5 F5	
       F5 F5			
 0C80  F5 F5 F5 F5 F5 DE	DB 245, 245, 245, 245, 245, 222, 18, 17, 0, 0, 
				0, 0, 0, 0, 0, 0, 17, 54, 11, 11
       12 11 00 00 00 00	
       00 00 00 00 11 36	
       0B 0B			
 0C94  4F 11 00 11 7E 7D	DB 79, 17, 0, 17, 126, 125, 125, 55, 54, 55, 12
				6, 199, 199, 197, 54, 125, 198, 17, 222, 245
       7D 37 36 37 7E C7	
       C7 C5 36 7D C6 11	
       DE F5			
 0CA8  F5 F5 F5 F5 F5 F5	DB 245, 245, 245, 245, 245, 245, 245, 245, 245,
				 245, 245, 245, 245, 245, 222, 18, 0, 0, 17, 19
				8
       F5 F5 F5 F5 F5 F5	
       F5 F5 DE 12 00 00	
       11 C6			
 0CBC  C6 11 00 00 00 00	DB 198, 17, 0, 0, 0, 0, 0, 127, 55, 54, 55, 127
				, 0, 0, 199, 54, 53, 53, 53, 55
       00 7F 37 36 37 7F	
       00 00 C7 36 35 35	
       35 37			
 0CD0  C7 00 00 11 37 36	DB 199, 0, 0, 17, 55, 54, 125, 199, 17, 222, 24
				5, 245, 245, 245, 245, 245, 245, 245, 245, 245
       7D C7 11 DE F5 F5	
Microsoft (R) Macro Assembler Version 5.10                  12/6/19 16:06:45
                                                             Page     1-39


       F5 F5 F5 F5 F5 F5	
       F5 F5			
 0CE4  F5 F5 F5 DE 11 00	DB 245, 245, 245, 222, 17, 0, 0, 198, 55, 54, 5
				5, 198, 0, 0, 0, 0, 0, 0, 176, 199
       00 C6 37 36 37 C6	
       00 00 00 00 00 00	
       B0 C7			
 0CF8  7F 7D C6 00 C7 36	DB 127, 125, 198, 0, 199, 54, 53, 54, 55, 198, 
				0, 17, 198, 126, 126, 126, 125, 125, 198, 17
       35 36 37 C6 00 11	
       C6 7E 7E 7E 7D 7D	
       C6 11			
 0D0C  12 F5 F5 F5 F5 F5	DB 18, 245, 245, 245, 245, 245, 245, 245, 245, 
				245, 245, 245, 222, 18, 0, 0, 199, 54, 54, 54
       F5 F5 F5 F5 F5 F5	
       DE 12 00 00 C7 36	
       36 36			
 0D20  7E C7 00 00 00 00	DB 126, 199, 0, 0, 0, 0, 0, 0, 0, 0, 17, 198, 1
				26, 126, 126, 54, 54, 126, 198, 223
       00 00 00 00 11 C6	
       7E 7E 7E 36 36 7E	
       C6 DF			
 0D34  A2 18 17 7D 7E 7F	DB 162, 24, 23, 125, 126, 127, 126, 125, 126, 1
				98, 18, 18, 245, 245, 245, 245, 245, 245, 245, 
				245
       7E 7D 7E C6 12 12	
       F5 F5 F5 F5 F5 F5	
       F5 F5			
 0D48  F5 DE 11 00 00 00	DB 245, 222, 17, 0, 0, 0, 55, 53, 54, 125, 17, 
				0, 0, 0, 0, 0, 0, 0, 0, 0
       37 35 36 7D 11 00	
       00 00 00 00 00 00	
       00 00			
 0D5C  00 00 C5 36 36 36	DB 0, 0, 197, 54, 54, 54, 126, 0, 17, 148, 99, 
				15, 25, 18, 126, 55, 126, 126, 54, 54
       7E 00 11 94 63 0F	
       19 12 7E 37 7E 7E	
       36 36			
 0D70  C6 11 12 F5 F5 F5	DB 198, 17, 18, 245, 245, 245, 245, 245, 245, 2
				45, 18, 17, 0, 0, 0, 54, 53, 54, 125, 23
       F5 F5 F5 F5 12 11	
       00 00 00 36 35 36	
       7D 17			
 0D84  18 D3 00 00 00 00	DB 24, 211, 0, 0, 0, 0, 0, 198, 126, 126, 198, 
				198, 125, 54, 54, 54, 198, 0, 17, 54
       00 C6 7E 7E C6 C6	
       7D 36 36 36 C6 00	
       11 36			
 0D98  4C 1E A4 00 7E 36	DB 76, 30, 164, 0, 126, 54, 198, 17, 54, 53, 54
				, 198, 17, 18, 246, 245, 245, 245, 245, 245
       C6 11 36 35 36 C6	
       11 12 F6 F5 F5 F5	
       F5 F5			
 0DAC  00 00 11 C5 36 35	DB 0, 0, 17, 197, 54, 53, 54, 198, 17, 164, 89,
Microsoft (R) Macro Assembler Version 5.10                  12/6/19 16:06:45
                                                             Page     1-40


				 24, 18, 0, 0, 0, 0, 125, 54, 54
       36 C6 11 A4 59 18	
       12 00 00 00 00 7D	
       36 36			
 0DC0  36 37 37 36 36 36	DB 54, 55, 55, 54, 54, 54, 126, 17, 17, 125, 3,
				 3, 222, 17, 126, 54, 126, 17, 126, 54
       7E 11 11 7D 03 03	
       DE 11 7E 36 7E 11	
       7E 36			
 0DD4  36 36 C7 11 12 F5	DB 54, 54, 199, 17, 18, 245, 245, 245, 245, 245
				, 0, 199, 125, 54, 53, 54, 126, 0, 0, 186
       F5 F5 F5 F5 00 C7	
       7D 36 35 36 7E 00	
       00 BA			
 0DE8  A2 09 36 C6 00 00	DB 162, 9, 54, 198, 0, 0, 0, 125, 54, 54, 54, 1
				26, 126, 54, 54, 54, 54, 125, 197, 17
       00 7D 36 36 36 7E	
       7E 36 36 36 36 7D	
       C5 11			
 0DFC  11 11 C6 7D 36 36	DB 17, 17, 198, 125, 54, 54, 54, 126, 0, 197, 5
				4, 54, 198, 0, 17, 18, 246, 245, 245, 245
       36 7E 00 C5 36 36	
       C6 00 11 12 F6 F5	
       F5 F5			
 0E10  00 C6 36 35 36 7E	DB 0, 198, 54, 53, 54, 126, 0, 0, 0, 0, 199, 54
				, 54, 125, 17, 0, 0, 125, 54, 54
       00 00 00 00 C7 36	
       36 7D 11 00 00 7D	
       36 36			
 0E24  7D 11 11 36 36 36	DB 125, 17, 17, 54, 54, 54, 54, 54, 125, 17, 0,
				 0, 126, 54, 54, 54, 54, 54, 0, 0
       36 36 7D 11 00 00	
       7E 36 36 36 36 36	
       00 00			
 0E38  7E 7D C6 00 00 11	DB 126, 125, 198, 0, 0, 17, 18, 246, 245, 245, 
				0, 17, 197, 126, 198, 0, 0, 198, 125, 125
       12 F6 F5 F5 00 11	
       C5 7E C6 00 00 C6	
       7D 7D			
 0E4C  7E 36 36 7E 11 00	DB 126, 54, 54, 126, 17, 0, 0, 125, 54, 54, 125
				, 17, 0, 125, 54, 54, 54, 54, 54, 125
       00 7D 36 36 7D 11	
       00 7D 36 36 36 36	
       36 7D			
 0E60  7E 7E 37 36 36 36	DB 126, 126, 55, 54, 54, 54, 54, 54, 199, 0, 0,
				 198, 125, 54, 55, 126, 17, 18, 222, 245
       36 36 C7 00 00 C6	
       7D 36 37 7E 11 12	
       DE F5			
 0E74  00 00 00 00 00 00	DB 0, 0, 0, 0, 0, 0, 17, 125, 54, 54, 54, 54, 5
				4, 126, 0, 0, 0, 126, 54, 54
       11 7D 36 36 36 36	
       36 7E 00 00 00 7E	
       36 36			
Microsoft (R) Macro Assembler Version 5.10                  12/6/19 16:06:45
                                                             Page     1-41


 0E88  36 7E 11 C6 7D 36	DB 54, 126, 17, 198, 125, 54, 54, 54, 54, 54, 5
				4, 54, 54, 54, 54, 54, 54, 126, 17, 0
       36 36 36 36 36 36	
       36 36 36 36 36 7E	
       11 00			
 0E9C  00 C5 36 36 36 36	DB 0, 197, 54, 54, 54, 54, 126, 17, 18, 222, 0,
				 0, 0, 0, 0, 0, 0, 126, 54, 53
       7E 11 12 DE 00 00	
       00 00 00 00 00 7E	
       36 35			
 0EB0  36 36 36 7E 00 00	DB 54, 54, 54, 126, 0, 0, 0, 0, 198, 54, 54, 54
				, 198, 0, 198, 125, 54, 54, 54, 54
       00 00 C6 36 36 36	
       C6 00 C6 7D 36 36	
       36 36			
 0EC4  36 36 36 36 36 36	DB 54, 54, 54, 54, 54, 54, 126, 17, 0, 0, 126, 
				54, 54, 54, 54, 54, 54, 125, 17, 17
       7E 11 00 00 7E 36	
       36 36 36 36 36 7D	
       11 11			
 0ED8  00 00 00 14 A4 D3	DB 0, 0, 0, 20, 164, 211, 0, 17, 126, 54, 54, 5
				3, 54, 198, 0, 0, 0, 0, 199, 54
       00 11 7E 36 36 35	
       36 C6 00 00 00 00	
       C7 36			
 0EEC  35 35 7D C6 11 C6	DB 53, 53, 125, 198, 17, 198, 197, 126, 125, 54
				, 54, 54, 54, 54, 54, 54, 126, 0, 0, 17
       C5 7E 7D 36 36 36	
       36 36 36 36 7E 00	
       00 11			
 0F00  36 36 36 36 36 36	DB 54, 54, 54, 54, 54, 54, 54, 54, 198, 0, 0, 0
				, 17, 23, 30, 28, 235, 0, 0, 126
       36 36 C6 00 00 00	
       11 17 1E 1C EB 00	
       00 7E			
 0F14  36 35 36 7E 11 00	DB 54, 53, 54, 126, 17, 0, 0, 0, 17, 125, 54, 5
				4, 54, 54, 126, 17, 0, 0, 198, 55
       00 00 11 7D 36 36	
       36 36 7E 11 00 00	
       C6 37			
 0F28  36 36 36 36 36 36	DB 54, 54, 54, 54, 54, 54, 126, 0, 0, 0, 125, 5
				4, 54, 54, 54, 54, 54, 54, 198, 0
       7E 00 00 00 7D 36	
       36 36 36 36 36 36	
       C6 00			
 0F3C  12 11 00 96 4D 0F	DB 18, 17, 0, 150, 77, 15, 27, 211, 0, 0, 126, 
				54, 53, 54, 126, 17, 0, 0, 0, 199
       1B D3 00 00 7E 36	
       35 36 7E 11 00 00	
       00 C7			
 0F50  7E 36 35 35 36 7D	DB 126, 54, 53, 53, 54, 125, 198, 198, 126, 54,
				 54, 54, 54, 54, 54, 126, 17, 0, 0, 0
       C6 C6 7E 36 36 36	
       36 36 36 7E 11 00	
Microsoft (R) Macro Assembler Version 5.10                  12/6/19 16:06:45
                                                             Page     1-42


       00 00			
 0F64  11 7E 36 36 36 36	DB 17, 126, 54, 54, 54, 54, 53, 54, 198, 0, 246
				, 18, 17, 199, 54, 76, 30, 24, 17, 0
       35 36 C6 00 F6 12	
       11 C7 36 4C 1E 18	
       11 00			
 0F78  00 7D 36 35 36 C6	DB 0, 125, 54, 53, 54, 198, 0, 0, 0, 0, 199, 12
				5, 54, 54, 54, 54, 54, 54, 54, 54
       00 00 00 00 C7 7D	
       36 36 36 36 36 36	
       36 36			
 0F8C  36 36 36 36 7E 00	DB 54, 54, 54, 54, 126, 0, 0, 0, 0, 0, 0, 199, 
				125, 54, 54, 54, 54, 125, 199, 0
       00 00 00 00 00 C7	
       7D 36 36 36 36 7D	
       C7 00			
 0FA0  F5 F6 12 11 C7 36	DB 245, 246, 18, 17, 199, 54, 77, 24, 17, 0, 0,
				 0, 126, 54, 54, 197, 0, 0, 0, 0
       4D 18 11 00 00 00	
       7E 36 36 C5 00 00	
       00 00			
 0FB4  00 C7 C6 C6 7D 36	DB 0, 199, 198, 198, 125, 54, 53, 53, 53, 54, 1
				25, 126, 126, 198, 17, 0, 0, 17, 125, 126
       35 35 35 36 7D 7E	
       7E C6 11 00 00 11	
       7D 7E			
 0FC8  11 11 7D 36 36 36	DB 17, 17, 125, 54, 54, 54, 126, 199, 0, 0, 245
				, 245, 245, 222, 17, 198, 55, 126, 17, 0
       7E C7 00 00 F5 F5	
       F5 DE 11 C6 37 7E	
       11 00			
 0FDC  00 00 00 7F 37 7D	DB 0, 0, 0, 127, 55, 125, 198, 0, 0, 0, 0, 0, 0
				, 0, 199, 125, 54, 54, 54, 54
       C6 00 00 00 00 00	
       00 00 C7 7D 36 36	
       36 36			
 0FF0  C6 00 00 00 00 00	DB 198, 0, 0, 0, 0, 0, 0, 126, 54, 54, 197, 199
				, 55, 54, 54, 126, 17, 0, 0, 17
       00 7E 36 36 C5 C7	
       37 36 36 7E 11 00	
       00 11			
 1004  F5 F5 F5 F5 DE 12	DB 245, 245, 245, 245, 222, 18, 199, 199, 0, 0,
				 0, 0, 0, 0, 126, 54, 54, 198, 0, 0
       C7 C7 00 00 00 00	
       00 00 7E 36 36 C6	
       00 00			
 1018  00 00 00 00 00 11	DB 0, 0, 0, 0, 0, 17, 198, 198, 198, 198, 17, 0
				, 0, 0, 0, 0, 197, 54, 53, 54
       C6 C6 C6 C6 11 00	
       00 00 00 00 C5 36	
       35 36			
 102C  7E C6 36 36 7D 11	DB 126, 198, 54, 54, 125, 17, 0, 0, 18, 18, 245
				, 245, 245, 245, 245, 222, 17, 0, 0, 0
       00 00 12 12 F5 F5	
Microsoft (R) Macro Assembler Version 5.10                  12/6/19 16:06:45
                                                             Page     1-43


       F5 F5 F5 DE 11 00	
       00 00			
 1040  11 08 8A B9 11 7E	DB 17, 8, 138, 185, 17, 126, 54, 125, 126, 126,
				 198, 0, 0, 0, 0, 0, 0, 0, 0, 0
       36 7D 7E 7E C6 00	
       00 00 00 00 00 00	
       00 00			
 1054  00 00 00 00 00 7E	DB 0, 0, 0, 0, 0, 126, 54, 54, 54, 125, 17, 199
				, 126, 126, 199, 0, 0, 18, 222, 245
       36 36 36 7D 11 C7	
       7E 7E C7 00 00 12	
       DE F5			
 1068  F5 F5 F5 F5 F5 F5	DB 245, 245, 245, 245, 245, 245, 222, 18, 0, 0,
				 17, 27, 30, 24, 17, 0, 199, 55, 54, 54
       DE 12 00 00 11 1B	
       1E 18 11 00 C7 37	
       36 36			
 107C  7D C6 00 00 00 00	DB 125, 198, 0, 0, 0, 0, 0, 0, 0, 0, 0, 0, 0, 0
				, 126, 54, 54, 54, 126, 0
       00 00 00 00 00 00	
       00 00 7E 36 36 36	
       7E 00			
 1090  00 00 11 00 00 00	DB 0, 0, 17, 0, 0, 0, 18, 246, 245, 245, 245, 2
				45, 245, 245, 245, 245, 245, 222, 18, 17
       12 F6 F5 F5 F5 F5	
       F5 F5 F5 F5 F5 DE	
       12 11			
 10A4  00 09 65 1E 17 11	DB 0, 9, 101, 30, 23, 17, 0, 198, 125, 125, 126
				, 126, 125, 125, 198, 0, 17, 126, 125, 126
       00 C6 7D 7D 7E 7E	
       7D 7D C6 00 11 7E	
       7D 7E			
 10B8  00 00 11 7D 36 35	DB 0, 0, 17, 125, 54, 53, 54, 126, 0, 0, 0, 0, 
				0, 0, 17, 18, 222, 245, 245, 245
       36 7E 00 00 00 00	
       00 00 11 12 DE F5	
       F5 F5			
 10CC  F5 F5 F5 F5 F5 F5	DB 245, 245, 245, 245, 245, 245, 245, 245, 246,
				 18, 0, 127, 53, 100, 29, 137, 0, 0, 0, 0
       F5 F5 F6 12 00 7F	
       35 64 1D 89 00 00	
       00 00			
 10E0  C6 36 35 35 7D 11	DB 198, 54, 53, 53, 125, 17, 198, 54, 53, 54, 1
				98, 0, 198, 54, 53, 54, 126, 17, 0, 0
       C6 36 35 36 C6 00	
       C6 36 35 36 7E 11	
       00 00			
 10F4  00 00 00 11 12 F6	DB 0, 0, 0, 17, 18, 246, 245, 245, 245, 245, 24
				5, 245, 245, 245, 245, 245, 245, 245, 245, 222
       F5 F5 F5 F5 F5 F5	
       F5 F5 F5 F5 F5 F5	
       F5 DE			
 1108  12 11 7E 4E 4E 96	DB 18, 17, 126, 78, 78, 150, 0, 0, 0, 0, 199, 5
				4, 53, 53, 125, 17, 198, 54, 53, 54
Microsoft (R) Macro Assembler Version 5.10                  12/6/19 16:06:45
                                                             Page     1-44


       00 00 00 00 C7 36	
       35 35 7D 11 C6 36	
       35 36			
 111C  36 7E 7E 7E 7D 7E	DB 54, 126, 126, 126, 125, 126, 17, 0, 17, 18, 
				18, 18, 18, 18, 222, 245, 245, 245, 245, 245
       11 00 11 12 12 12	
       12 12 DE F5 F5 F5	
       F5 F5			
 1130  F5 F5 F5 F5 F5 F5	DB 245, 245, 245, 245, 245, 245, 245, 245, 245,
				 245, 245, 18, 17, 126, 55, 126, 0, 0, 0, 0
       F5 F5 F5 F5 F5 12	
       11 7E 37 7E 00 00	
       00 00			
 1144  11 7D 36 36 7E 11	DB 17, 125, 54, 54, 126, 17, 198, 54, 54, 54, 5
				4, 54, 126, 0, 0, 0, 0, 17, 18, 245
       C6 36 36 36 36 36	
       7E 00 00 00 00 11	
       12 F5			
 1158  F5 F5 F5 F5 F5 F5	DB 245, 245, 245, 245, 245, 245, 245, 245, 245,
				 245, 245, 245, 245, 245, 245, 245, 245, 245, 2
				45, 245
       F5 F5 F5 F5 F5 F5	
       F5 F5 F5 F5 F5 F5	
       F5 F5			
 116C  F5 F6 12 11 C7 C7	DB 245, 246, 18, 17, 199, 199, 0, 0, 0, 0, 0, 1
				7, 198, 198, 198, 126, 55, 54, 54, 54
       00 00 00 00 00 11	
       C6 C6 C6 7E 37 36	
       36 36			
 1180  36 36 7D 00 00 00	DB 54, 54, 125, 0, 0, 0, 17, 18, 246, 245, 245,
				 245, 245, 245, 245, 245, 245, 245, 245, 245
       11 12 F6 F5 F5 F5	
       F5 F5 F5 F5 F5 F5	
       F5 F5			
 1194  F5 F5 F5 F5 F5 F5	DB 245, 245, 245, 245, 245, 245, 245, 245, 245,
				 245, 245, 245, 245, 18, 17, 0, 0, 0, 18, 236
       F5 F5 F5 F5 F5 F5	
       F5 12 11 00 00 00	
       12 EC			
 11A8  D2 00 00 00 C6 36	DB 210, 0, 0, 0, 198, 54, 54, 54, 54, 54, 54, 5
				4, 126, 0, 0, 0, 18, 245, 245, 245
       36 36 36 36 36 36	
       7E 00 00 00 12 F5	
       F5 F5			
 11BC  F5 F5 F5 F5 F5 F5	DB 245, 245, 245, 245, 245, 245, 245, 245, 245,
				 245, 245, 245, 245, 245, 245, 245, 245, 245, 2
				45, 245
       F5 F5 F5 F5 F5 F5	
       F5 F5 F5 F5 F5 F5	
       F5 F5			
 11D0  F5 F5 F5 F6 12 11	DB 245, 245, 245, 246, 18, 17, 0, 0, 20, 27, 28
				, 236, 0, 0, 198, 54, 54, 54, 54, 54
       00 00 14 1B 1C EC	
       00 00 C6 36 36 36	
Microsoft (R) Macro Assembler Version 5.10                  12/6/19 16:06:45
                                                             Page     1-45


       36 36			
 11E4  36 36 7D 00 00 00	DB 54, 54, 125, 0, 0, 0, 18, 245, 245, 245, 245
				, 245, 245, 245, 245, 245, 245, 245, 245, 245
       12 F5 F5 F5 F5 F5	
       F5 F5 F5 F5 F5 F5	
       F5 F5			
 11F8  F5 F5 F5 F5 F5 F5	DB 245, 245, 245, 245, 245, 245, 245, 245, 245,
				 245, 245, 245, 245, 245, 245, 18, 17, 0, 223, 
				78
       F5 F5 F5 F5 F5 F5	
       F5 F5 F5 12 11 00	
       DF 4E			
 120C  0F 1D 89 00 00 7F	DB 15, 29, 137, 0, 0, 127, 55, 54, 54, 54, 54, 
				54, 125, 0, 0, 0, 18, 245, 245, 245
       37 36 36 36 36 36	
       7D 00 00 00 12 F5	
       F5 F5			
 1220  F5 F5 F5 F5 F5 F5	DB 245, 245, 245, 245, 245, 245, 245, 245, 245,
				 245, 245, 245, 245, 245, 245, 245, 245, 245, 2
				45, 245
       F5 F5 F5 F5 F5 F5	
       F5 F5 F5 F5 F5 F5	
       F5 F5			
 1234  F5 F5 F5 F5 F5 F5	DB 245, 245, 245, 245, 245, 245, 222, 17, 17, 1
				25, 77, 15, 28, 208, 0, 0, 126, 54, 54, 54
       DE 11 11 7D 4D 0F	
       1C D0 00 00 7E 36	
       36 36			
 1248  36 36 7D 00 00 00	DB 54, 54, 125, 0, 0, 0, 18, 245, 245, 245, 245
				, 245, 245, 245, 245, 245, 245, 245, 245, 245
       12 F5 F5 F5 F5 F5	
       F5 F5 F5 F5 F5 F5	
       F5 F5			
 125C  F5 F5 F5 F5 F5 F5	DB 245, 245, 245, 245, 245, 245, 245, 245, 245,
				 245, 245, 245, 245, 245, 245, 245, 245, 18, 17
				, 199
       F5 F5 F5 F5 F5 F5	
       F5 F5 F5 F5 F5 12	
       11 C7			
 1270  36 4D 67 F6 00 00	DB 54, 77, 103, 246, 0, 0, 197, 54, 53, 54, 54,
				 125, 198, 0, 0, 17, 222, 245, 245, 245
       C5 36 35 36 36 7D	
       C6 00 00 11 DE F5	
       F5 F5			
 1284  F5 F5 F5 F5 F5 F5	DB 245, 245, 245, 245, 245, 245, 245, 245, 245,
				 245, 245, 245, 245, 245, 245, 245, 245, 245, 2
				45, 245
       F5 F5 F5 F5 F5 F5	
       F5 F5 F5 F5 F5 F5	
       F5 F5			
 1298  F5 F5 F5 F5 F5 F5	DB 245, 245, 245, 245, 245, 245, 245, 245, 222,
				 17, 198, 55, 54, 198, 0, 0, 198, 54, 54, 54
       F5 F5 DE 11 C6 37	
       36 C6 00 00 C6 36	
Microsoft (R) Macro Assembler Version 5.10                  12/6/19 16:06:45
                                                             Page     1-46


       36 36			
 12AC  7E 11 00 00 12 DE	DB 126, 17, 0, 0, 18, 222, 245, 245, 245, 245, 
				245, 245, 245, 245, 245, 245, 245, 245, 245, 24
				5
       F5 F5 F5 F5 F5 F5	
       F5 F5 F5 F5 F5 F5	
       F5 F5			
 12C0  F5 F5 F5 F5 F5 F5	DB 245, 245, 245, 245, 245, 245, 245, 245, 245,
				 245, 245, 245, 245, 245, 245, 245, 245, 245, 2
				45, 222
       F5 F5 F5 F5 F5 F5	
       F5 F5 F5 F5 F5 F5	
       F5 DE			
 12D4  12 C7 C6 11 00 00	DB 18, 199, 198, 17, 0, 0, 17, 198, 126, 126, 1
				7, 0, 17, 18, 222, 245, 245, 245, 245, 245
       11 C6 7E 7E 11 00	
       11 12 DE F5 F5 F5	
       F5 F5			
 12E8  F5 F5 F5 F5 F5 F5	DB 245, 245, 245, 245, 245, 245, 245, 245, 245,
				 245, 245, 245, 245, 245, 245, 245, 245, 245, 2
				45, 245
       F5 F5 F5 F5 F5 F5	
       F5 F5 F5 F5 F5 F5	
       F5 F5			
 12FC  F5 F5 F5 F5 F5 F5	DB 245, 245, 245, 245, 245, 245, 245, 245, 245,
				 245, 222, 17, 0, 0, 0, 0, 0, 0, 0, 0
       F5 F5 F5 F5 DE 11	
       00 00 00 00 00 00	
       00 00			
 1310  00 00 12 F6 F5 F5	DB 0, 0, 18, 246, 245, 245, 245, 245, 245, 245,
				 245, 245, 245, 245, 245, 245, 245, 245, 245, 2
				45
       F5 F5 F5 F5 F5 F5	
       F5 F5 F5 F5 F5 F5	
       F5 F5			
 1324  F5 F5 F5 F5 F5 F5	DB 245, 245, 245, 245, 245, 245, 245, 245, 245,
				 245, 245, 245, 245, 245, 245, 245, 245, 245, 2
				45, 245
       F5 F5 F5 F5 F5 F5	
       F5 F5 F5 F5 F5 F5	
       F5 F5			
 1338  F5 DE 12 11 00 00	DB 245, 222, 18, 17, 0, 0, 0, 0, 0, 0, 17, 18, 
				222, 245, 245, 245, 245, 245, 245, 245
       00 00 00 00 11 12	
       DE F5 F5 F5 F5 F5	
       F5 F5			
 134C  F5 F5 F5 F5 F5 F5	DB 245, 245, 245, 245, 245, 245, 245, 245, 245,
				 245, 245, 245, 245, 245, 245, 245, 245, 245, 2
				45, 245
       F5 F5 F5 F5 F5 F5	
       F5 F5 F5 F5 F5 F5	
       F5 F5			
 1360  F5 F5 F5 F5 F5 F5	DB 245, 245, 245, 245, 245, 245, 245, 245, 245,
				 245, 245, 245, 222, 17, 0, 0, 0, 0, 0, 0
Microsoft (R) Macro Assembler Version 5.10                  12/6/19 16:06:45
                                                             Page     1-47


       F5 F5 F5 F5 F5 F5	
       DE 11 00 00 00 00	
       00 00			
 1374  11 DE F5 F5 F5 F5	DB 17, 222, 245, 245, 245, 245, 245, 245, 245, 
				245, 245, 245, 245, 245, 245, 245, 245, 245, 24
				5, 245
       F5 F5 F5 F5 F5 F5	
       F5 F5 F5 F5 F5 F5	
       F5 F5			
				
 1388  F5 F5 F5 F5 F5 F5	BITMAP_UP_PLAYER2 DB 245, 245, 245, 245, 245, 2
				45, 245, 245, 245, 245, 245, 245, 245, 245, 245
				, 245, 245, 245, 245, 245
       F5 F5 F5 F5 F5 F5	
       F5 F5 F5 F5 F5 F5	
       F5 F5			
 139C  F5 DE 12 11 00 00	DB 245, 222, 18, 17, 0, 0, 17, 18, 222, 245, 24
				5, 245, 245, 245, 245, 245, 245, 245, 245, 245
       11 12 DE F5 F5 F5	
       F5 F5 F5 F5 F5 F5	
       F5 F5			
 13B0  F5 F5 F5 F5 F5 F5	DB 245, 245, 245, 245, 245, 245, 245, 245, 245,
				 245, 245, 245, 245, 245, 245, 245, 245, 245, 2
				45, 245
       F5 F5 F5 F5 F5 F5	
       F5 F5 F5 F5 F5 F5	
       F5 F5			
 13C4  F5 F5 F5 F5 F5 F5	DB 245, 245, 245, 245, 245, 245, 245, 245, 245,
				 245, 222, 18, 18, 8, 23, 22, 20, 18, 18, 222
       F5 F5 F5 F5 DE 12	
       12 08 17 16 14 12	
       12 DE			
 13D8  F5 F5 F5 F5 F5 F5	DB 245, 245, 245, 245, 245, 245, 245, 245, 245,
				 245, 245, 245, 245, 245, 245, 245, 245, 245, 2
				45, 245
       F5 F5 F5 F5 F5 F5	
       F5 F5 F5 F5 F5 F5	
       F5 F5			
 13EC  F5 F5 F5 F5 F5 F5	DB 245, 245, 245, 245, 245, 245, 245, 245, 245,
				 245, 245, 245, 245, 245, 245, 245, 245, 245, 2
				45, 222
       F5 F5 F5 F5 F5 F5	
       F5 F5 F5 F5 F5 F5	
       F5 DE			
 1400  12 11 17 1D 0F 0F	DB 18, 17, 23, 29, 15, 15, 28, 22, 17, 18, 222,
				 245, 245, 245, 245, 245, 245, 245, 245, 245
       1C 16 11 12 DE F5	
       F5 F5 F5 F5 F5 F5	
       F5 F5			
 1414  F5 F5 F5 F5 F5 F5	DB 245, 245, 245, 245, 245, 245, 245, 245, 245,
				 245, 245, 245, 245, 245, 246, 222, 18, 18, 18,
				 18
       F5 F5 F5 F5 F5 F5	
       F5 F5 F6 DE 12 12	
Microsoft (R) Macro Assembler Version 5.10                  12/6/19 16:06:45
                                                             Page     1-48


       12 12			
 1428  12 12 12 12 12 12	DB 18, 18, 18, 18, 18, 18, 222, 246, 245, 18, 1
				7, 18, 25, 15, 15, 15, 30, 24, 17, 17
       DE F6 F5 12 11 12	
       19 0F 0F 0F 1E 18	
       11 11			
 143C  12 F5 F6 DE 12 12	DB 18, 245, 246, 222, 18, 18, 18, 18, 18, 18, 1
				8, 18, 18, 18, 222, 246, 245, 245, 245, 245
       12 12 12 12 12 12	
       12 12 DE F6 F5 F5	
       F5 F5			
 1450  F5 F5 F5 F5 DE 12	DB 245, 245, 245, 245, 222, 18, 17, 0, 0, 17, 1
				7, 17, 17, 17, 0, 17, 17, 18, 246, 222
       11 00 00 11 11 11	
       11 11 00 11 11 12	
       F6 DE			
 1464  11 11 18 1E 0F 0F	DB 17, 17, 24, 30, 15, 15, 30, 24, 17, 17, 222,
				 246, 18, 17, 17, 0, 17, 17, 17, 17
       1E 18 11 11 DE F6	
       12 11 11 00 11 11	
       11 11			
 1478  11 11 00 11 12 DE	DB 17, 17, 0, 17, 18, 222, 245, 245, 245, 245, 
				245, 245, 246, 18, 223, 126, 126, 125, 125, 126
       F5 F5 F5 F5 F5 F5	
       F6 12 DF 7E 7E 7D	
       7D 7E			
 148C  7E 7D 7D 7E C6 00	DB 126, 125, 125, 126, 198, 0, 0, 17, 18, 18, 1
				7, 17, 24, 30, 15, 15, 29, 23, 17, 17
       00 11 12 12 11 11	
       18 1E 0F 0F 1D 17	
       11 11			
 14A0  12 12 11 11 C7 7E	DB 18, 18, 17, 17, 199, 126, 126, 125, 125, 126
				, 126, 125, 125, 126, 197, 18, 18, 246, 245, 24
				5
       7E 7D 7D 7E 7E 7D	
       7D 7E C5 12 12 F6	
       F5 F5			
 14B4  F5 F6 12 11 C6 7D	DB 245, 246, 18, 17, 198, 125, 54, 54, 54, 54, 
				54, 54, 54, 54, 125, 198, 17, 17, 17, 0
       36 36 36 36 36 36	
       36 36 7D C6 11 11	
       11 00			
 14C8  00 00 17 1E 0F 0F	DB 0, 0, 23, 30, 15, 15, 29, 22, 0, 0, 17, 17, 
				0, 0, 198, 125, 54, 54, 54, 54
       1D 16 00 00 11 11	
       00 00 C6 7D 36 36	
       36 36			
 14DC  36 36 36 36 7D C6	DB 54, 54, 54, 54, 125, 198, 17, 18, 246, 245, 
				245, 246, 18, 17, 17, 198, 126, 126, 126, 126
       11 12 F6 F5 F5 F6	
       12 11 11 C6 7E 7E	
       7E 7E			
 14F0  7E 7E 7E 7E 7E 7D	DB 126, 126, 126, 126, 126, 125, 3, 3, 126, 199
				, 0, 0, 164, 29, 15, 15, 29, 162, 0, 199
Microsoft (R) Macro Assembler Version 5.10                  12/6/19 16:06:45
                                                             Page     1-49


       03 03 7E C7 00 00	
       A4 1D 0F 0F 1D A2	
       00 C7			
 1504  7D 7D C6 00 00 C6	DB 125, 125, 198, 0, 0, 198, 126, 126, 126, 126
				, 126, 126, 126, 126, 198, 17, 17, 18, 246, 245
       7E 7E 7E 7E 7E 7E	
       7E 7E C6 11 11 12	
       F6 F5			
 1518  F6 DE 12 11 00 00	DB 246, 222, 18, 17, 0, 0, 0, 0, 0, 0, 0, 0, 0,
				 17, 126, 54, 54, 53, 54, 1
       00 00 00 00 00 00	
       00 11 7E 36 36 35	
       36 01			
 152C  B0 00 A2 1D 0F 0F	DB 176, 0, 162, 29, 15, 15, 29, 162, 17, 127, 5
				4, 54, 126, 0, 0, 0, 0, 0, 0, 0
       1D A2 11 7F 36 36	
       7E 00 00 00 00 00	
       00 00			
 1540  00 00 00 00 00 00	DB 0, 0, 0, 0, 0, 0, 17, 18, 222, 246, 18, 18, 
				17, 0, 17, 198, 126, 126, 127, 127
       11 12 DE F6 12 12	
       11 00 11 C6 7E 7E	
       7F 7F			
 1554  7F 7F 7F 7E 7E 7E	DB 127, 127, 127, 126, 126, 126, 125, 125, 126,
				 199, 0, 0, 163, 29, 15, 15, 29, 163, 0, 176
       7D 7D 7E C7 00 00	
       A3 1D 0F 0F 1D A3	
       00 B0			
 1568  7E 7E C7 00 00 C6	DB 126, 126, 199, 0, 0, 198, 126, 126, 127, 127
				, 127, 127, 126, 126, 198, 17, 0, 17, 18, 18
       7E 7E 7F 7F 7F 7F	
       7E 7E C6 11 00 11	
       12 12			
 157C  11 00 00 00 C7 7E	DB 17, 0, 0, 0, 199, 126, 54, 54, 53, 78, 78, 5
				3, 54, 54, 126, 198, 17, 0, 0, 0
       36 36 35 4E 4E 35	
       36 36 7E C6 11 00	
       00 00			
 1590  00 00 17 1D 0F 0F	DB 0, 0, 23, 29, 15, 15, 29, 23, 17, 0, 0, 0, 0
				, 17, 127, 125, 54, 54, 53, 78
       1D 17 11 00 00 00	
       00 11 7F 7D 36 36	
       35 4E			
 15A4  4E 35 36 37 7E C7	DB 78, 53, 54, 55, 126, 199, 0, 0, 0, 17, 24, 2
				2, 209, 0, 0, 199, 125, 78, 101, 100
       00 00 00 11 18 16	
       D1 00 00 C7 7D 4E	
       65 64			
 15B8  64 65 4F 7D 7E 7E	DB 100, 101, 79, 125, 126, 126, 198, 17, 0, 0, 
				0, 0, 23, 30, 15, 15, 29, 23, 17, 0
       C6 11 00 00 00 00	
       17 1E 0F 0F 1D 17	
       11 00			
 15CC  00 00 C6 7E 7E 7D	DB 0, 0, 198, 126, 126, 125, 54, 78, 101, 100, 
Microsoft (R) Macro Assembler Version 5.10                  12/6/19 16:06:45
                                                             Page     1-50


				30, 101, 79, 126, 176, 0, 17, 210, 22, 23
       36 4E 65 64 1E 65	
       4F 7E B0 00 11 D2	
       16 17			
 15E0  1E 1D 17 11 00 00	DB 30, 29, 23, 17, 0, 0, 223, 24, 29, 15, 15, 2
				8, 163, 18, 199, 126, 125, 126, 17, 0
       DF 18 1D 0F 0F 1C	
       A3 12 C7 7E 7D 7E	
       11 00			
 15F4  00 11 18 1E 0F 0F	DB 0, 17, 24, 30, 15, 15, 30, 23, 17, 0, 0, 17,
				 126, 55, 126, 198, 19, 23, 28, 15
       1E 17 11 00 00 11	
       7E 37 7E C6 13 17	
       1C 0F			
 1608  0F 1D 17 12 00 00	DB 15, 29, 23, 18, 0, 0, 18, 24, 30, 30, 30, 15
				, 24, 17, 0, 17, 223, 8, 164, 65
       12 18 1E 1E 1E 0F	
       18 11 00 11 DF 08	
       A4 41			
 161C  41 8B BA 00 00 C6	DB 65, 139, 186, 0, 0, 198, 126, 126, 17, 0, 0,
				 17, 24, 30, 15, 15, 30, 24, 17, 0
       7E 7E 11 00 00 11	
       18 1E 0F 0F 1E 18	
       11 00			
 1630  00 11 7E 7E C6 11	DB 0, 17, 126, 126, 198, 17, 17, 186, 6, 65, 65
				, 164, 8, 198, 17, 0, 235, 7, 15, 30
       11 BA 06 41 41 A4	
       08 C6 11 00 EB 07	
       0F 1E			
 1644  1D 1C A3 11 B0 7F	DB 29, 28, 163, 17, 176, 127, 125, 126, 200, 17
				, 18, 17, 0, 0, 0, 0, 17, 17, 0, 0
       7D 7E C8 11 12 11	
       00 00 00 00 11 11	
       00 00			
 1658  00 11 17 66 1E 1E	DB 0, 17, 23, 102, 30, 30, 103, 173, 17, 0, 0, 
				0, 0, 17, 0, 0, 0, 17, 17, 184
       67 AD 11 00 00 00	
       00 11 00 00 00 11	
       11 B8			
 166C  B8 C8 7D 37 7E C7	DB 184, 200, 125, 55, 126, 199, 18, 23, 28, 29,
				 20, 210, 17, 0, 198, 55, 54, 54, 55, 55
       12 17 1C 1D 14 D2	
       11 00 C6 37 36 36	
       37 37			
 1680  37 37 C6 00 00 00	DB 55, 55, 198, 0, 0, 0, 0, 0, 0, 0, 0, 0, 126,
				 54, 53, 53, 54, 126, 0, 0
       00 00 00 00 00 00	
       7E 36 35 35 36 7E	
       00 00			
 1694  00 00 00 00 00 00	DB 0, 0, 0, 0, 0, 0, 199, 126, 126, 126, 126, 5
				5, 54, 54, 55, 198, 0, 17, 210, 20
       C7 7E 7E 7E 7E 37	
       36 36 37 C6 00 11	
       D2 14			
Microsoft (R) Macro Assembler Version 5.10                  12/6/19 16:06:45
                                                             Page     1-51


 16A8  00 00 00 00 C6 37	DB 0, 0, 0, 0, 198, 55, 54, 54, 54, 54, 54, 54,
				 126, 17, 0, 0, 0, 0, 0, 0
       36 36 36 36 36 36	
       7E 11 00 00 00 00	
       00 00			
 16BC  00 00 7E 36 35 35	DB 0, 0, 126, 54, 53, 53, 54, 126, 0, 0, 0, 0, 
				0, 0, 0, 0, 199, 126, 54, 54
       36 7E 00 00 00 00	
       00 00 00 00 C7 7E	
       36 36			
 16D0  36 36 36 36 7D C7	DB 54, 54, 54, 54, 125, 199, 0, 0, 0, 0, 0, 0, 
				0, 0, 198, 55, 54, 53, 54, 54
       00 00 00 00 00 00	
       00 00 C6 37 36 35	
       36 36			
 16E4  7E C6 11 00 00 00	DB 126, 198, 17, 0, 0, 0, 0, 0, 0, 0, 0, 17, 24
				, 101, 15, 30, 102, 172, 17, 0
       00 00 00 00 00 11	
       18 65 0F 1E 66 AC	
       11 00			
 16F8  00 00 00 00 00 00	DB 0, 0, 0, 0, 0, 0, 0, 17, 198, 125, 54, 53, 5
				3, 54, 125, 198, 0, 0, 0, 0
       00 11 C6 7D 36 35	
       35 36 7D C6 00 00	
       00 00			
 170C  00 00 00 00 C6 37	DB 0, 0, 0, 0, 198, 55, 54, 53, 54, 125, 17, 0,
				 0, 0, 0, 0, 0, 0, 0, 0
       36 35 36 7D 11 00	
       00 00 00 00 00 00	
       00 00			
 1720  00 11 17 5A 1E 1E	DB 0, 17, 23, 90, 30, 30, 28, 163, 17, 0, 0, 0,
				 0, 0, 0, 0, 0, 0, 0, 127
       1C A3 11 00 00 00	
       00 00 00 00 00 00	
       00 7F			
 1734  36 35 35 36 7D C6	DB 54, 53, 53, 54, 125, 198, 0, 0, 0, 0, 0, 0, 
				0, 0, 198, 55, 54, 53, 54, 125
       00 00 00 00 00 00	
       00 00 C6 37 36 35	
       36 7D			
 1748  11 00 00 00 00 00	DB 17, 0, 0, 0, 0, 0, 0, 0, 0, 0, 0, 0, 211, 16
				4, 24, 23, 138, 209, 0, 0
       00 00 00 00 00 00	
       D3 A4 18 17 8A D1	
       00 00			
 175C  00 00 00 00 00 00	DB 0, 0, 0, 0, 0, 0, 0, 0, 0, 198, 55, 54, 53, 
				54, 125, 198, 0, 0, 0, 0
       00 00 00 C6 37 36	
       35 36 7D C6 00 00	
       00 00			
 1770  00 00 00 00 C6 37	DB 0, 0, 0, 0, 198, 55, 54, 54, 54, 126, 0, 0, 
				0, 0, 0, 17, 198, 198, 198, 0
       36 36 36 7E 00 00	
       00 00 00 11 C6 C6	
Microsoft (R) Macro Assembler Version 5.10                  12/6/19 16:06:45
                                                             Page     1-52


       C6 00			
 1784  00 00 11 C6 7E C6	DB 0, 0, 17, 198, 126, 198, 17, 0, 0, 0, 17, 19
				8, 198, 199, 0, 0, 0, 0, 0, 17
       11 00 00 00 11 C6	
       C6 C7 00 00 00 00	
       00 11			
 1798  7E 36 36 36 7D C6	DB 126, 54, 54, 54, 125, 198, 0, 0, 0, 0, 0, 0,
				 0, 0, 198, 55, 54, 54, 126, 17
       00 00 00 00 00 00	
       00 00 C6 37 36 36	
       7E 11			
 17AC  00 00 00 00 11 7E	DB 0, 0, 0, 0, 17, 126, 54, 54, 125, 198, 0, 0,
				 199, 1, 55, 55, 127, 17, 0, 17
       36 36 7D C6 00 00	
       C7 01 37 37 7F 11	
       00 11			
 17C0  7E 36 36 7D 7E 11	DB 126, 54, 54, 125, 126, 17, 0, 0, 0, 0, 17, 1
				26, 54, 54, 55, 198, 0, 0, 0, 0
       00 00 00 00 11 7E	
       36 36 37 C6 00 00	
       00 00			
 17D4  14 D1 00 00 C6 7D	DB 20, 209, 0, 0, 198, 125, 54, 126, 17, 0, 0, 
				0, 17, 198, 126, 54, 54, 54, 54, 125
       36 7E 11 00 00 00	
       11 C6 7E 36 36 36	
       36 7D			
 17E8  7F C7 C6 7E 7D 7D	DB 127, 199, 198, 126, 125, 125, 126, 198, 198,
				 125, 54, 53, 53, 54, 54, 126, 198, 0, 0, 0
       7E C6 C6 7D 36 35	
       35 36 36 7E C6 00	
       00 00			
 17FC  00 11 7D 36 37 C6	DB 0, 17, 125, 54, 55, 198, 0, 17, 209, 20, 30,
				 27, 137, 0, 199, 126, 55, 125, 17, 0
       00 11 D1 14 1E 1B	
       89 00 C7 7E 37 7D	
       11 00			
 1810  00 00 7E 36 36 36	DB 0, 0, 126, 54, 54, 54, 54, 54, 54, 54, 54, 1
				25, 199, 0, 0, 0, 17, 126, 55, 54
       36 36 36 36 36 7D	
       C7 00 00 00 11 7E	
       37 36			
 1824  36 36 36 36 36 36	DB 54, 54, 54, 54, 54, 54, 125, 198, 0, 0, 0, 1
				7, 125, 55, 126, 127, 18, 162, 27, 30
       7D C6 00 00 00 11	
       7D 37 7E 7F 12 A2	
       1B 1E			
 1838  1E 1E 18 11 B0 7E	DB 30, 30, 24, 17, 176, 126, 55, 125, 199, 0, 0
				, 0, 126, 54, 54, 54, 54, 54, 54, 53
       37 7D C7 00 00 00	
       7E 36 36 36 36 36	
       36 35			
 184C  35 36 7E C7 00 11	DB 53, 54, 126, 199, 0, 17, 198, 125, 54, 54, 1
				26, 126, 54, 54, 53, 54, 54, 126, 0, 0
       C6 7D 36 36 7E 7E	
Microsoft (R) Macro Assembler Version 5.10                  12/6/19 16:06:45
                                                             Page     1-53


       36 36 35 36 36 7E	
       00 00			
 1860  00 C6 7D 37 01 7F	DB 0, 198, 125, 55, 1, 127, 20, 25, 15, 30, 30,
				 29, 23, 17, 176, 126, 55, 125, 17, 0
       14 19 0F 1E 1E 1D	
       17 11 B0 7E 37 7D	
       11 00			
 1874  00 00 7E 36 36 36	DB 0, 0, 126, 54, 54, 54, 54, 54, 54, 54, 54, 5
				4, 54, 54, 125, 55, 54, 54, 54, 126
       36 36 36 36 36 36	
       36 36 7D 37 36 36	
       36 7E			
 1888  00 00 7E 36 36 36	DB 0, 0, 126, 54, 54, 54, 54, 126, 0, 0, 0, 199
				, 125, 54, 1, 198, 19, 24, 30, 30
       36 7E 00 00 00 C7	
       7D 36 01 C6 13 18	
       1E 1E			
 189C  1B 18 D3 11 C7 7E	DB 27, 24, 211, 17, 199, 126, 55, 126, 17, 0, 1
				7, 126, 125, 54, 54, 54, 54, 55, 127, 199
       37 7E 11 00 11 7E	
       7D 36 36 36 36 37	
       7F C7			
 18B0  C6 7E 36 36 36 36	DB 198, 126, 54, 54, 54, 54, 54, 54, 54, 125, 1
				98, 0, 199, 126, 54, 54, 54, 55, 197, 0
       36 36 36 7D C6 00	
       C7 7E 36 36 36 37	
       C5 00			
 18C4  00 11 7D 36 37 C6	DB 0, 17, 125, 54, 55, 198, 17, 137, 24, 27, 19
				, 18, 0, 17, 127, 125, 55, 126, 0, 0
       11 89 18 1B 13 12	
       00 11 7F 7D 37 7E	
       00 00			
 18D8  7E 36 36 36 36 36	DB 126, 54, 54, 54, 54, 54, 54, 126, 18, 0, 0, 
				199, 126, 54, 54, 54, 54, 54, 54, 54
       36 7E 12 00 00 C7	
       7E 36 36 36 36 36	
       36 36			
 18EC  36 7E 11 00 C6 37	DB 54, 126, 17, 0, 198, 55, 54, 54, 54, 198, 0,
				 17, 125, 54, 55, 127, 0, 0, 18, 19
       36 36 36 C6 00 11	
       7D 36 37 7F 00 00	
       12 13			
 1900  00 00 00 11 7E 37	DB 0, 0, 0, 17, 126, 55, 55, 126, 0, 198, 54, 5
				4, 54, 54, 55, 125, 150, 161, 139, 137
       37 7E 00 C6 36 36	
       36 36 37 7D 96 A1	
       8B 89			
 1914  12 B0 C7 7E 37 36	DB 18, 176, 199, 126, 55, 54, 54, 54, 54, 54, 5
				4, 54, 199, 0, 0, 126, 54, 53, 54, 126
       36 36 36 36 36 36	
       C7 00 00 7E 36 35	
       36 7E			
 1928  00 00 7E 36 36 7F	DB 0, 0, 126, 54, 54, 127, 0, 0, 0, 0, 0, 0, 0,
				 17, 126, 55, 55, 126, 0, 198
Microsoft (R) Macro Assembler Version 5.10                  12/6/19 16:06:45
                                                             Page     1-54


       00 00 00 00 00 00	
       00 11 7E 37 37 7E	
       00 C6			
 193C  36 35 36 36 7E C6	DB 54, 53, 54, 54, 126, 198, 211, 164, 90, 102,
				 79, 126, 176, 0, 198, 126, 54, 54, 54, 54
       D3 A4 5A 66 4F 7E	
       B0 00 C6 7E 36 36	
       36 36			
 1950  35 36 C6 00 00 7E	DB 53, 54, 198, 0, 0, 126, 54, 53, 54, 126, 0, 
				0, 126, 54, 54, 126, 0, 0, 0, 0
       36 35 36 7E 00 00	
       7E 36 36 7E 00 00	
       00 00			
 1964  00 00 00 11 7E 7D	DB 0, 0, 0, 17, 126, 125, 125, 126, 0, 198, 54,
				 53, 53, 55, 199, 0, 185, 23, 102, 76
       7D 7E 00 C6 36 35	
       35 37 C7 00 B9 17	
       66 4C			
 1978  0B 36 C7 00 00 C6	DB 11, 54, 199, 0, 0, 198, 54, 54, 54, 53, 53, 
				54, 198, 0, 0, 126, 54, 53, 54, 126
       36 36 36 35 35 36	
       C6 00 00 7E 36 35	
       36 7E			
 198C  00 00 7E 36 36 7E	DB 0, 0, 126, 54, 54, 126, 17, 0, 0, 0, 0, 0, 0
				, 17, 126, 55, 54, 126, 17, 199
       11 00 00 00 00 00	
       00 11 7E 37 36 7E	
       11 C7			
 19A0  37 36 35 36 7E 11	DB 55, 54, 53, 54, 126, 17, 0, 198, 54, 53, 53,
				 54, 199, 0, 17, 126, 54, 54, 54, 54
       00 C6 36 35 35 36	
       C7 00 11 7E 36 36	
       36 36			
 19B4  36 7D C7 00 11 7E	DB 54, 125, 199, 0, 17, 126, 54, 53, 54, 126, 0
				, 0, 125, 54, 54, 126, 0, 0, 0, 0
       36 35 36 7E 00 00	
       7D 36 36 7E 00 00	
       00 00			
 19C8  00 00 00 11 7E 36	DB 0, 0, 0, 17, 126, 54, 54, 125, 199, 0, 199, 
				126, 54, 54, 54, 126, 198, 199, 199, 199
       36 7D C7 00 C7 7E	
       36 36 36 7E C6 C7	
       C7 C7			
 19DC  C6 C6 C6 7E 7E 36	DB 198, 198, 198, 126, 126, 54, 54, 54, 54, 125
				, 126, 199, 199, 126, 125, 54, 54, 54, 126, 17
       36 36 36 7D 7E C7	
       C7 7E 7D 36 36 36	
       7E 11			
 19F0  00 C7 37 36 36 7E	DB 0, 199, 55, 54, 54, 126, 0, 0, 0, 0, 0, 0, 0
				, 0, 198, 125, 55, 126, 17, 0
       00 00 00 00 00 00	
       00 00 C6 7D 37 7E	
       11 00			
 1A04  00 11 7D 36 35 36	DB 0, 17, 125, 54, 53, 54, 55, 198, 0, 0, 0, 0,
Microsoft (R) Macro Assembler Version 5.10                  12/6/19 16:06:45
                                                             Page     1-55


				 126, 54, 54, 54, 54, 54, 54, 126
       37 C6 00 00 00 00	
       7E 36 36 36 36 36	
       36 7E			
 1A18  00 00 C5 36 36 36	DB 0, 0, 197, 54, 54, 54, 54, 126, 17, 0, 0, 19
				9, 125, 54, 55, 127, 0, 0, 0, 0
       36 7E 11 00 00 C7	
       7D 36 37 7F 00 00	
       00 00			
 1A2C  18 A2 D0 00 00 C7	DB 24, 162, 208, 0, 0, 199, 127, 198, 0, 0, 0, 
				0, 126, 54, 53, 54, 54, 125, 198, 17
       7F C6 00 00 00 00	
       7E 36 35 36 36 7D	
       C6 11			
 1A40  11 C6 7D 36 36 36	DB 17, 198, 125, 54, 54, 54, 54, 54, 54, 126, 1
				98, 198, 125, 54, 53, 54, 54, 126, 0, 0
       36 36 36 7E C6 C6	
       7D 36 35 36 36 7E	
       00 00			
 1A54  00 00 C6 7F C7 11	DB 0, 0, 198, 127, 199, 17, 17, 210, 162, 23, 3
				0, 29, 23, 17, 0, 0, 0, 0, 0, 0
       11 D2 A2 17 1E 1D	
       17 11 00 00 00 00	
       00 00			
 1A68  00 00 7E 36 36 36	DB 0, 0, 126, 54, 54, 54, 54, 54, 54, 54, 55, 5
				4, 54, 54, 54, 54, 54, 54, 54, 54
       36 36 36 36 37 36	
       36 36 36 36 36 36	
       36 36			
 1A7C  36 36 36 36 36 36	DB 54, 54, 54, 54, 54, 54, 55, 198, 0, 0, 0, 0,
				 0, 0, 0, 0, 232, 24, 29, 30
       37 C6 00 00 00 00	
       00 00 00 00 E8 18	
       1D 1E			
 1A90  1E 0F 18 12 00 11	DB 30, 15, 24, 18, 0, 17, 199, 17, 0, 0, 0, 0, 
				17, 126, 55, 54, 54, 53, 53, 54
       C7 11 00 00 00 00	
       11 7E 37 36 36 35	
       35 36			
 1AA4  36 36 36 36 36 36	DB 54, 54, 54, 54, 54, 54, 54, 54, 54, 54, 54, 
				54, 53, 54, 54, 55, 126, 17, 0, 0
       36 36 36 36 36 36	
       35 36 36 37 7E 11	
       00 00			
 1AB8  00 00 C7 C7 B0 11	DB 0, 0, 199, 199, 176, 17, 20, 7, 15, 30, 30, 
				28, 163, 17, 199, 126, 54, 54, 126, 0
       14 07 0F 1E 1E 1C	
       A3 11 C7 7E 36 36	
       7E 00			
 1ACC  00 00 00 00 C6 7D	DB 0, 0, 0, 0, 198, 125, 54, 54, 54, 54, 54, 54
				, 54, 54, 54, 54, 54, 54, 54, 54
       36 36 36 36 36 36	
       36 36 36 36 36 36	
       36 36			
Microsoft (R) Macro Assembler Version 5.10                  12/6/19 16:06:45
                                                             Page     1-56


 1AE0  36 36 36 36 7D C6	DB 54, 54, 54, 54, 125, 198, 0, 0, 0, 0, 17, 12
				6, 54, 54, 126, 198, 19, 23, 28, 30
       00 00 00 00 11 7E	
       36 36 7E C6 13 17	
       1C 1E			
 1AF4  08 D3 B9 11 7E 36	DB 8, 211, 185, 17, 126, 54, 53, 53, 54, 126, 0
				, 0, 0, 0, 0, 0, 199, 198, 126, 125
       35 35 36 7E 00 00	
       00 00 00 00 C7 C6	
       7E 7D			
 1B08  36 35 36 36 36 36	DB 54, 53, 54, 54, 54, 54, 54, 53, 54, 54, 126,
				 198, 198, 198, 17, 0, 0, 0, 0, 198
       36 35 36 36 7E C6	
       C6 C6 11 00 00 00	
       00 C6			
 1B1C  7D 35 35 35 36 7F	DB 125, 53, 53, 53, 54, 127, 0, 17, 235, 8, 0, 
				0, 0, 0, 198, 125, 54, 54, 54, 126
       00 11 EB 08 00 00	
       00 00 C6 7D 36 36	
       36 7E			
 1B30  C7 11 11 11 00 00	DB 199, 17, 17, 17, 0, 0, 0, 0, 0, 198, 125, 54
				, 54, 54, 54, 54, 54, 54, 54, 126
       00 00 00 C6 7D 36	
       36 36 36 36 36 36	
       36 7E			
 1B44  00 00 00 00 00 00	DB 0, 0, 0, 0, 0, 0, 17, 17, 17, 127, 55, 54, 5
				4, 54, 126, 199, 0, 0, 0, 0
       11 11 11 7F 37 36	
       36 36 7E C7 00 00	
       00 00			
 1B58  00 00 00 00 00 11	DB 0, 0, 0, 0, 0, 17, 199, 198, 198, 126, 125, 
				55, 54, 125, 126, 17, 0, 0, 0, 0
       C7 C6 C6 7E 7D 37	
       36 7D 7E 11 00 00	
       00 00			
 1B6C  00 C7 C7 C7 C7 C7	DB 0, 199, 199, 199, 199, 199, 199, 198, 199, 1
				7, 0, 0, 0, 0, 17, 126, 125, 54, 125, 126
       C7 C6 C7 11 00 00	
       00 00 11 7E 7D 36	
       7D 7E			
 1B80  C6 C7 C6 C6 11 00	DB 198, 199, 198, 198, 17, 0, 0, 0, 0, 0, 0, 0,
				 0, 0, 0, 0, 0, 0, 0, 126
       00 00 00 00 00 00	
       00 00 00 00 00 00	
       00 7E			
 1B94  36 36 35 36 7D C6	DB 54, 54, 53, 54, 125, 198, 0, 0, 17, 199, 17,
				 17, 17, 0, 0, 17, 17, 199, 199, 17
       00 00 11 C7 11 11	
       11 00 00 11 11 C7	
       C7 11			
 1BA8  00 00 00 00 C6 37	DB 0, 0, 0, 0, 198, 55, 54, 53, 54, 125, 199, 0
				, 0, 0, 0, 0, 0, 0, 0, 0
       36 35 36 7D C7 00	
       00 00 00 00 00 00	
Microsoft (R) Macro Assembler Version 5.10                  12/6/19 16:06:45
                                                             Page     1-57


       00 00			
 1BBC  00 00 00 00 11 C6	DB 0, 0, 0, 0, 17, 198, 126, 126, 126, 125, 54,
				 54, 53, 54, 125, 198, 0, 199, 126, 55
       7E 7E 7E 7D 36 36	
       35 36 7D C6 00 C7	
       7E 37			
 1BD0  7D 7D 7E 7E 7E 7D	DB 125, 125, 126, 126, 126, 125, 125, 125, 125,
				 126, 17, 0, 0, 0, 198, 55, 54, 53, 54, 54
       7D 7D 7D 7E 11 00	
       00 00 C6 37 36 35	
       36 36			
 1BE4  7E 7E 7E 7E C5 11	DB 126, 126, 126, 126, 197, 17, 0, 0, 0, 0, 0, 
				0, 0, 0, 198, 54, 54, 54, 54, 54
       00 00 00 00 00 00	
       00 00 C6 36 36 36	
       36 36			
 1BF8  36 36 36 36 7E 11	DB 54, 54, 54, 54, 126, 17, 0, 199, 125, 54, 54
				, 54, 54, 54, 54, 54, 54, 54, 54, 126
       00 C7 7D 36 36 36	
       36 36 36 36 36 36	
       36 7E			
 1C0C  C7 00 00 00 C7 7D	DB 199, 0, 0, 0, 199, 125, 54, 54, 54, 54, 54, 
				54, 54, 54, 55, 198, 0, 0, 0, 0
       36 36 36 36 36 36	
       36 36 37 C6 00 00	
       00 00			
 1C20  00 00 00 00 7E 36	DB 0, 0, 0, 0, 126, 54, 54, 53, 54, 54, 54, 54,
				 54, 54, 126, 199, 0, 0, 198, 126
       36 35 36 36 36 36	
       36 36 7E C7 00 00	
       C6 7E			
 1C34  7E 7E 7E 7E 7E 7E	DB 126, 126, 126, 126, 126, 126, 126, 126, 126,
				 198, 17, 0, 0, 0, 199, 125, 54, 54, 54, 54
       7E 7E 7E C6 11 00	
       00 00 C7 7D 36 36	
       36 36			
 1C48  36 36 35 36 36 C6	DB 54, 54, 53, 54, 54, 198, 0, 0, 0, 0, 17, 17,
				 0, 0, 17, 126, 54, 54, 54, 54
       00 00 00 00 11 11	
       00 00 11 7E 36 36	
       36 36			
 1C5C  36 36 36 36 36 7D	DB 54, 54, 54, 54, 54, 125, 198, 0, 0, 0, 0, 0,
				 0, 0, 0, 0, 0, 0, 0, 0
       C6 00 00 00 00 00	
       00 00 00 00 00 00	
       00 00			
 1C70  00 00 11 7E 7D 36	DB 0, 0, 17, 126, 125, 54, 54, 54, 54, 54, 54, 
				54, 54, 55, 126, 17, 0, 0, 17, 17
       36 36 36 36 36 36	
       36 37 7E 11 00 00	
       11 11			
 1C84  12 12 11 00 00 00	DB 18, 18, 17, 0, 0, 0, 198, 125, 54, 54, 54, 5
				4, 54, 53, 53, 54, 54, 126, 0, 0
       C6 7D 36 36 36 36	
Microsoft (R) Macro Assembler Version 5.10                  12/6/19 16:06:45
                                                             Page     1-58


       36 35 35 36 36 7E	
       00 00			
 1C98  00 00 00 00 00 00	DB 0, 0, 0, 0, 0, 0, 0, 0, 0, 0, 0, 17, 126, 54
				, 54, 54, 54, 54, 54, 53
       00 00 00 00 00 11	
       7E 36 36 36 36 36	
       36 35			
 1CAC  35 36 7D C6 00 00	DB 53, 54, 125, 198, 0, 0, 0, 17, 18, 18, 245, 
				246, 18, 17, 0, 0, 0, 198, 125, 54
       00 11 12 12 F5 F6	
       12 11 00 00 00 C6	
       7D 36			
 1CC0  36 37 36 36 36 36	DB 54, 55, 54, 54, 54, 54, 125, 126, 17, 0, 17,
				 17, 17, 17, 17, 17, 17, 17, 17, 17
       7D 7E 11 00 11 11	
       11 11 11 11 11 11	
       11 11			
 1CD4  00 11 7E 36 36 36	DB 0, 17, 126, 54, 54, 54, 54, 55, 54, 54, 54, 
				125, 198, 0, 0, 0, 17, 18, 246, 245
       36 37 36 36 36 7D	
       C6 00 00 00 11 12	
       F6 F5			
 1CE8  F5 F5 F6 DE 12 11	DB 245, 245, 246, 222, 18, 17, 0, 0, 17, 199, 1
				99, 17, 17, 199, 198, 198, 198, 17, 0, 17
       00 00 11 C7 C7 11	
       11 C7 C6 C6 C6 11	
       00 11			
 1CFC  12 12 DE DE 12 12	DB 18, 18, 222, 222, 18, 18, 222, 222, 18, 18, 
				17, 0, 17, 199, 198, 198, 199, 17, 17, 199
       DE DE 12 12 11 00	
       11 C7 C6 C6 C7 11	
       11 C7			
 1D10  C7 11 00 00 11 12	DB 199, 17, 0, 0, 17, 18, 222, 246, 245, 245, 2
				45, 245, 245, 245, 18, 17, 0, 0, 0, 0
       DE F6 F5 F5 F5 F5	
       F5 F5 12 11 00 00	
       00 00			
 1D24  00 00 00 00 00 00	DB 0, 0, 0, 0, 0, 0, 0, 0, 0, 17, 18, 246, 245,
				 245, 245, 245, 245, 245, 246, 18
       00 00 00 11 12 F6	
       F5 F5 F5 F5 F5 F5	
       F6 12			
 1D38  11 00 00 00 00 00	DB 17, 0, 0, 0, 0, 0, 0, 0, 0, 0, 0, 0, 0, 0, 1
				7, 18, 245, 245, 245, 245
       00 00 00 00 00 00	
       00 00 11 12 F5 F5	
       F5 F5			
				
 1D4C  F5 F5 F5 F5 F5 F5	BITMAP_DOWNLEFT_PLAYER2 DB 245, 245, 245, 245, 
				245, 245, 245, 245, 245, 245, 245, 245, 245, 24
				5, 245, 245, 245, 245, 245, 245
       F5 F5 F5 F5 F5 F5	
       F5 F5 F5 F5 F5 F5	
       F5 F5			
Microsoft (R) Macro Assembler Version 5.10                  12/6/19 16:06:45
                                                             Page     1-59


 1D60  F5 F6 12 00 00 00	DB 245, 246, 18, 0, 0, 0, 0, 0, 0, 0, 17, 18, 2
				45, 245, 245, 245, 245, 245, 245, 245
       00 00 00 00 11 12	
       F5 F5 F5 F5 F5 F5	
       F5 F5			
 1D74  F5 F5 F5 F5 F5 F5	DB 245, 245, 245, 245, 245, 245, 245, 245, 245,
				 245, 245, 245, 245, 245, 245, 245, 245, 245, 2
				45, 245
       F5 F5 F5 F5 F5 F5	
       F5 F5 F5 F5 F5 F5	
       F5 F5			
 1D88  F5 F5 F5 F5 F5 F5	DB 245, 245, 245, 245, 245, 245, 245, 245, 245,
				 245, 245, 222, 18, 126, 198, 17, 199, 198, 198
				, 17
       F5 F5 F5 F5 F5 DE	
       12 7E C6 11 C7 C6	
       C6 11			
 1D9C  00 12 DE F5 F5 F5	DB 0, 18, 222, 245, 245, 245, 245, 245, 245, 24
				5, 245, 245, 245, 245, 245, 245, 245, 245, 245,
				 245
       F5 F5 F5 F5 F5 F5	
       F5 F5 F5 F5 F5 F5	
       F5 F5			
 1DB0  F5 F5 F5 F5 F5 F5	DB 245, 245, 245, 245, 245, 245, 245, 245, 245,
				 245, 245, 245, 245, 245, 245, 245, 245, 245, 2
				45, 245
       F5 F5 F5 F5 F5 F5	
       F5 F5 F5 F5 F5 F5	
       F5 F5			
 1DC4  DE 11 7E 36 36 03	DB 222, 17, 126, 54, 54, 3, 54, 54, 54, 198, 0,
				 17, 18, 246, 245, 245, 245, 245, 245, 245
       36 36 36 C6 00 11	
       12 F6 F5 F5 F5 F5	
       F5 F5			
 1DD8  F5 F5 F5 F5 F5 F5	DB 245, 245, 245, 245, 245, 245, 245, 245, 245,
				 245, 245, 245, 245, 245, 245, 245, 245, 245, 2
				45, 245
       F5 F5 F5 F5 F5 F5	
       F5 F5 F5 F5 F5 F5	
       F5 F5			
 1DEC  F5 F5 F5 F5 F5 F5	DB 245, 245, 245, 245, 245, 245, 245, 245, 245,
				 222, 18, 198, 125, 55, 54, 53, 53, 53, 54, 198
       F5 F5 F5 DE 12 C6	
       7D 37 36 35 35 35	
       36 C6			
 1E00  00 00 11 F5 F5 F5	DB 0, 0, 17, 245, 245, 245, 245, 245, 245, 245,
				 245, 245, 245, 245, 245, 245, 245, 245, 245, 2
				45
       F5 F5 F5 F5 F5 F5	
       F5 F5 F5 F5 F5 F5	
       F5 F5			
 1E14  F5 F5 F5 F5 F5 F5	DB 245, 245, 245, 245, 245, 245, 245, 245, 245,
				 245, 245, 245, 245, 245, 245, 245, 245, 245, 2
				22, 17
Microsoft (R) Macro Assembler Version 5.10                  12/6/19 16:06:45
                                                             Page     1-60


       F5 F5 F5 F5 F5 F5	
       F5 F5 F5 F5 F5 F5	
       DE 11			
 1E28  C5 37 C6 C7 03 35	DB 197, 55, 198, 199, 3, 53, 53, 54, 198, 0, 0,
				 0, 17, 246, 245, 245, 245, 245, 245, 245
       35 36 C6 00 00 00	
       11 F6 F5 F5 F5 F5	
       F5 F5			
 1E3C  F5 F5 F5 F5 F5 F5	DB 245, 245, 245, 245, 245, 245, 245, 245, 245,
				 245, 245, 245, 245, 245, 245, 245, 245, 245, 2
				45, 245
       F5 F5 F5 F5 F5 F5	
       F5 F5 F5 F5 F5 F5	
       F5 F5			
 1E50  F5 F5 F5 F5 F5 F5	DB 245, 245, 245, 245, 245, 245, 245, 222, 18, 
				198, 54, 54, 199, 0, 199, 125, 125, 198, 0, 0
       F5 DE 12 C6 36 36	
       C7 00 C7 7D 7D C6	
       00 00			
 1E64  00 C6 C6 12 F6 F5	DB 0, 198, 198, 18, 246, 245, 245, 245, 245, 24
				5, 245, 245, 245, 245, 245, 245, 245, 245, 245,
				 245
       F5 F5 F5 F5 F5 F5	
       F5 F5 F5 F5 F5 F5	
       F5 F5			
 1E78  F5 F5 F5 F5 F5 F5	DB 245, 245, 245, 245, 245, 245, 245, 245, 245,
				 245, 245, 245, 245, 245, 245, 245, 245, 18, 19
				8, 54
       F5 F5 F5 F5 F5 F5	
       F5 F5 F5 F5 F5 12	
       C6 36			
 1E8C  35 36 C6 00 00 11	DB 53, 54, 198, 0, 0, 17, 17, 0, 0, 0, 17, 126,
				 125, 198, 18, 245, 245, 245, 245, 245
       11 00 00 00 11 7E	
       7D C6 12 F5 F5 F5	
       F5 F5			
 1EA0  F5 F5 F5 F5 F5 F5	DB 245, 245, 245, 245, 245, 245, 245, 245, 245,
				 245, 245, 245, 245, 245, 245, 245, 245, 245, 2
				45, 245
       F5 F5 F5 F5 F5 F5	
       F5 F5 F5 F5 F5 F5	
       F5 F5			
 1EB4  F5 F5 F5 F5 F5 F6	DB 245, 245, 245, 245, 245, 246, 18, 198, 125, 
				125, 125, 125, 125, 126, 198, 17, 199, 198, 198
				, 127
       12 C6 7D 7D 7D 7D	
       7D 7E C6 11 C7 C6	
       C6 7F			
 1EC8  7E 7E 7D 7D 12 DE	DB 126, 126, 125, 125, 18, 222, 245, 245, 245, 
				245, 245, 245, 245, 245, 245, 245, 245, 245, 24
				5, 245
       F5 F5 F5 F5 F5 F5	
       F5 F5 F5 F5 F5 F5	
       F5 F5			
Microsoft (R) Macro Assembler Version 5.10                  12/6/19 16:06:45
                                                             Page     1-61


 1EDC  F5 F5 F5 F5 F5 F5	DB 245, 245, 245, 245, 245, 245, 245, 245, 245,
				 245, 245, 245, 245, 245, 245, 18, 17, 55, 125,
				 17
       F5 F5 F5 F5 F5 F5	
       F5 F5 F5 12 11 37	
       7D 11			
 1EF0  00 C7 36 36 36 36	DB 0, 199, 54, 54, 54, 54, 55, 54, 54, 54, 54, 
				198, 198, 54, 125, 17, 222, 245, 245, 245
       37 36 36 36 36 C6	
       C6 36 7D 11 DE F5	
       F5 F5			
 1F04  F5 F5 F5 F5 F5 F5	DB 245, 245, 245, 245, 245, 245, 245, 245, 245,
				 245, 245, 245, 245, 245, 245, 245, 245, 245, 2
				45, 245
       F5 F5 F5 F5 F5 F5	
       F5 F5 F5 F5 F5 F5	
       F5 F5			
 1F18  F5 F5 F5 F5 DE 12	DB 245, 245, 245, 245, 222, 18, 126, 55, 125, 1
				98, 0, 0, 197, 54, 54, 54, 54, 54, 54, 54
       7E 37 7D C6 00 00	
       C5 36 36 36 36 36	
       36 36			
 1F2C  36 7E C7 7D 36 7E	DB 54, 126, 199, 125, 54, 126, 18, 222, 245, 24
				5, 245, 245, 245, 245, 245, 245, 245, 245, 245,
				 245
       12 DE F5 F5 F5 F5	
       F5 F5 F5 F5 F5 F5	
       F5 F5			
 1F40  F5 F5 F5 F5 F5 F5	DB 245, 245, 245, 245, 245, 245, 245, 245, 245,
				 245, 245, 245, 245, 222, 18, 125, 54, 126, 126
				, 125
       F5 F5 F5 F5 F5 F5	
       F5 DE 12 7D 36 7E	
       7E 7D			
 1F54  C6 00 00 C6 36 36	DB 198, 0, 0, 198, 54, 54, 54, 54, 54, 54, 54, 
				54, 126, 17, 126, 55, 126, 18, 246, 245
       36 36 36 36 36 36	
       7E 11 7E 37 7E 12	
       F6 F5			
 1F68  F5 F5 F5 F5 F5 F5	DB 245, 245, 245, 245, 245, 245, 245, 245, 245,
				 245, 245, 245, 245, 245, 245, 245, 245, 245, 2
				45, 245
       F5 F5 F5 F5 F5 F5	
       F5 F5 F5 F5 F5 F5	
       F5 F5			
 1F7C  F5 F5 DE 12 7E 37	DB 245, 245, 222, 18, 126, 55, 126, 197, 126, 1
				26, 126, 199, 199, 199, 126, 55, 54, 54, 54, 54
       7E C5 7E 7E 7E C7	
       C7 C7 7E 37 36 36	
       36 36			
 1F90  36 36 37 C6 C7 7E	DB 54, 54, 55, 198, 199, 126, 54, 126, 223, 222
				, 222, 222, 222, 245, 245, 245, 245, 245, 245, 
				245
       36 7E DF DE DE DE	
Microsoft (R) Macro Assembler Version 5.10                  12/6/19 16:06:45
                                                             Page     1-62


       DE F5 F5 F5 F5 F5	
       F5 F5			
 1FA4  F5 F5 F5 F5 F5 F5	DB 245, 245, 245, 245, 245, 245, 245, 245, 245,
				 245, 245, 246, 18, 198, 54, 126, 17, 125, 126,
				 17
       F5 F5 F5 F5 F5 F6	
       12 C6 36 7E 11 7D	
       7E 11			
 1FB8  C6 36 36 7D 11 C7	DB 198, 54, 54, 125, 17, 199, 54, 54, 54, 54, 5
				4, 54, 54, 54, 126, 199, 55, 54, 126, 17
       36 36 36 36 36 36	
       36 36 7E C7 37 36	
       7E 11			
 1FCC  11 11 11 DE F5 F5	DB 17, 17, 17, 222, 245, 245, 245, 245, 245, 24
				5, 245, 245, 245, 245, 245, 245, 245, 245, 245,
				 245
       F5 F5 F5 F5 F5 F5	
       F5 F5 F5 F5 F5 F5	
       F5 F5			
 1FE0  F6 12 C6 36 36 11	DB 246, 18, 198, 54, 54, 17, 0, 125, 126, 0, 20
				, 77, 52, 54, 0, 0, 125, 54, 54, 54
       00 7D 7E 00 14 4D	
       34 36 00 00 7D 36	
       36 36			
 1FF4  36 36 35 35 7E 00	DB 54, 54, 53, 53, 126, 0, 197, 54, 126, 0, 17,
				 126, 198, 18, 222, 245, 245, 245, 245, 245
       C5 36 7E 00 11 7E	
       C6 12 DE F5 F5 F5	
       F5 F5			
 2008  F5 F5 F5 F5 F5 F5	DB 245, 245, 245, 245, 245, 245, 245, 245, 245,
				 245, 18, 198, 54, 53, 3, 0, 0, 55, 126, 0
       F5 F5 F5 F5 12 C6	
       36 35 03 00 00 37	
       7E 00			
 201C  8C 1E 0B 37 00 00	DB 140, 30, 11, 55, 0, 0, 125, 54, 54, 54, 54, 
				54, 54, 54, 125, 0, 0, 199, 0, 0
       7D 36 36 36 36 36	
       36 36 7D 00 00 C7	
       00 00			
 2030  7E 36 36 C5 12 F5	DB 126, 54, 54, 197, 18, 245, 245, 245, 245, 24
				5, 245, 245, 245, 245, 245, 245, 245, 245, 246,
				 18
       F5 F5 F5 F5 F5 F5	
       F5 F5 F5 F5 F5 F5	
       F6 12			
 2044  C6 37 36 36 7E C6	DB 198, 55, 54, 54, 126, 198, 126, 54, 55, 126,
				 139, 24, 174, 199, 199, 126, 54, 54, 54, 54
       7E 36 37 7E 8B 18	
       AE C7 C7 7E 36 36	
       36 36			
 2058  36 7D 7D 36 36 7E	DB 54, 125, 125, 54, 54, 126, 0, 0, 0, 126, 54,
				 54, 54, 54, 197, 18, 246, 245, 245, 245
       00 00 00 7E 36 36	
       36 36 C5 12 F6 F5	
Microsoft (R) Macro Assembler Version 5.10                  12/6/19 16:06:45
                                                             Page     1-63


       F5 F5			
 206C  F5 F5 F5 F5 F5 F5	DB 245, 245, 245, 245, 245, 245, 245, 245, 18, 
				17, 125, 53, 54, 126, 17, 125, 54, 54, 54, 54
       F5 F5 12 11 7D 35	
       36 7E 11 7D 36 36	
       36 36			
 2080  97 B8 11 00 7E 36	DB 151, 184, 17, 0, 126, 54, 54, 54, 54, 54, 54
				, 198, 17, 125, 53, 54, 199, 0, 198, 54
       36 36 36 36 36 C6	
       11 7D 35 36 C7 00	
       C6 36			
 2094  36 36 36 36 36 C5	DB 54, 54, 54, 54, 54, 197, 18, 245, 245, 245, 
				245, 245, 245, 245, 245, 245, 245, 222, 17, 199
       12 F5 F5 F5 F5 F5	
       F5 F5 F5 F5 F5 DE	
       11 C7			
 20A8  36 35 36 11 11 36	DB 54, 53, 54, 17, 17, 54, 53, 54, 54, 54, 55, 
				199, 0, 199, 55, 54, 54, 54, 54, 54
       35 36 36 36 37 C7	
       00 C7 37 36 36 36	
       36 36			
 20BC  36 C7 00 7D 35 35	DB 54, 199, 0, 125, 53, 53, 126, 0, 126, 53, 53
				, 54, 54, 53, 53, 125, 17, 18, 18, 245
       7E 00 7E 35 35 36	
       36 35 35 7D 11 12	
       12 F5			
 20D0  F5 F5 F5 F5 F5 F5	DB 245, 245, 245, 245, 245, 245, 222, 17, 0, 19
				9, 54, 53, 54, 198, 0, 125, 54, 54, 54, 54
       DE 11 00 C7 36 35	
       36 C6 00 7D 36 36	
       36 36			
 20E4  36 37 7D 36 36 36	DB 54, 55, 125, 54, 54, 54, 54, 54, 54, 54, 55,
				 17, 0, 125, 53, 54, 126, 0, 126, 54
       36 36 36 36 37 11	
       00 7D 35 36 7E 00	
       7E 36			
 20F8  36 36 36 36 36 7D	DB 54, 54, 54, 54, 54, 125, 0, 17, 17, 245, 245
				, 245, 245, 245, 245, 222, 18, 246, 23, 163
       00 11 11 F5 F5 F5	
       F5 F5 F5 DE 12 F6	
       17 A3			
 210C  97 36 36 7E 00 C6	DB 151, 54, 54, 126, 0, 198, 54, 54, 54, 126, 1
				98, 125, 54, 53, 54, 54, 54, 54, 54, 125
       36 36 36 7E C6 7D	
       36 35 36 36 36 36	
       36 7D			
 2120  C7 11 7E 36 36 7D	DB 199, 17, 126, 54, 54, 125, 17, 0, 199, 126, 
				126, 126, 54, 54, 125, 199, 0, 0, 0, 0
       11 00 C7 7E 7E 7E	
       36 36 7D C7 00 00	
       00 00			
 2134  F5 F5 F5 F5 F5 12	DB 245, 245, 245, 245, 245, 18, 127, 78, 15, 67
				, 209, 126, 54, 125, 0, 0, 198, 54, 125, 0
       7F 4E 0F 43 D1 7E	
Microsoft (R) Macro Assembler Version 5.10                  12/6/19 16:06:45
                                                             Page     1-64


       36 7D 00 00 C6 36	
       7D 00			
 2148  00 11 36 35 36 36	DB 0, 17, 54, 53, 54, 54, 54, 54, 54, 199, 0, 1
				98, 54, 54, 54, 198, 0, 0, 0, 0
       36 36 36 C7 00 C6	
       36 36 36 C6 00 00	
       00 00			
 215C  00 C6 36 36 11 00	DB 0, 198, 54, 54, 17, 0, 0, 0, 0, 0, 245, 245,
				 245, 246, 223, 126, 55, 78, 15, 29
       00 00 00 00 F5 F5	
       F5 F6 DF 7E 37 4E	
       0F 1D			
 2170  F4 C7 7E C6 00 00	DB 244, 199, 126, 198, 0, 0, 0, 127, 126, 198, 
				17, 17, 126, 125, 54, 54, 126, 126, 126, 0
       00 7F 7E C6 11 11	
       7E 7D 36 36 7E 7E	
       7E 00			
 2184  11 7D 35 35 37 00	DB 17, 125, 53, 53, 55, 0, 0, 0, 0, 17, 17, 198
				, 125, 126, 0, 0, 0, 0, 0, 0
       00 00 00 11 11 C6	
       7D 7E 00 00 00 00	
       00 00			
 2198  F5 F5 F5 12 C5 36	DB 245, 245, 245, 18, 197, 54, 54, 53, 78, 78, 
				55, 127, 199, 0, 0, 0, 0, 0, 127, 126
       36 35 4E 4E 37 7F	
       C7 00 00 00 00 00	
       7F 7E			
 21AC  36 7D 11 11 7D 37	DB 54, 125, 17, 17, 125, 55, 199, 0, 0, 126, 55
				, 54, 53, 54, 125, 0, 0, 0, 197, 54
       C7 00 00 7E 37 36	
       35 36 7D 00 00 00	
       C5 36			
 21C0  36 7D C6 00 00 00	DB 54, 125, 198, 0, 0, 0, 0, 0, 0, 0, 245, 245,
				 245, 18, 199, 125, 54, 53, 54, 54
       00 00 00 00 F5 F5	
       F5 12 C7 7D 36 35	
       36 36			
 21D4  7D 7E 7E 11 00 00	DB 125, 126, 126, 17, 0, 0, 0, 137, 236, 127, 5
				4, 54, 17, 0, 126, 54, 126, 17, 198, 54
       00 89 EC 7F 36 36	
       11 00 7E 36 7E 11	
       C6 36			
 21E8  35 35 36 7D C6 00	DB 53, 53, 54, 125, 198, 0, 0, 0, 126, 53, 53, 
				54, 198, 0, 0, 18, 23, 235, 0, 0
       00 00 7E 35 35 36	
       C6 00 00 12 17 EB	
       00 00			
 21FC  F5 F5 F5 12 00 C7	DB 245, 245, 245, 18, 0, 199, 55, 53, 53, 55, 1
				98, 125, 54, 126, 0, 0, 210, 89, 24, 17
       37 35 35 37 C6 7D	
       36 7E 00 00 D2 59	
       18 11			
 2210  01 37 C7 00 7E 36	DB 1, 55, 199, 0, 126, 54, 54, 125, 54, 54, 53,
				 53, 54, 199, 0, 0, 0, 0, 126, 53
Microsoft (R) Macro Assembler Version 5.10                  12/6/19 16:06:45
                                                             Page     1-65


       36 7D 36 36 35 35	
       36 C7 00 00 00 00	
       7E 35			
 2224  35 36 C7 00 00 17	DB 53, 54, 199, 0, 0, 23, 30, 23, 17, 0, 245, 1
				8, 222, 223, 0, 0, 198, 54, 54, 197
       1E 17 11 00 F5 12	
       DE DF 00 00 C6 36	
       36 C5			
 2238  00 7D 36 7D 00 00	DB 0, 125, 54, 125, 0, 0, 172, 15, 29, 128, 104
				, 126, 126, 126, 54, 54, 53, 53, 54, 54
       AC 0F 1D 80 68 7E	
       7E 7E 36 36 35 35	
       36 36			
 224C  7D 7D 7F 00 00 11	DB 125, 125, 127, 0, 0, 17, 198, 198, 126, 3, 5
				4, 126, 0, 185, 164, 29, 100, 172, 0, 0
       C6 C6 7E 03 36 7E	
       00 B9 A4 1D 64 AC	
       00 00			
 2260  00 11 7E 36 7E 00	DB 0, 17, 126, 54, 126, 0, 0, 17, 199, 0, 0, 12
				6, 54, 126, 0, 104, 79, 15, 30, 54
       00 11 C7 00 00 7E	
       36 7E 00 68 4F 0F	
       1E 36			
 2274  B0 C7 7D 36 36 36	DB 176, 199, 125, 54, 54, 54, 54, 53, 54, 126, 
				17, 17, 0, 0, 17, 125, 54, 54, 126, 17
       36 35 36 7E 11 11	
       00 00 11 7D 36 36	
       7E 11			
 2288  11 00 00 A4 0F 0F	DB 17, 0, 0, 164, 15, 15, 79, 127, 0, 0, 0, 0, 
				198, 54, 54, 125, 17, 0, 0, 0
       4F 7F 00 00 00 00	
       C6 36 36 7D 11 00	
       00 00			
 229C  00 11 C7 DE 96 37	DB 0, 17, 199, 222, 150, 55, 54, 77, 77, 149, 1
				7, 0, 126, 54, 55, 125, 125, 125, 125, 17
       36 4D 4D 95 11 00	
       7E 36 37 7D 7D 7D	
       7D 11			
 22B0  00 00 00 C7 7D 36	DB 0, 0, 0, 199, 125, 54, 53, 53, 126, 0, 0, 0,
				 0, 24, 100, 77, 126, 17, 17, 245
       35 35 7E 00 00 00	
       00 18 64 4D 7E 11	
       11 F5			
 22C4  00 00 00 C6 36 36	DB 0, 0, 0, 198, 54, 54, 126, 0, 0, 0, 0, 0, 0,
				 164, 29, 79, 54, 54, 149, 17
       7E 00 00 00 00 00	
       00 A4 1D 4F 36 36	
       95 11			
 22D8  00 00 00 C7 11 00	DB 0, 0, 0, 199, 17, 0, 0, 0, 0, 0, 0, 0, 0, 12
				5, 54, 54, 53, 54, 126, 0
       00 00 00 00 00 00	
       00 7D 36 36 35 36	
       7E 00			
 22EC  00 00 00 7D 35 36	DB 0, 0, 0, 125, 53, 54, 198, 18, 245, 245, 245
Microsoft (R) Macro Assembler Version 5.10                  12/6/19 16:06:45
                                                             Page     1-66


				, 17, 17, 0, 126, 55, 126, 17, 0, 0
       C6 12 F5 F5 F5 11	
       11 00 7E 37 7E 11	
       00 00			
 2300  00 00 D2 5A 0F 4D	DB 0, 0, 210, 90, 15, 77, 54, 55, 199, 0, 0, 0,
				 0, 0, 0, 0, 0, 0, 0, 17
       36 37 C7 00 00 00	
       00 00 00 00 00 00	
       00 11			
 2314  C6 C6 7E 36 35 36	DB 198, 198, 126, 54, 53, 54, 54, 125, 199, 0, 
				0, 0, 0, 127, 55, 198, 18, 245, 245, 245
       36 7D C7 00 00 00	
       00 7F 37 C6 12 F5	
       F5 F5			
 2328  F5 12 12 11 00 C6	DB 245, 18, 18, 17, 0, 198, 17, 0, 0, 0, 0, 210
				, 28, 15, 15, 78, 55, 199, 0, 17
       11 00 00 00 00 D2	
       1C 0F 0F 4E 37 C7	
       00 11			
 233C  11 00 00 00 00 00	DB 17, 0, 0, 0, 0, 0, 0, 0, 0, 126, 54, 54, 54,
				 54, 53, 54, 126, 0, 0, 17
       00 00 00 7E 36 36	
       36 36 35 36 7E 00	
       00 11			
 2350  00 00 00 11 C7 12	DB 0, 0, 0, 17, 199, 18, 246, 245, 245, 245, 24
				5, 245, 245, 18, 17, 0, 0, 0, 0, 0
       F6 F5 F5 F5 F5 F5	
       F5 12 11 00 00 00	
       00 00			
 2364  12 1C 0F 0F 4D 03	DB 18, 28, 15, 15, 77, 3, 199, 0, 199, 125, 3, 
				126, 0, 0, 17, 126, 126, 198, 198, 55
       C7 00 C7 7D 03 7E	
       00 00 11 7E 7E C6	
       C6 37			
 2378  36 36 36 35 36 7E	DB 54, 54, 54, 53, 54, 126, 0, 0, 209, 23, 233,
				 0, 0, 17, 18, 245, 245, 245, 245, 245
       00 00 D1 17 E9 00	
       00 11 12 F5 F5 F5	
       F5 F5			
 238C  F5 F5 F5 F6 12 11	DB 245, 245, 245, 246, 18, 17, 0, 0, 0, 0, 25, 
				15, 15, 101, 54, 199, 0, 0, 126, 54
       00 00 00 00 19 0F	
       0F 65 36 C7 00 00	
       7E 36			
 23A0  35 36 11 00 7E 36	DB 53, 54, 17, 0, 126, 54, 54, 54, 54, 54, 54, 
				54, 54, 54, 54, 199, 0, 0, 24, 30
       36 36 36 36 36 36	
       36 36 36 C7 00 00	
       18 1E			
 23B4  16 00 00 12 DE F5	DB 22, 0, 0, 18, 222, 245, 245, 245, 245, 245, 
				245, 245, 245, 245, 245, 18, 17, 0, 0, 23
       F5 F5 F5 F5 F5 F5	
       F5 F5 F5 12 11 00	
       00 17			
Microsoft (R) Macro Assembler Version 5.10                  12/6/19 16:06:45
                                                             Page     1-67


 23C8  0F 0F 65 36 7F 00	DB 15, 15, 101, 54, 127, 0, 0, 0, 198, 3, 54, 5
				5, 126, 126, 54, 53, 54, 54, 54, 54
       00 00 C6 03 36 37	
       7E 7E 36 35 36 36	
       36 36			
 23DC  36 36 36 36 C6 00	DB 54, 54, 54, 54, 198, 0, 186, 24, 30, 101, 15
				0, 0, 17, 222, 245, 245, 245, 245, 245, 245
       BA 18 1E 65 96 00	
       11 DE F5 F5 F5 F5	
       F5 F5			
 23F0  F5 F5 F5 F5 F5 F6	DB 245, 245, 245, 245, 245, 246, 18, 18, 7, 15,
				 15, 101, 54, 127, 0, 0, 0, 0, 0, 17
       12 12 07 0F 0F 65	
       36 7F 00 00 00 00	
       00 11			
 2404  C7 C6 7D 36 36 36	DB 199, 198, 125, 54, 54, 54, 54, 54, 54, 54, 5
				4, 54, 54, 198, 0, 0, 24, 15, 100, 54
       36 36 36 36 36 36	
       36 C6 00 00 18 0F	
       64 36			
 2418  C7 11 DE F5 F5 F5	DB 199, 17, 222, 245, 245, 245, 245, 245, 245, 
				245, 245, 245, 245, 245, 245, 222, 19, 7, 15, 1
				5
       F5 F5 F5 F5 F5 F5	
       F5 F5 F5 DE 13 07	
       0F 0F			
 242C  65 36 7F 00 00 00	DB 101, 54, 127, 0, 0, 0, 17, 126, 197, 0, 0, 0
				, 198, 126, 127, 1, 54, 54, 54, 54
       11 7E C5 00 00 00	
       C6 7E 7F 01 36 36	
       36 36			
 2440  36 36 7E 00 00 00	DB 54, 54, 126, 0, 0, 0, 79, 100, 78, 126, 17, 
				18, 245, 245, 245, 245, 245, 245, 245, 245
       4F 64 4E 7E 11 12	
       F5 F5 F5 F5 F5 F5	
       F5 F5			
 2454  F5 F5 F5 F5 F6 12	DB 245, 245, 245, 245, 246, 18, 24, 30, 15, 15,
				 78, 126, 0, 0, 0, 0, 198, 54, 55, 17
       18 1E 0F 0F 4E 7E	
       00 00 00 00 C6 36	
       37 11			
 2468  00 00 00 00 00 C6	DB 0, 0, 0, 0, 0, 198, 54, 54, 54, 54, 54, 126,
				 0, 0, 0, 0, 54, 53, 3, 17
       36 36 36 36 36 7E	
       00 00 00 00 36 35	
       03 11			
 247C  12 F6 F5 F5 F5 F5	DB 18, 246, 245, 245, 245, 245, 245, 245, 245, 
				245, 245, 245, 245, 245, 246, 18, 24, 30, 30, 7
				7
       F5 F5 F5 F5 F5 F5	
       F5 F5 F6 12 18 1E	
       1E 4D			
 2490  37 11 00 11 C7 00	DB 55, 17, 0, 17, 199, 0, 0, 125, 126, 17, 0, 1
				99, 199, 17, 114, 138, 126, 54, 54, 54
Microsoft (R) Macro Assembler Version 5.10                  12/6/19 16:06:45
                                                             Page     1-68


       00 7D 7E 11 00 C7	
       C7 11 72 8A 7E 36	
       36 36			
 24A4  7E 11 00 00 00 00	DB 126, 17, 0, 0, 0, 0, 126, 55, 198, 18, 245, 
				245, 245, 245, 245, 245, 245, 245, 245, 245
       7E 37 C6 12 F5 F5	
       F5 F5 F5 F5 F5 F5	
       F5 F5			
 24B8  F5 F5 F5 F5 F5 DE	DB 245, 245, 245, 245, 245, 222, 18, 173, 78, 5
				4, 198, 0, 0, 126, 55, 126, 17, 17, 17, 0
       12 AD 4E 36 C6 00	
       00 7E 37 7E 11 11	
       11 00			
 24CC  C6 37 37 94 1C 41	DB 198, 55, 55, 148, 28, 65, 208, 127, 55, 126,
				 17, 0, 17, 0, 0, 0, 17, 199, 18, 246
       D0 7F 37 7E 11 00	
       11 00 00 00 11 C7	
       12 F6			
 24E0  F5 F5 F5 F5 F5 F5	DB 245, 245, 245, 245, 245, 245, 245, 245, 245,
				 245, 245, 245, 245, 245, 245, 245, 222, 18, 12
				6, 127
       F5 F5 F5 F5 F5 F5	
       F5 F5 F5 F5 DE 12	
       7E 7F			
 24F4  11 11 11 C5 36 36	DB 17, 17, 17, 197, 54, 54, 125, 0, 0, 0, 126, 
				54, 54, 53, 102, 25, 185, 17, 199, 0
       7D 00 00 00 7E 36	
       36 35 66 19 B9 11	
       C7 00			
 2508  00 D2 A4 12 00 00	DB 0, 210, 164, 18, 0, 0, 17, 18, 246, 245, 245
				, 245, 245, 245, 245, 245, 245, 245, 245, 245
       11 12 F6 F5 F5 F5	
       F5 F5 F5 F5 F5 F5	
       F5 F5			
 251C  F5 F5 F5 F5 F5 F5	DB 245, 245, 245, 245, 245, 245, 245, 222, 17, 
				17, 17, 222, 222, 18, 126, 54, 54, 199, 0, 0
       F5 DE 11 11 11 DE	
       DE 12 7E 36 36 C7	
       00 00			
 2530  7E 36 36 35 35 94	DB 126, 54, 54, 53, 53, 148, 17, 0, 0, 0, 17, 7
				, 30, 20, 0, 0, 18, 222, 245, 245
       11 00 00 00 11 07	
       1E 14 00 00 12 DE	
       F5 F5			
 2544  F5 F5 F5 F5 F5 F5	DB 245, 245, 245, 245, 245, 245, 245, 245, 245,
				 245, 245, 245, 245, 245, 245, 245, 245, 245, 1
				8, 17
       F5 F5 F5 F5 F5 F5	
       F5 F5 F5 F5 F5 F5	
       12 11			
 2558  12 F5 F5 DE 11 7E	DB 18, 245, 245, 222, 17, 126, 54, 125, 126, 19
				8, 198, 126, 54, 54, 54, 55, 17, 0, 0, 211
       36 7D 7E C6 C6 7E	
       36 36 36 37 11 00	
Microsoft (R) Macro Assembler Version 5.10                  12/6/19 16:06:45
                                                             Page     1-69


       00 D3			
 256C  07 0F 66 F5 00 11	DB 7, 15, 102, 245, 0, 17, 222, 245, 245, 245, 
				245, 245, 245, 245, 245, 245, 245, 245, 245, 24
				5
       DE F5 F5 F5 F5 F5	
       F5 F5 F5 F5 F5 F5	
       F5 F5			
 2580  F5 F5 F5 F5 F5 F5	DB 245, 245, 245, 245, 245, 245, 245, 245, 246,
				 222, 246, 245, 245, 245, 222, 17, 198, 54, 54,
				 54
       F5 F5 F6 DE F6 F5	
       F5 F5 DE 11 C6 36	
       36 36			
 2594  7E 11 7D 36 36 37	DB 126, 17, 125, 54, 54, 55, 17, 0, 17, 7, 15, 
				101, 54, 199, 17, 222, 245, 245, 245, 245
       11 00 11 07 0F 65	
       36 C7 11 DE F5 F5	
       F5 F5			
 25A8  F5 F5 F5 F5 F5 F5	DB 245, 245, 245, 245, 245, 245, 245, 245, 245,
				 245, 245, 245, 245, 245, 245, 245, 245, 245, 2
				45, 245
       F5 F5 F5 F5 F5 F5	
       F5 F5 F5 F5 F5 F5	
       F5 F5			
 25BC  F5 F5 F5 F5 F5 12	DB 245, 245, 245, 245, 245, 18, 0, 126, 54, 53,
				 54, 198, 198, 126, 125, 126, 17, 0, 17, 78
       00 7E 36 35 36 C6	
       C6 7E 7D 7E 11 00	
       11 4E			
 25D0  64 4E 7F 11 12 F5	DB 100, 78, 127, 17, 18, 245, 245, 245, 245, 24
				5, 245, 245, 245, 245, 245, 245, 245, 245, 245,
				 245
       F5 F5 F5 F5 F5 F5	
       F5 F5 F5 F5 F5 F5	
       F5 F5			
 25E4  F5 F5 F5 F5 F5 F5	DB 245, 245, 245, 245, 245, 245, 245, 245, 245,
				 245, 245, 245, 245, 245, 245, 18, 0, 0, 126, 5
				4
       F5 F5 F5 F5 F5 F5	
       F5 F5 F5 12 00 00	
       7E 36			
 25F8  35 36 C7 00 11 11	DB 53, 54, 199, 0, 17, 17, 0, 0, 17, 54, 53, 12
				5, 17, 18, 246, 245, 245, 245, 245, 245
       00 00 11 36 35 7D	
       11 12 F6 F5 F5 F5	
       F5 F5			
 260C  F5 F5 F5 F5 F5 F5	DB 245, 245, 245, 245, 245, 245, 245, 245, 245,
				 245, 245, 245, 245, 245, 245, 245, 245, 245, 2
				45, 245
       F5 F5 F5 F5 F5 F5	
       F5 F5 F5 F5 F5 F5	
       F5 F5			
 2620  F5 F5 F5 F5 F5 12	DB 245, 245, 245, 245, 245, 18, 17, 0, 0, 125, 
				53, 54, 198, 0, 0, 0, 0, 0, 0, 126
Microsoft (R) Macro Assembler Version 5.10                  12/6/19 16:06:45
                                                             Page     1-70


       11 00 00 7D 35 36	
       C6 00 00 00 00 00	
       00 7E			
 2634  7E C7 12 F5 F5 F5	DB 126, 199, 18, 245, 245, 245, 245, 245, 245, 
				245, 245, 245, 245, 245, 245, 245, 245, 245, 24
				5, 245
       F5 F5 F5 F5 F5 F5	
       F5 F5 F5 F5 F5 F5	
       F5 F5			
 2648  F5 F5 F5 F5 F5 F5	DB 245, 245, 245, 245, 245, 245, 245, 245, 245,
				 245, 245, 245, 245, 245, 245, 246, 18, 17, 0, 
				17
       F5 F5 F5 F5 F5 F5	
       F5 F5 F5 F6 12 11	
       00 11			
 265C  37 36 7E 00 00 00	DB 55, 54, 126, 0, 0, 0, 0, 0, 0, 17, 17, 18, 2
				46, 245, 245, 245, 245, 245, 245, 245
       00 00 00 11 11 12	
       F6 F5 F5 F5 F5 F5	
       F5 F5			
 2670  F5 F5 F5 F5 F5 F5	DB 245, 245, 245, 245, 245, 245, 245, 245, 245,
				 245, 245, 245, 245, 245, 245, 245, 245, 245, 2
				45, 245
       F5 F5 F5 F5 F5 F5	
       F5 F5 F5 F5 F5 F5	
       F5 F5			
 2684  F5 F5 F5 F5 F5 F5	DB 245, 245, 245, 245, 245, 245, 245, 18, 17, 0
				, 198, 126, 198, 0, 0, 0, 0, 0, 0, 0
       F5 12 11 00 C6 7E	
       C6 00 00 00 00 00	
       00 00			
 2698  11 DE F5 F5 F5 F5	DB 17, 222, 245, 245, 245, 245, 245, 245, 245, 
				245, 245, 245, 245, 245, 245, 245, 245, 245, 24
				5, 245
       F5 F5 F5 F5 F5 F5	
       F5 F5 F5 F5 F5 F5	
       F5 F5			
 26AC  F5 F5 F5 F5 F5 F5	DB 245, 245, 245, 245, 245, 245, 245, 245, 245,
				 245, 245, 245, 245, 245, 245, 245, 245, 222, 1
				8, 0
       F5 F5 F5 F5 F5 F5	
       F5 F5 F5 F5 F5 DE	
       12 00			
 26C0  00 11 11 00 00 00	DB 0, 17, 17, 0, 0, 0, 0, 0, 0, 18, 222, 245, 2
				45, 245, 245, 245, 245, 245, 245, 245
       00 00 00 12 DE F5	
       F5 F5 F5 F5 F5 F5	
       F5 F5			
 26D4  F5 F5 F5 F5 F5 F5	DB 245, 245, 245, 245, 245, 245, 245, 245, 245,
				 245, 245, 245, 245, 245, 245, 245, 245, 245, 2
				45, 245
       F5 F5 F5 F5 F5 F5	
       F5 F5 F5 F5 F5 F5	
       F5 F5			
Microsoft (R) Macro Assembler Version 5.10                  12/6/19 16:06:45
                                                             Page     1-71


 26E8  F5 F5 F5 F5 F5 F5	DB 245, 245, 245, 245, 245, 245, 245, 245, 18, 
				17, 0, 0, 0, 0, 0, 0, 0, 0, 0, 18
       F5 F5 12 11 00 00	
       00 00 00 00 00 00	
       00 12			
 26FC  F5 F5 F5 F5 F5 F5	DB 245, 245, 245, 245, 245, 245, 245, 245, 245,
				 245, 245, 245, 245, 245, 245, 245, 245, 245, 2
				45, 245
       F5 F5 F5 F5 F5 F5	
       F5 F5 F5 F5 F5 F5	
       F5 F5			
				
 2710  F5 F5 F5 F5 12 11	BITMAP_DOWN_PLAYER2 DB 245, 245, 245, 245, 18, 
				17, 0, 0, 0, 0, 0, 0, 0, 0, 0, 0, 0, 0, 0, 17
       00 00 00 00 00 00	
       00 00 00 00 00 00	
       00 11			
 2724  12 F5 F5 F5 F5 F5	DB 18, 245, 245, 245, 245, 245, 245, 245, 245, 
				18, 17, 0, 0, 0, 0, 0, 0, 0, 0, 0
       F5 F5 F5 12 11 00	
       00 00 00 00 00 00	
       00 00			
 2738  00 00 00 00 11 12	DB 0, 0, 0, 0, 17, 18, 245, 245, 245, 245, 245,
				 245, 245, 245, 18, 17, 0, 0, 17, 199
       F5 F5 F5 F5 F5 F5	
       F5 F5 12 11 00 00	
       11 C7			
 274C  C7 11 11 C7 C6 C6	DB 199, 17, 17, 199, 198, 198, 199, 17, 0, 17, 
				18, 18, 245, 245, 18, 18, 245, 245, 245, 18
       C7 11 00 11 12 12	
       F5 F5 12 12 F5 F5	
       F5 12			
 2760  11 00 11 C6 C6 C6	DB 17, 0, 17, 198, 198, 198, 199, 17, 17, 199, 
				199, 17, 0, 0, 17, 18, 245, 245, 245, 245
       C7 11 11 C7 C7 11	
       00 00 11 12 F5 F5	
       F5 F5			
 2774  F5 F5 12 11 00 00	DB 245, 245, 18, 17, 0, 0, 0, 198, 125, 54, 54,
				 54, 55, 54, 54, 54, 54, 126, 17, 0
       00 C6 7D 36 36 36	
       37 36 36 36 36 7E	
       11 00			
 2788  11 11 11 11 11 11	DB 17, 17, 17, 17, 17, 17, 17, 17, 17, 17, 0, 1
				7, 126, 125, 54, 54, 54, 54, 55, 54
       11 11 11 11 00 11	
       7E 7D 36 36 36 36	
       37 36			
 279C  36 7D C6 00 00 00	DB 54, 125, 198, 0, 0, 0, 17, 245, 245, 245, 18
				, 18, 17, 0, 0, 0, 198, 125, 54, 53
       11 F5 F5 F5 12 12	
       11 00 00 00 C6 7D	
       36 35			
 27B0  35 36 36 36 36 36	DB 53, 54, 54, 54, 54, 54, 54, 126, 17, 0, 0, 0
				, 0, 0, 0, 0, 0, 0, 0, 0
Microsoft (R) Macro Assembler Version 5.10                  12/6/19 16:06:45
                                                             Page     1-72


       36 7E 11 00 00 00	
       00 00 00 00 00 00	
       00 00			
 27C4  00 00 7E 36 36 35	DB 0, 0, 126, 54, 54, 53, 53, 54, 54, 54, 54, 5
				4, 125, 198, 0, 0, 0, 17, 18, 245
       35 36 36 36 36 36	
       7D C6 00 00 00 11	
       12 F5			
 27D8  11 11 00 00 11 7E	DB 17, 17, 0, 0, 17, 126, 55, 54, 54, 54, 54, 5
				4, 54, 54, 54, 125, 126, 17, 0, 0
       37 36 36 36 36 36	
       36 36 36 7D 7E 11	
       00 00			
 27EC  00 00 00 00 00 00	DB 0, 0, 0, 0, 0, 0, 0, 0, 0, 0, 0, 0, 0, 198, 
				125, 54, 54, 54, 54, 54
       00 00 00 00 00 00	
       00 C6 7D 36 36 36	
       36 36			
 2800  36 36 36 36 7E 11	DB 54, 54, 54, 54, 126, 17, 0, 0, 17, 17, 0, 0,
				 0, 0, 198, 54, 54, 53, 54, 54
       00 00 11 11 00 00	
       00 00 C6 36 36 35	
       36 36			
 2814  36 36 36 36 7D C7	DB 54, 54, 54, 54, 125, 199, 0, 0, 0, 17, 198, 
				126, 126, 126, 126, 126, 126, 126, 126, 126
       00 00 00 11 C6 7E	
       7E 7E 7E 7E 7E 7E	
       7E 7E			
 2828  7E C6 00 00 C7 7E	DB 126, 198, 0, 0, 199, 126, 54, 54, 54, 54, 54
				, 54, 53, 54, 54, 126, 0, 0, 0, 0
       36 36 36 36 36 36	
       35 36 36 7E 00 00	
       00 00			
 283C  00 00 00 00 C6 37	DB 0, 0, 0, 0, 198, 55, 54, 54, 54, 54, 54, 54,
				 54, 54, 125, 199, 0, 0, 0, 199
       36 36 36 36 36 36	
       36 36 7D C7 00 00	
       00 C7			
 2850  7E 36 36 36 36 36	DB 126, 54, 54, 54, 54, 54, 54, 54, 54, 54, 54,
				 125, 199, 0, 17, 126, 54, 54, 54, 54
       36 36 36 36 36 7D	
       C7 00 11 7E 36 36	
       36 36			
 2864  36 36 36 36 36 C6	DB 54, 54, 54, 54, 54, 198, 0, 0, 0, 0, 0, 0, 0
				, 0, 17, 197, 126, 126, 126, 126
       00 00 00 00 00 00	
       00 00 11 C5 7E 7E	
       7E 7E			
 2878  36 36 35 36 37 C6	DB 54, 54, 53, 54, 55, 198, 0, 0, 0, 17, 126, 1
				25, 125, 125, 125, 126, 126, 126, 125, 125
       00 00 00 11 7E 7D	
       7D 7D 7D 7E 7E 7E	
       7D 7D			
 288C  37 7E C7 00 C6 7D	DB 55, 126, 199, 0, 198, 125, 54, 53, 54, 54, 1
Microsoft (R) Macro Assembler Version 5.10                  12/6/19 16:06:45
                                                             Page     1-73


				25, 126, 126, 126, 198, 17, 0, 0, 0, 0
       36 35 36 36 7D 7E	
       7E 7E C6 11 00 00	
       00 00			
 28A0  00 00 00 00 00 00	DB 0, 0, 0, 0, 0, 0, 0, 0, 0, 199, 125, 54, 53,
				 54, 55, 198, 0, 0, 0, 0
       00 00 00 C7 7D 36	
       35 36 37 C6 00 00	
       00 00			
 28B4  11 C7 C7 11 11 00	DB 17, 199, 199, 17, 17, 0, 0, 17, 17, 17, 199,
				 17, 0, 0, 198, 125, 54, 53, 54, 54
       00 11 11 11 C7 11	
       00 00 C6 7D 36 35	
       36 36			
 28C8  7E 00 00 00 00 00	DB 126, 0, 0, 0, 0, 0, 0, 0, 0, 0, 0, 0, 0, 0, 
				0, 17, 198, 198, 199, 198
       00 00 00 00 00 00	
       00 00 00 11 C6 C6	
       C7 C6			
 28DC  7E 7D 36 7D 7E 11	DB 126, 125, 54, 125, 126, 17, 0, 0, 0, 0, 17, 
				199, 198, 199, 199, 199, 199, 199, 199, 0
       00 00 00 00 11 C7	
       C6 C7 C7 C7 C7 C7	
       C7 00			
 28F0  00 00 00 00 11 7E	DB 0, 0, 0, 0, 17, 126, 125, 54, 55, 125, 126, 
				198, 198, 199, 17, 0, 0, 0, 0, 0
       7D 36 37 7D 7E C6	
       C6 C7 11 00 00 00	
       00 00			
 2904  00 00 00 00 C7 7E	DB 0, 0, 0, 0, 199, 126, 54, 54, 54, 55, 127, 1
				7, 17, 17, 0, 0, 0, 0, 0, 0
       36 36 36 37 7F 11	
       11 11 00 00 00 00	
       00 00			
 2918  7E 36 36 36 36 36	DB 126, 54, 54, 54, 54, 54, 54, 54, 54, 125, 19
				8, 0, 0, 0, 0, 0, 17, 17, 17, 199
       36 36 36 7D C6 00	
       00 00 00 00 11 11	
       11 C7			
 292C  7E 36 36 36 7D C6	DB 126, 54, 54, 54, 125, 198, 0, 0, 0, 0, 8, 23
				5, 17, 0, 127, 54, 53, 53, 53, 125
       00 00 00 00 08 EB	
       11 00 7F 36 35 35	
       35 7D			
 2940  C6 00 00 00 00 11	DB 198, 0, 0, 0, 0, 17, 198, 198, 198, 126, 54,
				 54, 53, 54, 54, 54, 54, 54, 53, 54
       C6 C6 C6 7E 36 36	
       35 36 36 36 36 36	
       35 36			
 2954  7D 7E C6 C7 00 00	DB 125, 126, 198, 199, 0, 0, 0, 0, 0, 0, 126, 5
				4, 53, 53, 54, 126, 17, 185, 211, 8
       00 00 00 00 7E 36	
       35 35 36 7E 11 B9	
       D3 08			
Microsoft (R) Macro Assembler Version 5.10                  12/6/19 16:06:45
                                                             Page     1-74


 2968  1E 1C 17 13 C6 7E	DB 30, 28, 23, 19, 198, 126, 54, 54, 126, 17, 0
				, 0, 0, 0, 198, 125, 54, 54, 54, 54
       36 36 7E 11 00 00	
       00 00 C6 7D 36 36	
       36 36			
 297C  36 36 36 36 36 36	DB 54, 54, 54, 54, 54, 54, 54, 54, 54, 54, 54, 
				54, 54, 54, 125, 198, 0, 0, 0, 0
       36 36 36 36 36 36	
       36 36 7D C6 00 00	
       00 00			
 2990  00 7E 36 36 7E C7	DB 0, 126, 54, 54, 126, 199, 17, 163, 28, 30, 3
				0, 15, 7, 20, 17, 176, 199, 199, 0, 0
       11 A3 1C 1E 1E 0F	
       07 14 11 B0 C7 C7	
       00 00			
 29A4  00 00 11 7E 37 36	DB 0, 0, 17, 126, 55, 54, 54, 53, 54, 54, 54, 5
				4, 54, 54, 54, 54, 54, 54, 54, 54
       36 35 36 36 36 36	
       36 36 36 36 36 36	
       36 36			
 29B8  36 35 35 36 36 37	DB 54, 53, 53, 54, 54, 55, 126, 17, 0, 0, 0, 0,
				 17, 199, 17, 0, 18, 24, 15, 30
       7E 11 00 00 00 00	
       11 C7 11 00 12 18	
       0F 1E			
 29CC  1E 1D 18 E8 00 00	DB 30, 29, 24, 232, 0, 0, 0, 0, 0, 0, 0, 0, 198
				, 55, 54, 54, 54, 54, 54, 54
       00 00 00 00 00 00	
       C6 37 36 36 36 36	
       36 36			
 29E0  36 36 36 36 36 36	DB 54, 54, 54, 54, 54, 54, 54, 54, 54, 55, 54, 
				54, 54, 54, 54, 54, 54, 126, 0, 0
       36 36 36 37 36 36	
       36 36 36 36 36 7E	
       00 00			
 29F4  00 00 00 00 00 00	DB 0, 0, 0, 0, 0, 0, 17, 23, 29, 30, 23, 162, 2
				10, 17, 17, 199, 127, 198, 0, 0
       11 17 1D 1E 17 A2	
       D2 11 11 C7 7F C6	
       00 00			
 2A08  00 00 7E 36 36 35	DB 0, 0, 126, 54, 54, 53, 54, 125, 198, 198, 12
				6, 54, 54, 54, 54, 54, 54, 125, 198, 17
       36 7D C6 C6 7E 36	
       36 36 36 36 36 7D	
       C6 11			
 2A1C  11 C6 7D 36 36 35	DB 17, 198, 125, 54, 54, 53, 54, 126, 0, 0, 0, 
				0, 198, 127, 199, 0, 0, 208, 162, 24
       36 7E 00 00 00 00	
       C6 7F C7 00 00 D0	
       A2 18			
 2A30  00 00 00 00 7F 37	DB 0, 0, 0, 0, 127, 55, 54, 125, 199, 0, 0, 17,
				 126, 54, 54, 54, 54, 197, 0, 0
       36 7D C7 00 00 11	
       7E 36 36 36 36 C5	
Microsoft (R) Macro Assembler Version 5.10                  12/6/19 16:06:45
                                                             Page     1-75


       00 00			
 2A44  7E 36 36 36 36 36	DB 126, 54, 54, 54, 54, 54, 54, 126, 0, 0, 0, 0
				, 198, 55, 54, 53, 54, 125, 17, 0
       36 7E 00 00 00 00	
       C6 37 36 35 36 7D	
       11 00			
 2A58  00 11 7E 37 7D C6	DB 0, 17, 126, 55, 125, 198, 0, 0, 0, 0, 0, 0, 
				0, 0, 126, 54, 54, 55, 199, 0
       00 00 00 00 00 00	
       00 00 7E 36 36 37	
       C7 00			
 2A6C  11 7E 36 36 36 7D	DB 17, 126, 54, 54, 54, 125, 126, 199, 199, 126
				, 125, 54, 54, 54, 54, 126, 126, 198, 198, 198
       7E C7 C7 7E 7D 36	
       36 36 36 7E 7E C6	
       C6 C6			
 2A80  C7 C7 C7 C6 7E 36	DB 199, 199, 199, 198, 126, 54, 54, 54, 126, 19
				9, 0, 199, 125, 54, 54, 126, 17, 0, 0, 0
       36 36 7E C7 00 C7	
       7D 36 36 7E 11 00	
       00 00			
 2A94  00 00 00 00 7E 36	DB 0, 0, 0, 0, 126, 54, 54, 125, 0, 0, 126, 54,
				 53, 54, 126, 17, 0, 199, 125, 54
       36 7D 00 00 7E 36	
       35 36 7E 11 00 C7	
       7D 36			
 2AA8  36 36 36 36 7E 11	DB 54, 54, 54, 54, 126, 17, 0, 199, 54, 53, 53,
				 54, 198, 0, 17, 126, 54, 53, 54, 55
       00 C7 36 35 35 36	
       C6 00 11 7E 36 35	
       36 37			
 2ABC  C7 11 7E 36 37 7E	DB 199, 17, 126, 54, 55, 126, 17, 0, 0, 0, 0, 0
				, 0, 17, 126, 54, 54, 126, 0, 0
       11 00 00 00 00 00	
       00 11 7E 36 36 7E	
       00 00			
 2AD0  7E 36 35 36 7E 00	DB 126, 54, 53, 54, 126, 0, 0, 198, 54, 53, 53,
				 54, 54, 54, 198, 0, 0, 199, 54, 11
       00 C6 36 35 35 36	
       36 36 C6 00 00 C7	
       36 0B			
 2AE4  4C 66 17 B9 00 C7	DB 76, 102, 23, 185, 0, 199, 55, 53, 53, 54, 19
				8, 0, 126, 125, 125, 126, 17, 0, 0, 0
       37 35 35 36 C6 00	
       7E 7D 7D 7E 11 00	
       00 00			
 2AF8  00 00 00 00 7E 36	DB 0, 0, 0, 0, 126, 54, 54, 126, 0, 0, 126, 54,
				 53, 54, 126, 0, 0, 198, 54, 53
       36 7E 00 00 7E 36	
       35 36 7E 00 00 C6	
       36 35			
 2B0C  36 36 36 36 7E C6	DB 54, 54, 54, 54, 126, 198, 0, 176, 126, 79, 1
				02, 90, 164, 211, 198, 126, 54, 54, 53, 54
       00 B0 7E 4F 66 5A	
Microsoft (R) Macro Assembler Version 5.10                  12/6/19 16:06:45
                                                             Page     1-76


       A4 D3 C6 7E 36 36	
       35 36			
 2B20  C6 00 7E 37 37 7E	DB 198, 0, 126, 55, 55, 126, 17, 0, 0, 0, 0, 0,
				 0, 0, 127, 54, 54, 126, 0, 0
       11 00 00 00 00 00	
       00 00 7F 36 36 7E	
       00 00			
 2B34  7E 36 35 36 7E 00	DB 126, 54, 53, 54, 126, 0, 0, 199, 54, 54, 54,
				 54, 54, 54, 54, 55, 126, 199, 176, 18
       00 C7 36 36 36 36	
       36 36 36 37 7E C7	
       B0 12			
 2B48  89 8B A1 96 7D 37	DB 137, 139, 161, 150, 125, 55, 54, 54, 54, 54,
				 198, 0, 126, 55, 55, 126, 17, 0, 0, 0
       36 36 36 36 C6 00	
       7E 37 37 7E 11 00	
       00 00			
 2B5C  13 12 00 00 7F 37	DB 19, 18, 0, 0, 127, 55, 54, 125, 17, 0, 198, 
				54, 54, 54, 55, 198, 0, 17, 126, 54
       36 7D 11 00 C6 36	
       36 36 37 C6 00 11	
       7E 36			
 2B70  36 36 36 36 36 36	DB 54, 54, 54, 54, 54, 54, 54, 126, 199, 0, 0, 
				18, 126, 54, 54, 54, 54, 54, 54, 126
       36 7E C7 00 00 12	
       7E 36 36 36 36 36	
       36 7E			
 2B84  00 00 7E 37 7D 7F	DB 0, 0, 126, 55, 125, 127, 17, 0, 18, 19, 27, 
				24, 137, 17, 198, 55, 54, 125, 17, 0
       11 00 12 13 1B 18	
       89 11 C6 37 36 7D	
       11 00			
 2B98  00 C5 37 36 36 36	DB 0, 197, 55, 54, 54, 54, 126, 199, 0, 198, 12
				5, 54, 54, 54, 54, 54, 54, 54, 126, 198
       7E C7 00 C6 7D 36	
       36 36 36 36 36 36	
       7E C6			
 2BAC  C7 7F 37 36 36 36	DB 199, 127, 55, 54, 54, 54, 54, 125, 126, 17, 
				0, 17, 126, 55, 126, 199, 17, 211, 24, 27
       36 7D 7E 11 00 11	
       7E 37 7E C7 11 D3	
       18 1B			
 2BC0  1E 1E 18 13 C6 01	DB 30, 30, 24, 19, 198, 1, 54, 125, 199, 0, 0, 
				0, 126, 54, 54, 54, 54, 126, 0, 0
       36 7D C7 00 00 00	
       7E 36 36 36 36 7E	
       00 00			
 2BD4  7E 36 36 36 37 7D	DB 126, 54, 54, 54, 55, 125, 54, 54, 54, 54, 54
				, 54, 54, 54, 54, 54, 54, 126, 0, 0
       36 36 36 36 36 36	
       36 36 36 36 36 7E	
       00 00			
 2BE8  00 11 7D 37 7E B0	DB 0, 17, 125, 55, 126, 176, 17, 23, 29, 30, 30
				, 15, 25, 20, 127, 1, 55, 125, 198, 0
Microsoft (R) Macro Assembler Version 5.10                  12/6/19 16:06:45
                                                             Page     1-77


       11 17 1D 1E 1E 0F	
       19 14 7F 01 37 7D	
       C6 00			
 2BFC  00 00 7E 36 36 35	DB 0, 0, 126, 54, 54, 53, 54, 54, 126, 126, 54,
				 54, 125, 198, 17, 0, 199, 126, 54, 53
       36 36 7E 7E 36 36	
       7D C6 11 00 C7 7E	
       36 35			
 2C10  35 36 36 36 36 36	DB 53, 54, 54, 54, 54, 54, 54, 126, 0, 0, 0, 19
				9, 125, 55, 126, 176, 17, 24, 30, 30
       36 7E 00 00 00 C7	
       7D 37 7E B0 11 18	
       1E 1E			
 2C24  1E 1B A2 12 7F 7E	DB 30, 27, 162, 18, 127, 126, 55, 125, 17, 0, 0
				, 0, 198, 125, 54, 54, 54, 54, 54, 54
       37 7D 11 00 00 00	
       C6 7D 36 36 36 36	
       36 36			
 2C38  36 37 7E 11 00 00	DB 54, 55, 126, 17, 0, 0, 0, 199, 125, 54, 54, 
				54, 54, 54, 54, 54, 54, 126, 0, 0
       00 C7 7D 36 36 36	
       36 36 36 36 36 7E	
       00 00			
 2C4C  00 11 7D 37 7E C7	DB 0, 17, 125, 55, 126, 199, 0, 137, 27, 30, 20
				, 209, 17, 0, 198, 55, 54, 125, 17, 0
       00 89 1B 1E 14 D1	
       11 00 C6 37 36 7D	
       11 00			
 2C60  00 00 00 C6 7E 36	DB 0, 0, 0, 198, 126, 54, 54, 53, 53, 54, 125, 
				198, 198, 126, 125, 125, 126, 198, 199, 127
       36 35 35 36 7D C6	
       C6 7E 7D 7D 7E C6	
       C7 7F			
 2C74  7D 36 36 36 36 7E	DB 125, 54, 54, 54, 54, 126, 198, 17, 0, 0, 0, 
				17, 126, 54, 125, 198, 0, 0, 209, 20
       C6 11 00 00 00 11	
       7E 36 7D C6 00 00	
       D1 14			
 2C88  00 00 00 00 C6 37	DB 0, 0, 0, 0, 198, 55, 54, 54, 126, 17, 0, 0, 
				0, 0, 17, 126, 125, 54, 54, 126
       36 36 7E 11 00 00	
       00 00 11 7E 7D 36	
       36 7E			
 2C9C  11 00 11 7F 37 37	DB 17, 0, 17, 127, 55, 55, 1, 199, 0, 0, 198, 1
				25, 54, 54, 126, 17, 0, 0, 0, 0
       01 C7 00 00 C6 7D	
       36 36 7E 11 00 00	
       00 00			
 2CB0  11 7E 36 36 37 C6	DB 17, 126, 54, 54, 55, 198, 0, 0, 0, 0, 0, 0, 
				0, 0, 198, 125, 54, 54, 54, 126
       00 00 00 00 00 00	
       00 00 C6 7D 36 36	
       36 7E			
 2CC4  11 00 00 00 00 00	DB 17, 0, 0, 0, 0, 0, 199, 198, 198, 17, 0, 0, 
Microsoft (R) Macro Assembler Version 5.10                  12/6/19 16:06:45
                                                             Page     1-78


				0, 17, 198, 126, 198, 17, 0, 0
       C7 C6 C6 11 00 00	
       00 11 C6 7E C6 11	
       00 00			
 2CD8  00 C6 C6 C6 11 00	DB 0, 198, 198, 198, 17, 0, 0, 0, 0, 0, 126, 54
				, 54, 54, 55, 198, 0, 0, 0, 0
       00 00 00 00 7E 36	
       36 36 37 C6 00 00	
       00 00			
 2CEC  00 00 00 00 C6 7D	DB 0, 0, 0, 0, 198, 125, 54, 53, 54, 55, 198, 0
				, 0, 0, 0, 0, 0, 0, 0, 0
       36 35 36 37 C6 00	
       00 00 00 00 00 00	
       00 00			
 2D00  00 00 D1 8A 17 18	DB 0, 0, 209, 138, 23, 24, 164, 211, 0, 0, 0, 0
				, 0, 0, 0, 0, 0, 0, 0, 17
       A4 D3 00 00 00 00	
       00 00 00 00 00 00	
       00 11			
 2D14  7D 36 35 36 37 C6	DB 125, 54, 53, 54, 55, 198, 0, 0, 0, 0, 0, 0, 
				0, 0, 198, 125, 54, 53, 53, 54
       00 00 00 00 00 00	
       00 00 C6 7D 36 35	
       35 36			
 2D28  7F 00 00 00 00 00	DB 127, 0, 0, 0, 0, 0, 0, 0, 0, 0, 0, 17, 163, 
				28, 30, 30, 90, 23, 17, 0
       00 00 00 00 00 11	
       A3 1C 1E 1E 5A 17	
       11 00			
 2D3C  00 00 00 00 00 00	DB 0, 0, 0, 0, 0, 0, 0, 0, 0, 17, 125, 54, 53, 
				54, 55, 198, 0, 0, 0, 0
       00 00 00 11 7D 36	
       35 36 37 C6 00 00	
       00 00			
 2D50  00 00 00 00 C6 7D	DB 0, 0, 0, 0, 198, 125, 54, 53, 53, 54, 125, 1
				98, 17, 0, 0, 0, 0, 0, 0, 0
       36 35 35 36 7D C6	
       11 00 00 00 00 00	
       00 00			
 2D64  00 11 AC 66 1E 0F	DB 0, 17, 172, 102, 30, 15, 101, 24, 17, 0, 0, 
				0, 0, 0, 0, 0, 0, 17, 198, 126
       65 18 11 00 00 00	
       00 00 00 00 00 11	
       C6 7E			
 2D78  36 36 35 36 37 C6	DB 54, 54, 53, 54, 55, 198, 0, 0, 0, 0, 0, 0, 0
				, 0, 199, 125, 54, 54, 54, 54
       00 00 00 00 00 00	
       00 00 C7 7D 36 36	
       36 36			
 2D8C  36 36 7E C7 00 00	DB 54, 54, 126, 199, 0, 0, 0, 0, 0, 0, 0, 0, 12
				6, 54, 53, 53, 54, 126, 0, 0
       00 00 00 00 00 00	
       7E 36 35 35 36 7E	
       00 00			
Microsoft (R) Macro Assembler Version 5.10                  12/6/19 16:06:45
                                                             Page     1-79


 2DA0  00 00 00 00 00 00	DB 0, 0, 0, 0, 0, 0, 17, 126, 54, 54, 54, 54, 5
				4, 54, 55, 198, 0, 0, 0, 0
       11 7E 36 36 36 36	
       36 36 37 C6 00 00	
       00 00			
 2DB4  14 D2 11 00 C6 37	DB 20, 210, 17, 0, 198, 55, 54, 54, 55, 126, 12
				6, 126, 126, 199, 0, 0, 0, 0, 0, 0
       36 36 37 7E 7E 7E	
       7E C7 00 00 00 00	
       00 00			
 2DC8  00 00 7E 36 35 35	DB 0, 0, 126, 54, 53, 53, 54, 126, 0, 0, 0, 0, 
				0, 0, 0, 0, 0, 198, 55, 55
       36 7E 00 00 00 00	
       00 00 00 00 00 C6	
       37 37			
 2DDC  37 37 36 36 37 C6	DB 55, 55, 54, 54, 55, 198, 0, 17, 210, 20, 29,
				 28, 23, 18, 199, 126, 55, 125, 200, 184
       00 11 D2 14 1D 1C	
       17 12 C7 7E 37 7D	
       C8 B8			
 2DF0  B8 11 11 00 00 00	DB 184, 17, 17, 0, 0, 0, 17, 0, 0, 0, 0, 17, 17
				3, 103, 30, 30, 102, 23, 17, 0
       11 00 00 00 00 11	
       AD 67 1E 1E 66 17	
       11 00			
 2E04  00 00 11 11 00 00	DB 0, 0, 17, 17, 0, 0, 0, 0, 17, 18, 17, 200, 1
				26, 125, 127, 176, 17, 163, 28, 29
       00 00 11 12 11 C8	
       7E 7D 7F B0 11 A3	
       1C 1D			
 2E18  1E 0F 07 EB 00 11	DB 30, 15, 7, 235, 0, 17, 198, 8, 164, 65, 65, 
				6, 186, 17, 17, 198, 126, 126, 17, 0
       C6 08 A4 41 41 06	
       BA 11 11 C6 7E 7E	
       11 00			
 2E2C  00 11 18 1E 0F 0F	DB 0, 17, 24, 30, 15, 15, 30, 24, 17, 0, 0, 17,
				 126, 126, 198, 0, 0, 186, 139, 65
       1E 18 11 00 00 11	
       7E 7E C6 00 00 BA	
       8B 41			
 2E40  41 A4 08 DF 11 00	DB 65, 164, 8, 223, 17, 0, 17, 24, 15, 30, 30, 
				30, 24, 18, 0, 0, 18, 23, 29, 15
       11 18 0F 1E 1E 1E	
       18 12 00 00 12 17	
       1D 0F			
 2E54  0F 1C 17 13 C6 7E	DB 15, 28, 23, 19, 198, 126, 55, 126, 17, 0, 0,
				 17, 23, 30, 15, 15, 30, 24, 17, 0
       37 7E 11 00 00 11	
       17 1E 0F 0F 1E 18	
       11 00			
 2E68  00 11 7E 7D 7E C7	DB 0, 17, 126, 125, 126, 199, 18, 163, 28, 15, 
				15, 29, 24, 223, 0, 0, 17, 23, 29, 30
       12 A3 1C 0F 0F 1D	
       18 DF 00 00 11 17	
Microsoft (R) Macro Assembler Version 5.10                  12/6/19 16:06:45
                                                             Page     1-80


       1D 1E			
 2E7C  17 16 D2 11 00 B0	DB 23, 22, 210, 17, 0, 176, 126, 79, 101, 30, 1
				00, 101, 78, 54, 125, 126, 126, 198, 0, 0
       7E 4F 65 1E 64 65	
       4E 36 7D 7E 7E C6	
       00 00			
 2E90  00 11 17 1D 0F 0F	DB 0, 17, 23, 29, 15, 15, 30, 23, 0, 0, 0, 0, 1
				7, 198, 126, 126, 125, 79, 101, 100
       1E 17 00 00 00 00	
       11 C6 7E 7E 7D 4F	
       65 64			
 2EA4  64 65 4E 7D C7 00	DB 100, 101, 78, 125, 199, 0, 0, 209, 22, 24, 1
				7, 0, 0, 0, 199, 126, 55, 54, 53, 78
       00 D1 16 18 11 00	
       00 00 C7 7E 37 36	
       35 4E			
 2EB8  4E 35 36 36 7D 7F	DB 78, 53, 54, 54, 125, 127, 17, 0, 0, 0, 0, 17
				, 23, 29, 15, 15, 29, 23, 0, 0
       11 00 00 00 00 11	
       17 1D 0F 0F 1D 17	
       00 00			
 2ECC  00 00 00 11 C6 7E	DB 0, 0, 0, 17, 198, 126, 54, 54, 53, 78, 78, 5
				3, 54, 54, 126, 199, 0, 0, 0, 17
       36 36 35 4E 4E 35	
       36 36 7E C7 00 00	
       00 11			
 2EE0  12 12 11 00 11 C6	DB 18, 18, 17, 0, 17, 198, 126, 126, 127, 127, 
				127, 127, 126, 126, 198, 0, 0, 199, 126, 126
       7E 7E 7F 7F 7F 7F	
       7E 7E C6 00 00 C7	
       7E 7E			
 2EF4  B0 00 A3 1D 0F 0F	DB 176, 0, 163, 29, 15, 15, 29, 163, 0, 0, 199,
				 126, 125, 125, 126, 126, 126, 127, 127, 127
       1D A3 00 00 C7 7E	
       7D 7D 7E 7E 7E 7F	
       7F 7F			
 2F08  7F 7F 7E 7E C6 11	DB 127, 127, 126, 126, 198, 17, 0, 17, 18, 18, 
				245, 245, 18, 17, 0, 0, 0, 0, 0, 0
       00 11 12 12 F5 F5	
       12 11 00 00 00 00	
       00 00			
 2F1C  00 00 00 00 00 00	DB 0, 0, 0, 0, 0, 0, 0, 126, 54, 54, 127, 17, 1
				62, 29, 15, 15, 29, 162, 0, 176
       00 7E 36 36 7F 11	
       A2 1D 0F 0F 1D A2	
       00 B0			
 2F30  01 36 35 36 36 7E	DB 1, 54, 53, 54, 54, 126, 17, 0, 0, 0, 0, 0, 0
				, 0, 0, 0, 17, 18, 245, 245
       11 00 00 00 00 00	
       00 00 00 00 11 12	
       F5 F5			
 2F44  F5 F5 12 11 11 C6	DB 245, 245, 18, 17, 17, 198, 126, 126, 126, 12
				6, 126, 126, 126, 126, 198, 0, 0, 198, 125, 125
       7E 7E 7E 7E 7E 7E	
Microsoft (R) Macro Assembler Version 5.10                  12/6/19 16:06:45
                                                             Page     1-81


       7E 7E C6 00 00 C6	
       7D 7D			
 2F58  C7 00 A2 1D 0F 0F	DB 199, 0, 162, 29, 15, 15, 29, 164, 0, 0, 199,
				 126, 3, 3, 125, 126, 126, 126, 126, 126
       1D A4 00 00 C7 7E	
       03 03 7D 7E 7E 7E	
       7E 7E			
 2F6C  7E 7E 7E 7E C6 11	DB 126, 126, 126, 126, 198, 17, 17, 18, 245, 24
				5, 245, 245, 18, 17, 198, 125, 54, 54, 54, 54
       11 12 F5 F5 F5 F5	
       12 11 C6 7D 36 36	
       36 36			
 2F80  36 36 36 36 7D C6	DB 54, 54, 54, 54, 125, 198, 0, 0, 17, 17, 0, 0
				, 22, 29, 15, 15, 30, 23, 0, 0
       00 00 11 11 00 00	
       16 1D 0F 0F 1E 17	
       00 00			
 2F94  00 11 11 11 C6 7D	DB 0, 17, 17, 17, 198, 125, 54, 54, 54, 54, 54,
				 54, 54, 54, 125, 198, 17, 18, 245, 245
       36 36 36 36 36 36	
       36 36 7D C6 11 12	
       F5 F5			
 2FA8  F5 F5 F5 F5 12 C5	DB 245, 245, 245, 245, 18, 197, 126, 125, 125, 
				126, 126, 125, 125, 126, 126, 199, 17, 17, 18, 
				18
       7E 7D 7D 7E 7E 7D	
       7D 7E 7E C7 11 11	
       12 12			
 2FBC  11 11 17 1D 0F 0F	DB 17, 17, 23, 29, 15, 15, 30, 24, 17, 17, 18, 
				18, 17, 0, 0, 198, 126, 125, 125, 126
       1E 18 11 11 12 12	
       11 00 00 C6 7E 7D	
       7D 7E			
 2FD0  7E 7D 7D 7E 7E DF	DB 126, 125, 125, 126, 126, 223, 18, 245, 245, 
				245, 245, 245, 245, 245, 245, 18, 17, 0, 17, 17
       12 F5 F5 F5 F5 F5	
       F5 F5 F5 12 11 00	
       11 11			
 2FE4  11 11 11 11 00 11	DB 17, 17, 17, 17, 0, 17, 17, 18, 245, 245, 17,
				 17, 24, 30, 15, 15, 30, 24, 17, 17
       11 12 F5 F5 11 11	
       18 1E 0F 0F 1E 18	
       11 11			
 2FF8  F5 F5 12 11 11 00	DB 245, 245, 18, 17, 17, 0, 17, 17, 17, 17, 17,
				 0, 0, 17, 18, 222, 245, 245, 245, 245
       11 11 11 11 11 00	
       00 11 12 DE F5 F5	
       F5 F5			
 300C  F5 F5 F5 F5 F5 F5	DB 245, 245, 245, 245, 245, 245, 18, 18, 18, 18
				, 18, 18, 18, 18, 18, 18, 245, 245, 245, 18
       12 12 12 12 12 12	
       12 12 12 12 F5 F5	
       F5 12			
 3020  11 11 18 1E 0F 0F	DB 17, 17, 24, 30, 15, 15, 15, 25, 18, 17, 18, 
Microsoft (R) Macro Assembler Version 5.10                  12/6/19 16:06:45
                                                             Page     1-82


				245, 245, 245, 18, 18, 18, 18, 18, 18
       0F 19 12 11 12 F5	
       F5 F5 12 12 12 12	
       12 12			
 3034  12 12 12 12 DE F5	DB 18, 18, 18, 18, 222, 245, 245, 245, 245, 245
				, 245, 245, 245, 245, 245, 245, 245, 245, 245, 
				245
       F5 F5 F5 F5 F5 F5	
       F5 F5 F5 F5 F5 F5	
       F5 F5			
 3048  F5 F5 F5 F5 F5 F5	DB 245, 245, 245, 245, 245, 245, 245, 245, 245,
				 245, 18, 17, 22, 28, 15, 15, 29, 23, 17, 18
       F5 F5 F5 F5 12 11	
       16 1C 0F 0F 1D 17	
       11 12			
 305C  F5 F5 F5 F5 F5 F5	DB 245, 245, 245, 245, 245, 245, 245, 245, 245,
				 245, 245, 245, 245, 245, 245, 245, 245, 245, 2
				45, 245
       F5 F5 F5 F5 F5 F5	
       F5 F5 F5 F5 F5 F5	
       F5 F5			
 3070  F5 F5 F5 F5 F5 F5	DB 245, 245, 245, 245, 245, 245, 245, 245, 245,
				 245, 245, 245, 245, 245, 245, 245, 245, 245, 2
				45, 245
       F5 F5 F5 F5 F5 F5	
       F5 F5 F5 F5 F5 F5	
       F5 F5			
 3084  F5 12 12 14 16 17	DB 245, 18, 18, 20, 22, 23, 8, 18, 18, 245, 245
				, 245, 245, 245, 245, 245, 245, 245, 245, 245
       08 12 12 F5 F5 F5	
       F5 F5 F5 F5 F5 F5	
       F5 F5			
 3098  F5 F5 F5 F5 F5 F5	DB 245, 245, 245, 245, 245, 245, 245, 245, 245,
				 245, 245, 245, 245, 245, 245, 245, 245, 245, 2
				45, 245
       F5 F5 F5 F5 F5 F5	
       F5 F5 F5 F5 F5 F5	
       F5 F5			
 30AC  F5 F5 F5 F5 F5 F5	DB 245, 245, 245, 245, 245, 245, 245, 245, 245,
				 245, 245, 245, 18, 17, 0, 0, 17, 18, 245, 245
       F5 F5 F5 F5 F5 F5	
       12 11 00 00 11 12	
       F5 F5			
 30C0  F5 F5 F5 F5 F5 F5	DB 245, 245, 245, 245, 245, 245, 245, 245, 245,
				 245, 245, 245, 245, 245, 245, 245, 245, 245, 2
				45, 245
       F5 F5 F5 F5 F5 F5	
       F5 F5 F5 F5 F5 F5	
       F5 F5			
				
				
 30D4  F5 F5 F5 F5 12 11	BITMAP_UP_PLAYER1  DB 245, 245, 245, 245, 18, 1
				7, 0, 0, 0, 0, 0, 0, 0, 0, 0, 0, 17, 18, 245, 2
				45
Microsoft (R) Macro Assembler Version 5.10                  12/6/19 16:06:45
                                                             Page     1-83


       00 00 00 00 00 00	
       00 00 00 00 11 12	
       F5 F5			
 30E8  F5 F5 12 11 00 00	DB 245, 245, 18, 17, 0, 0, 17, 18, 245, 245, 24
				5, 245, 18, 17, 0, 0, 0, 0, 0, 0
       11 12 F5 F5 F5 F5	
       12 11 00 00 00 00	
       00 00			
 30FC  00 00 00 00 11 12	DB 0, 0, 0, 0, 17, 18, 245, 245, 245, 245, 245,
				 245, 245, 245, 18, 186, 186, 113, 113, 186
       F5 F5 F5 F5 F5 F5	
       F5 F5 12 BA BA 71	
       71 BA			
 3110  BA 71 71 BA 11 00	DB 186, 113, 113, 186, 17, 0, 0, 17, 18, 245, 2
				45, 18, 18, 20, 22, 8, 19, 18, 18, 245
       00 11 12 F5 F5 12	
       12 14 16 08 13 12	
       12 F5			
 3124  F5 12 11 00 11 B9	DB 245, 18, 17, 0, 17, 185, 186, 113, 113, 186,
				 186, 113, 113, 113, 186, 18, 222, 245, 245, 24
				5
       BA 71 71 BA BA 71	
       71 71 BA 12 DE F5	
       F5 F5			
 3138  F5 F6 12 11 BA 72	DB 245, 246, 18, 17, 186, 114, 6, 41, 6, 6, 6, 
				6, 6, 6, 114, 185, 0, 17, 17, 17
       06 29 06 06 06 06	
       06 06 72 B9 00 11	
       11 11			
 314C  11 11 16 1C 0F 1E	DB 17, 17, 22, 28, 15, 30, 27, 8, 17, 17, 17, 1
				7, 17, 0, 185, 114, 6, 41, 6, 6
       1B 08 11 11 11 11	
       11 00 B9 72 06 29	
       06 06			
 3160  06 06 29 06 72 12	DB 6, 6, 41, 6, 114, 18, 17, 18, 246, 245, 245,
				 246, 18, 17, 185, 114, 6, 6, 6, 6
       11 12 F6 F5 F5 F6	
       12 11 B9 72 06 06	
       06 06			
 3174  06 06 06 06 06 72	DB 6, 6, 6, 6, 6, 114, 186, 185, 17, 0, 0, 17, 
				25, 15, 15, 15, 30, 24, 17, 0
       BA B9 11 00 00 11	
       19 0F 0F 0F 1E 18	
       11 00			
 3188  B8 B9 11 00 B9 72	DB 184, 185, 17, 0, 185, 114, 6, 6, 6, 6, 6, 6,
				 6, 6, 114, 185, 17, 18, 246, 245
       06 06 06 06 06 06	
       06 06 72 B9 11 12	
       F6 F5			
 319C  F5 F6 12 11 11 B9	DB 245, 246, 18, 17, 17, 185, 186, 113, 186, 18
				5, 185, 185, 186, 186, 113, 114, 6, 6, 114, 184
       BA 71 BA B9 B9 B9	
       BA BA 71 72 06 06	
       72 B8			
Microsoft (R) Macro Assembler Version 5.10                  12/6/19 16:06:45
                                                             Page     1-84


 31B0  00 00 18 1E 0F 0F	DB 0, 0, 24, 30, 15, 15, 30, 23, 17, 184, 113, 
				114, 186, 0, 0, 17, 186, 113, 186, 185
       1E 17 11 B8 71 72	
       BA 00 00 11 BA 71	
       BA B9			
 31C4  B9 BA 71 BA B9 11	DB 185, 186, 113, 186, 185, 17, 0, 18, 246, 245
				, 245, 18, 17, 0, 0, 17, 185, 184, 0, 0
       00 12 F6 F5 F5 12	
       11 00 00 11 B9 B8	
       00 00			
 31D8  00 00 00 B9 BA 72	DB 0, 0, 0, 185, 186, 114, 6, 41, 6, 184, 0, 0,
				 23, 29, 15, 15, 29, 172, 17, 184
       06 29 06 B8 00 00	
       17 1D 0F 0F 1D AC	
       11 B8			
 31EC  06 06 BA 00 00 00	DB 6, 6, 186, 0, 0, 0, 17, 184, 0, 0, 0, 0, 185
				, 185, 17, 0, 0, 17, 18, 222
       11 B8 00 00 00 00	
       B9 B9 11 00 00 11	
       12 DE			
 3200  11 11 00 00 11 B9	DB 17, 17, 0, 0, 17, 185, 113, 113, 113, 185, 1
				85, 113, 113, 113, 113, 113, 114, 113, 185, 17
       71 71 71 B9 B9 71	
       71 71 71 71 72 71	
       B9 11			
 3214  00 00 16 1D 0F 0F	DB 0, 0, 22, 29, 15, 15, 29, 173, 0, 0, 185, 18
				6, 17, 0, 0, 185, 113, 113, 113, 185
       1D AD 00 00 B9 BA	
       11 00 00 B9 71 71	
       71 B9			
 3228  B9 71 71 72 BA 11	DB 185, 113, 113, 114, 186, 17, 0, 0, 17, 17, 1
				7, 17, 0, 0, 17, 113, 6, 42, 65, 66
       00 00 11 11 11 11	
       00 00 11 71 06 2A	
       41 42			
 323C  42 40 2A 06 71 B9	DB 66, 64, 42, 6, 113, 185, 17, 0, 0, 0, 0, 0, 
				22, 29, 15, 15, 29, 23, 0, 0
       11 00 00 00 00 00	
       16 1D 0F 0F 1D 17	
       00 00			
 3250  00 00 11 B9 71 72	DB 0, 0, 17, 185, 113, 114, 6, 42, 65, 66, 66, 
				65, 41, 6, 185, 17, 0, 0, 17, 17
       06 2A 41 42 42 41	
       29 06 B9 11 00 00	
       11 11			
 3264  1B 19 F5 00 00 11	DB 27, 25, 245, 0, 0, 17, 137, 7, 30, 15, 15, 3
				0, 25, 114, 113, 113, 114, 186, 17, 0
       89 07 1E 0F 0F 1E	
       19 72 71 71 72 BA	
       11 00			
 3278  00 00 16 1D 0F 0F	DB 0, 0, 22, 29, 15, 15, 30, 23, 0, 0, 0, 17, 1
				13, 6, 6, 6, 139, 7, 30, 15
       1E 17 00 00 00 11	
       71 06 06 06 8B 07	
Microsoft (R) Macro Assembler Version 5.10                  12/6/19 16:06:45
                                                             Page     1-85


       1E 0F			
 328C  0F 1E 18 B9 00 00	DB 15, 30, 24, 185, 0, 0, 17, 8, 25, 27, 30, 15
				, 23, 17, 0, 0, 18, 25, 30, 15
       11 08 19 1B 1E 0F	
       17 11 00 00 12 19	
       1E 0F			
 32A0  0F 65 AC 11 B8 71	DB 15, 101, 172, 17, 184, 113, 6, 114, 185, 0, 
				0, 0, 22, 29, 15, 15, 30, 23, 0, 0
       06 72 B9 00 00 00	
       16 1D 0F 0F 1E 17	
       00 00			
 32B4  00 B9 06 06 71 BA	DB 0, 185, 6, 6, 113, 186, 221, 24, 101, 15, 15
				, 101, 172, 17, 0, 0, 18, 7, 15, 30
       DD 18 65 0F 0F 65	
       AC 11 00 00 12 07	
       0F 1E			
 32C8  1E 0F 18 11 00 00	DB 30, 15, 24, 17, 0, 0, 185, 8, 172, 24, 24, 1
				49, 198, 0, 0, 185, 113, 186, 0, 0
       B9 08 AC 18 18 95	
       C6 00 00 B9 71 BA	
       00 00			
 32DC  00 00 16 1D 0F 0F	DB 0, 0, 22, 29, 15, 15, 29, 23, 0, 0, 0, 17, 1
				85, 186, 185, 0, 0, 197, 149, 172
       1D 17 00 00 00 11	
       B9 BA B9 00 00 C5	
       95 AC			
 32F0  AC AC 89 B9 B8 00	DB 172, 172, 137, 185, 184, 0, 19, 7, 15, 30, 3
				0, 28, 173, 17, 184, 113, 6, 113, 185, 0
       13 07 0F 1E 1E 1C	
       AD 11 B8 71 06 71	
       B9 00			
 3304  11 00 00 00 00 00	DB 17, 0, 0, 0, 0, 0, 0, 0, 0, 0, 0, 0, 22, 29,
				 15, 15, 29, 23, 0, 0
       00 00 00 00 00 00	
       16 1D 0F 0F 1D 17	
       00 00			
 3318  00 00 00 00 00 00	DB 0, 0, 0, 0, 0, 0, 0, 0, 0, 0, 0, 185, 114, 6
				, 113, 184, 18, 172, 28, 30
       00 00 00 00 00 B9	
       72 06 71 B8 12 AC	
       1C 1E			
 332C  18 AE C6 00 B9 06	DB 24, 174, 198, 0, 185, 6, 41, 6, 113, 184, 18
				4, 184, 184, 0, 0, 0, 0, 0, 0, 0
       29 06 71 B8 B8 B8	
       B8 00 00 00 00 00	
       00 00			
 3340  00 00 17 1E 0F 0F	DB 0, 0, 23, 30, 15, 15, 30, 23, 0, 0, 0, 0, 0,
				 0, 0, 0, 0, 184, 184, 184
       1E 17 00 00 00 00	
       00 00 00 00 00 B8	
       B8 B8			
 3354  B8 71 06 29 06 B9	DB 184, 113, 6, 41, 6, 185, 17, 223, 174, 24, 1
				7, 0, 0, 0, 185, 6, 41, 41, 41, 6
       11 DF AE 18 11 00	
Microsoft (R) Macro Assembler Version 5.10                  12/6/19 16:06:45
                                                             Page     1-86


       00 00 B9 06 29 29	
       29 06			
 3368  06 71 B9 00 00 00	DB 6, 113, 185, 0, 0, 0, 0, 0, 0, 0, 0, 0, 24, 
				30, 15, 15, 30, 24, 0, 0
       00 00 00 00 00 00	
       18 1E 0F 0F 1E 18	
       00 00			
 337C  00 00 00 00 00 00	DB 0, 0, 0, 0, 0, 0, 0, 185, 113, 6, 6, 41, 41,
				 41, 6, 185, 0, 0, 0, 17
       00 B9 71 06 06 29	
       29 29 06 B9 00 00	
       00 11			
 3390  00 00 00 00 B9 06	DB 0, 0, 0, 0, 185, 6, 41, 42, 42, 41, 6, 114, 
				185, 0, 0, 0, 0, 0, 0, 0
       29 2A 2A 29 06 72	
       B9 00 00 00 00 00	
       00 00			
 33A4  00 11 07 0F 0F 0F	DB 0, 17, 7, 15, 15, 15, 30, 24, 17, 0, 0, 0, 0
				, 0, 0, 0, 0, 185, 114, 6
       1E 18 11 00 00 00	
       00 00 00 00 00 B9	
       72 06			
 33B8  29 2A 2A 29 72 B9	DB 41, 42, 42, 41, 114, 185, 0, 0, 0, 0, 0, 0, 
				0, 0, 185, 6, 42, 42, 42, 6
       00 00 00 00 00 00	
       00 00 B9 06 2A 2A	
       2A 06			
 33CC  BA 11 00 00 00 00	DB 186, 17, 0, 0, 0, 0, 0, 0, 0, 0, 0, 17, 25, 
				30, 15, 15, 29, 23, 17, 0
       00 00 00 00 00 11	
       19 1E 0F 0F 1D 17	
       11 00			
 33E0  00 00 00 00 00 00	DB 0, 0, 0, 0, 0, 0, 0, 0, 17, 114, 41, 42, 42,
				 41, 114, 185, 0, 0, 0, 0
       00 00 11 72 29 2A	
       2A 29 72 B9 00 00	
       00 00			
 33F4  00 00 00 00 B9 06	DB 0, 0, 0, 0, 185, 6, 42, 42, 42, 114, 0, 0, 0
				, 0, 0, 0, 0, 0, 0, 0
       2A 2A 2A 72 00 00	
       00 00 00 00 00 00	
       00 00			
 3408  00 11 F6 AC 18 18	DB 0, 17, 246, 172, 24, 24, 173, 247, 0, 0, 0, 
				0, 0, 0, 0, 0, 0, 0, 0, 186
       AD F7 00 00 00 00	
       00 00 00 00 00 00	
       00 BA			
 341C  06 2A 2A 29 72 B9	DB 6, 42, 42, 41, 114, 185, 0, 0, 0, 0, 0, 0, 0
				, 0, 185, 6, 42, 42, 42, 114
       00 00 00 00 00 00	
       00 00 B9 06 2A 2A	
       2A 72			
 3430  00 00 00 00 00 00	DB 0, 0, 0, 0, 0, 0, 0, 0, 0, 0, 0, 0, 0, 0, 0,
				 0, 0, 0, 0, 0
Microsoft (R) Macro Assembler Version 5.10                  12/6/19 16:06:45
                                                             Page     1-87


       00 00 00 00 00 00	
       00 00 00 00 00 00	
       00 00			
 3444  00 00 00 00 00 00	DB 0, 0, 0, 0, 0, 0, 0, 0, 0, 186, 6, 42, 42, 4
				1, 114, 185, 0, 0, 0, 0
       00 00 00 BA 06 2A	
       2A 29 72 B9 00 00	
       00 00			
 3458  00 00 00 00 BA 06	DB 0, 0, 0, 0, 186, 6, 41, 41, 6, 186, 0, 0, 0,
				 0, 0, 185, 113, 114, 186, 17
       29 29 06 BA 00 00	
       00 00 00 B9 71 72	
       BA 11			
 346C  00 00 11 B9 71 B9	DB 0, 0, 17, 185, 113, 185, 184, 0, 0, 0, 185, 
				113, 114, 186, 17, 0, 0, 0, 0, 17
       B8 00 00 00 B9 71	
       72 BA 11 00 00 00	
       00 11			
 3480  BA 06 29 29 06 B9	DB 186, 6, 41, 41, 6, 185, 0, 0, 0, 0, 0, 0, 0,
				 0, 185, 6, 6, 6, 185, 0
       00 00 00 00 00 00	
       00 00 B9 06 06 06	
       B9 00			
 3494  00 00 00 00 BA 06	DB 0, 0, 0, 0, 186, 6, 41, 42, 6, 113, 0, 0, 18
				5, 6, 41, 6, 113, 185, 0, 185
       29 2A 06 71 00 00	
       B9 06 29 06 71 B9	
       00 B9			
 34A8  06 2A 2A 06 72 B9	DB 6, 42, 42, 6, 114, 185, 0, 0, 0, 0, 0, 185, 
				6, 41, 6, 185, 0, 0, 0, 0
       00 00 00 00 00 B9	
       06 29 06 B9 00 00	
       00 00			
 34BC  08 F5 11 00 B9 72	DB 8, 245, 17, 0, 185, 114, 6, 114, 0, 0, 0, 0,
				 17, 186, 6, 41, 42, 42, 42, 6
       06 72 00 00 00 00	
       11 BA 06 29 2A 2A	
       2A 06			
 34D0  BA B9 BA 72 06 72	DB 186, 185, 186, 114, 6, 114, 113, 186, 186, 1
				14, 41, 42, 42, 42, 6, 114, 185, 0, 0, 0
       71 BA BA 72 29 2A	
       2A 2A 06 72 B9 00	
       00 00			
 34E4  00 11 72 06 06 B9	DB 0, 17, 114, 6, 6, 185, 17, 17, 245, 8, 29, 2
				7, 150, 17, 184, 113, 6, 114, 17, 0
       11 11 F5 08 1D 1B	
       96 11 B8 71 06 72	
       11 00			
 34F8  00 00 BA 06 29 29	DB 0, 0, 186, 6, 41, 41, 41, 42, 42, 41, 6, 6, 
				113, 185, 17, 17, 185, 113, 6, 6
       29 2A 2A 29 06 06	
       71 B9 11 11 B9 71	
       06 06			
 350C  06 29 2A 2A 2A 29	DB 6, 41, 42, 42, 42, 41, 114, 185, 0, 0, 0, 17
Microsoft (R) Macro Assembler Version 5.10                  12/6/19 16:06:45
                                                             Page     1-88


				, 114, 6, 113, 185, 18, 173, 27, 29
       72 B9 00 00 00 11	
       72 06 71 B9 12 AD	
       1B 1D			
 3520  1E 0F 18 11 B8 71	DB 30, 15, 24, 17, 184, 113, 6, 114, 17, 0, 0, 
				0, 113, 41, 42, 41, 41, 41, 42, 42
       06 72 11 00 00 00	
       71 29 2A 29 29 29	
       2A 2A			
 3534  2A 29 72 11 00 00	DB 42, 41, 114, 17, 0, 0, 186, 6, 6, 6, 113, 11
				3, 6, 42, 42, 42, 6, 186, 0, 0
       BA 06 06 06 71 71	
       06 2A 2A 2A 06 BA	
       00 00			
 3548  00 B9 72 06 71 B9	DB 0, 185, 114, 6, 113, 185, 244, 7, 15, 30, 30
				, 15, 24, 17, 184, 113, 6, 114, 17, 0
       F4 07 0F 1E 1E 0F	
       18 11 B8 71 06 72	
       11 00			
 355C  00 00 72 29 2A 29	DB 0, 0, 114, 41, 42, 41, 41, 41, 41, 41, 42, 4
				1, 6, 114, 114, 114, 6, 41, 41, 114
       29 29 29 29 2A 29	
       06 72 72 72 06 29	
       29 72			
 3570  00 00 71 29 2A 2A	DB 0, 0, 113, 41, 42, 42, 6, 113, 0, 0, 0, 185,
				 114, 6, 113, 185, 19, 25, 15, 30
       06 71 00 00 00 B9	
       72 06 71 B9 13 19	
       0F 1E			
 3584  1B 19 F4 11 B8 71	DB 27, 25, 244, 17, 184, 113, 6, 114, 17, 0, 17
				, 186, 6, 41, 42, 41, 41, 4, 112, 184
       06 72 11 00 11 BA	
       06 29 2A 29 29 04	
       70 B8			
 3598  B9 72 06 2A 2A 2A	DB 185, 114, 6, 42, 42, 42, 41, 41, 6, 114, 185
				, 0, 185, 114, 6, 41, 41, 6, 186, 0
       29 29 06 72 B9 00	
       B9 72 06 29 29 06	
       BA 00			
 35AC  00 11 72 06 04 B9	DB 0, 17, 114, 6, 4, 185, 17, 150, 25, 7, 17, 1
				7, 0, 0, 185, 6, 6, 113, 0, 17
       11 96 19 07 11 11	
       00 00 B9 06 06 71	
       00 11			
 35C0  72 06 29 29 29 29	DB 114, 6, 41, 41, 41, 41, 6, 185, 0, 0, 0, 0, 
				114, 42, 42, 42, 41, 41, 41, 41
       06 B9 00 00 00 00	
       72 2A 2A 2A 29 29	
       29 29			
 35D4  29 72 11 00 B9 06	DB 41, 114, 17, 0, 185, 6, 41, 42, 6, 185, 0, 0
				, 114, 6, 6, 185, 0, 0, 17, 17
       29 2A 06 B9 00 00	
       72 06 06 B9 00 00	
       11 11			
Microsoft (R) Macro Assembler Version 5.10                  12/6/19 16:06:45
                                                             Page     1-89


 35E8  00 00 00 00 BA 06	DB 0, 0, 0, 0, 186, 6, 6, 113, 0, 185, 6, 42, 4
				2, 41, 6, 6, 136, 20, 220, 223
       06 71 00 B9 06 2A	
       2A 29 06 06 88 14	
       DC DF			
 35FC  11 00 B9 72 06 06	DB 17, 0, 185, 114, 6, 6, 41, 41, 41, 42, 42, 6
				, 185, 0, 0, 113, 41, 42, 42, 113
       29 29 29 2A 2A 06	
       B9 00 00 71 29 2A	
       2A 71			
 3610  00 00 72 06 06 B9	DB 0, 0, 114, 6, 6, 185, 0, 0, 0, 0, 0, 0, 0, 1
				7, 113, 6, 6, 186, 0, 185
       00 00 00 00 00 00	
       00 11 71 06 06 BA	
       00 B9			
 3624  06 2A 2A 06 71 BA	DB 6, 42, 42, 6, 113, 186, 20, 24, 102, 28, 12,
				 113, 17, 0, 185, 114, 6, 41, 41, 42
       14 18 66 1C 0C 71	
       11 00 B9 72 06 29	
       29 2A			
 3638  2A 06 B9 00 00 71	DB 42, 6, 185, 0, 0, 113, 41, 42, 42, 113, 0, 0
				, 114, 6, 6, 186, 0, 0, 0, 0
       29 2A 2A 71 00 00	
       72 06 06 BA 00 00	
       00 00			
 364C  00 00 00 11 BA 06	DB 0, 0, 0, 17, 186, 6, 6, 186, 0, 185, 6, 42, 
				42, 6, 185, 0, 197, 24, 15, 92
       06 BA 00 B9 06 2A	
       2A 06 B9 00 C5 18	
       0F 5C			
 3660  42 06 B8 00 00 BA	DB 66, 6, 184, 0, 0, 186, 6, 41, 41, 42, 42, 6,
				 185, 0, 0, 113, 41, 42, 42, 113
       06 29 29 2A 2A 06	
       B9 00 00 71 29 2A	
       2A 71			
 3674  00 00 72 06 06 71	DB 0, 0, 114, 6, 6, 113, 0, 0, 0, 0, 0, 0, 0, 1
				7, 113, 6, 6, 113, 0, 17
       00 00 00 00 00 00	
       00 11 71 06 06 71	
       00 11			
 3688  06 2A 2A 06 B9 00	DB 6, 42, 42, 6, 185, 0, 17, 8, 65, 66, 42, 6, 
				184, 0, 0, 113, 6, 41, 41, 41
       11 08 41 42 2A 06	
       B8 00 00 71 06 29	
       29 29			
 369C  29 06 B9 00 00 72	DB 41, 6, 185, 0, 0, 114, 41, 42, 41, 113, 0, 0
				, 114, 41, 6, 186, 0, 0, 0, 0
       29 2A 29 71 00 00	
       72 29 06 BA 00 00	
       00 00			
 36B0  00 00 00 11 72 06	DB 0, 0, 0, 17, 114, 6, 6, 114, 17, 0, 113, 6, 
				41, 41, 114, 185, 17, 185, 114, 6
       06 72 11 00 71 06	
       29 29 72 B9 11 B9	
Microsoft (R) Macro Assembler Version 5.10                  12/6/19 16:06:45
                                                             Page     1-90


       72 06			
 36C4  06 71 B9 11 B9 72	DB 6, 113, 185, 17, 185, 114, 41, 41, 41, 6, 6,
				 113, 17, 17, 186, 6, 41, 41, 6, 185
       29 29 29 06 06 71	
       11 11 BA 06 29 29	
       06 B9			
 36D8  00 11 06 29 06 71	DB 0, 17, 6, 41, 6, 113, 0, 0, 0, 0, 0, 0, 0, 1
				7, 113, 6, 6, 114, 17, 0
       00 00 00 00 00 00	
       00 11 71 06 06 72	
       11 00			
 36EC  11 71 06 29 29 06	DB 17, 113, 6, 41, 41, 6, 113, 184, 0, 0, 17, 1
				7, 186, 114, 6, 6, 41, 41, 6, 114
       71 B8 00 00 11 11	
       BA 72 06 06 29 29	
       06 72			
 3700  B9 11 11 71 06 29	DB 185, 17, 17, 113, 6, 41, 41, 6, 186, 0, 0, 1
				7, 6, 41, 6, 113, 0, 0, 0, 0
       29 06 BA 00 00 11	
       06 29 06 71 00 00	
       00 00			
 3714  12 11 00 00 B9 71	DB 18, 17, 0, 0, 185, 113, 114, 113, 17, 0, 0, 
				0, 114, 41, 42, 41, 6, 186, 0, 0
       72 71 11 00 00 00	
       72 29 2A 29 06 BA	
       00 00			
 3728  00 11 72 06 29 29	DB 0, 17, 114, 6, 41, 41, 41, 41, 6, 113, 0, 0,
				 186, 6, 42, 42, 41, 113, 0, 0
       29 29 06 71 00 00	
       BA 06 2A 2A 29 71	
       00 00			
 373C  00 11 71 06 71 B9	DB 0, 17, 113, 6, 113, 185, 0, 0, 17, 18, 27, 2
				5, 245, 0, 0, 0, 17, 17, 0, 0
       00 00 11 12 1B 19	
       F5 00 00 00 11 11	
       00 00			
 3750  00 00 72 2A 2A 2A	DB 0, 0, 114, 42, 42, 42, 41, 6, 114, 186, 186,
				 114, 6, 41, 41, 41, 41, 41, 6, 114
       29 06 72 BA BA 72	
       06 29 29 29 29 29	
       06 72			
 3764  71 71 06 29 2A 2A	DB 113, 113, 6, 41, 42, 42, 41, 113, 0, 0, 0, 0
				, 17, 17, 0, 0, 17, 8, 25, 27
       29 71 00 00 00 00	
       11 11 00 00 11 08	
       19 1B			
 3778  1E 0F 18 11 00 00	DB 30, 15, 24, 17, 0, 0, 0, 0, 0, 0, 0, 0, 113,
				 6, 41, 42, 42, 42, 41, 41
       00 00 00 00 00 00	
       71 06 29 2A 2A 2A	
       29 29			
 378C  29 06 06 06 06 06	DB 41, 6, 6, 6, 6, 6, 6, 6, 6, 6, 41, 41, 41, 4
				2, 42, 41, 6, 186, 0, 0
       06 06 06 06 29 29	
Microsoft (R) Macro Assembler Version 5.10                  12/6/19 16:06:45
                                                             Page     1-91


       29 2A 2A 29 06 BA	
       00 00			
 37A0  00 00 00 00 00 00	DB 0, 0, 0, 0, 0, 0, 246, 7, 15, 30, 30, 15, 24
				, 17, 0, 184, 185, 185, 0, 0
       F6 07 0F 1E 1E 0F	
       18 11 00 B8 B9 B9	
       00 00			
 37B4  00 00 00 BA 06 29	DB 0, 0, 0, 186, 6, 41, 42, 42, 42, 42, 42, 41,
				 41, 6, 6, 6, 6, 6, 41, 41
       2A 2A 2A 2A 2A 29	
       29 06 06 06 06 06	
       29 29			
 37C8  2A 2A 2A 2A 06 72	DB 42, 42, 42, 42, 6, 114, 185, 0, 0, 0, 0, 0, 
				185, 185, 184, 17, 19, 7, 15, 30
       B9 00 00 00 00 00	
       B9 B9 B8 11 13 07	
       0F 1E			
 37DC  1E 1C AD 11 B8 04	DB 30, 28, 173, 17, 184, 4, 41, 6, 186, 0, 0, 0
				, 0, 0, 17, 114, 6, 41, 41, 41
       29 06 BA 00 00 00	
       00 00 11 72 06 29	
       29 29			
 37F0  29 29 29 29 29 29	DB 41, 41, 41, 41, 41, 41, 41, 41, 41, 41, 6, 4
				1, 41, 6, 114, 17, 0, 0, 0, 0
       29 29 29 29 06 29	
       29 06 72 11 00 00	
       00 00			
 3804  00 71 06 29 04 B9	DB 0, 113, 6, 41, 4, 185, 18, 172, 28, 30, 23, 
				150, 198, 17, 185, 6, 42, 42, 6, 185
       12 AC 1C 1E 17 96	
       C6 11 B9 06 2A 2A	
       06 B9			
 3818  00 00 00 00 00 11	DB 0, 0, 0, 0, 0, 17, 186, 113, 113, 114, 6, 41
				, 41, 41, 41, 41, 41, 42, 41, 6
       BA 71 71 72 06 29	
       29 29 29 29 29 2A	
       29 06			
 382C  72 71 71 BA 11 00	DB 114, 113, 113, 186, 17, 0, 0, 0, 0, 0, 186, 
				6, 42, 41, 6, 185, 17, 223, 175, 23
       00 00 00 00 BA 06	
       2A 29 06 B9 11 DF	
       AF 17			
 3840  00 00 00 00 B9 72	DB 0, 0, 0, 0, 185, 114, 6, 41, 6, 113, 185, 0,
				 0, 0, 0, 0, 0, 0, 0, 185
       06 29 06 71 B9 00	
       00 00 00 00 00 00	
       00 B9			
 3854  72 06 06 06 06 06	DB 114, 6, 6, 6, 6, 6, 6, 6, 6, 114, 17, 0, 0, 
				0, 0, 0, 0, 0, 0, 185
       06 06 06 72 11 00	
       00 00 00 00 00 00	
       00 B9			
 3868  72 06 29 06 72 B9	DB 114, 6, 41, 6, 114, 185, 0, 0, 0, 0, 0, 0, 0
				, 0, 0, 185, 186, 113, 113, 113
Microsoft (R) Macro Assembler Version 5.10                  12/6/19 16:06:45
                                                             Page     1-92


       00 00 00 00 00 00	
       00 00 00 B9 BA 71	
       71 71			
 387C  71 72 72 71 B9 00	DB 113, 114, 114, 113, 185, 0, 0, 0, 0, 0, 17, 
				186, 186, 185, 185, 185, 186, 186, 185, 17
       00 00 00 00 11 BA	
       BA B9 B9 B9 BA BA	
       B9 11			
 3890  00 00 00 00 00 B9	DB 0, 0, 0, 0, 0, 185, 113, 114, 113, 113, 113,
				 113, 113, 186, 17, 0, 0, 0, 0, 0
       71 72 71 71 71 71	
       71 BA 11 00 00 00	
       00 00			
 38A4  00 00 00 00 00 00	DB 0, 0, 0, 0, 0, 0, 0, 0, 0, 186, 6, 41, 42, 6
				, 114, 185, 0, 0, 0, 0
       00 00 00 BA 06 29	
       2A 06 72 B9 00 00	
       00 00			
 38B8  00 00 00 00 00 00	DB 0, 0, 0, 0, 0, 0, 0, 0, 0, 0, 0, 0, 0, 0, 18
				5, 6, 41, 42, 41, 114
       00 00 00 00 00 00	
       00 00 B9 06 29 2A	
       29 72			
 38CC  11 00 00 00 00 00	DB 17, 0, 0, 0, 0, 0, 0, 0, 0, 0, 0, 0, 0, 0, 1
				7, 185, 185, 185, 186, 114
       00 00 00 00 00 00	
       00 00 11 B9 B9 B9	
       BA 72			
 38E0  06 2A 2A 29 06 BA	DB 6, 42, 42, 41, 6, 186, 17, 185, 114, 6, 6, 1
				14, 114, 114, 114, 114, 114, 6, 114, 186
       11 B9 72 06 06 72	
       72 72 72 72 72 06	
       72 BA			
 38F4  00 00 00 00 BA 06	DB 0, 0, 0, 0, 186, 6, 42, 42, 42, 6, 113, 185,
				 186, 186, 185, 17, 0, 0, 0, 0
       2A 2A 2A 06 71 B9	
       BA BA B9 11 00 00	
       00 00			
 3908  00 00 00 00 BA 06	DB 0, 0, 0, 0, 186, 6, 6, 41, 6, 6, 6, 41, 42, 
				6, 114, 185, 17, 113, 6, 42
       06 29 06 06 06 29	
       2A 06 72 B9 11 71	
       06 2A			
 391C  2A 2A 29 29 29 2A	DB 42, 42, 41, 41, 41, 42, 42, 42, 42, 6, 17, 0
				, 0, 0, 185, 6, 41, 42, 41, 6
       2A 2A 2A 06 11 00	
       00 00 B9 06 29 2A	
       29 06			
 3930  06 29 29 06 72 B9	DB 6, 41, 41, 6, 114, 185, 0, 0, 0, 0, 0, 0, 0,
				 0, 186, 6, 42, 42, 42, 41
       00 00 00 00 00 00	
       00 00 BA 06 2A 2A	
       2A 29			
 3944  06 29 29 06 71 11	DB 6, 41, 41, 6, 113, 17, 0, 17, 113, 6, 6, 6, 
Microsoft (R) Macro Assembler Version 5.10                  12/6/19 16:06:45
                                                             Page     1-93


				6, 6, 6, 6, 6, 6, 6, 113
       00 11 71 06 06 06	
       06 06 06 06 06 06	
       06 71			
 3958  11 00 00 00 B9 72	DB 17, 0, 0, 0, 185, 114, 6, 41, 41, 41, 41, 42
				, 42, 42, 6, 186, 0, 0, 0, 0
       06 29 29 29 29 2A	
       2A 2A 06 BA 00 00	
       00 00			
 396C  00 00 00 00 B9 06	DB 0, 0, 0, 0, 185, 6, 41, 42, 42, 41, 41, 41, 
				42, 41, 6, 185, 0, 0, 0, 17
       29 2A 2A 29 29 29	
       2A 29 06 B9 00 00	
       00 11			
 3980  11 11 11 11 11 11	DB 17, 17, 17, 17, 17, 17, 17, 17, 17, 17, 0, 0
				, 0, 0, 186, 6, 41, 41, 41, 41
       11 11 11 11 00 00	
       00 00 BA 06 29 29	
       29 29			
 3994  29 2A 2A 29 06 B9	DB 41, 42, 42, 41, 6, 185, 0, 0, 0, 0, 17, 17, 
				0, 0, 0, 186, 6, 41, 41, 41
       00 00 00 00 11 11	
       00 00 00 BA 06 29	
       29 29			
 39A8  29 29 2A 2A 29 72	DB 41, 41, 42, 42, 41, 114, 185, 0, 0, 0, 0, 0,
				 0, 0, 0, 0, 0, 0, 0, 0
       B9 00 00 00 00 00	
       00 00 00 00 00 00	
       00 00			
 39BC  00 00 11 71 06 29	DB 0, 0, 17, 113, 6, 41, 41, 42, 42, 42, 42, 41
				, 6, 114, 186, 0, 0, 0, 17, 17
       29 2A 2A 2A 2A 29	
       06 72 BA 00 00 00	
       11 11			
 39D0  DE 12 11 00 00 00	DB 222, 18, 17, 0, 0, 0, 185, 114, 6, 41, 41, 4
				1, 41, 41, 41, 6, 114, 185, 0, 0
       B9 72 06 29 29 29	
       29 29 29 06 72 B9	
       00 00			
 39E4  00 00 00 00 00 00	DB 0, 0, 0, 0, 0, 0, 0, 0, 0, 0, 0, 0, 113, 6, 
				41, 41, 41, 41, 41, 41
       00 00 00 00 00 00	
       71 06 29 29 29 29	
       29 29			
 39F8  29 06 72 11 00 00	DB 41, 6, 114, 17, 0, 0, 0, 17, 18, 222, 245, 2
				46, 18, 17, 17, 0, 0, 17, 114, 6
       00 11 12 DE F5 F6	
       12 11 11 00 00 11	
       72 06			
 3A0C  06 72 72 06 06 06	DB 6, 114, 114, 6, 6, 6, 114, 186, 17, 0, 17, 1
				7, 17, 17, 17, 17, 17, 17, 17, 17
       72 BA 11 00 11 11	
       11 11 11 11 11 11	
       11 11			
Microsoft (R) Macro Assembler Version 5.10                  12/6/19 16:06:45
                                                             Page     1-94


 3A20  00 11 71 06 06 06	DB 0, 17, 113, 6, 6, 6, 114, 114, 114, 6, 6, 11
				4, 17, 0, 0, 17, 17, 18, 246, 245
       72 72 72 06 06 72	
       11 00 00 11 11 12	
       F6 F5			
 3A34  F5 F5 F5 DE 12 11	DB 245, 245, 245, 222, 18, 17, 0, 0, 17, 185, 1
				7, 17, 17, 185, 185, 186, 185, 17, 0, 17
       00 00 11 B9 11 11	
       11 B9 B9 BA B9 11	
       00 11			
 3A48  12 DE DE DE DE DE	DB 18, 222, 222, 222, 222, 222, 222, 222, 222, 
				18, 17, 0, 17, 185, 186, 185, 17, 17, 17, 185
       DE DE DE 12 11 00	
       11 B9 BA B9 11 11	
       11 B9			
 3A5C  B9 11 00 00 11 12	DB 185, 17, 0, 0, 17, 18, 222, 245, 245, 245, 2
				45, 245, 245, 245, 18, 17, 0, 0, 0, 0
       DE F5 F5 F5 F5 F5	
       F5 F5 12 11 00 00	
       00 00			
 3A70  00 00 00 00 00 00	DB 0, 0, 0, 0, 0, 0, 0, 0, 0, 17, 18, 246, 245,
				 245, 245, 245, 245, 245, 246, 18
       00 00 00 11 12 F6	
       F5 F5 F5 F5 F5 F5	
       F6 12			
 3A84  11 00 00 00 00 00	DB 17, 0, 0, 0, 0, 0, 0, 0, 0, 0, 0, 0, 0, 0, 1
				7, 18, 245, 245, 245, 245
       00 00 00 00 00 00	
       00 00 11 12 F5 F5	
       F5 F5			
				
 3A98  F5 F5 F5 F5 12 11	BITMAP_DOWN_PLAYER1  DB 245, 245, 245, 245, 18,
				 17, 0, 0, 0, 0, 0, 0, 0, 0, 0, 0, 0, 0, 0, 17
       00 00 00 00 00 00	
       00 00 00 00 00 00	
       00 11			
 3AAC  12 F5 F5 F5 F5 F5	DB 18, 245, 245, 245, 245, 245, 245, 245, 245, 
				18, 17, 0, 0, 0, 0, 0, 0, 0, 0, 0
       F5 F5 F5 12 11 00	
       00 00 00 00 00 00	
       00 00			
 3AC0  00 00 00 00 11 12	DB 0, 0, 0, 0, 17, 18, 245, 245, 245, 245, 245,
				 245, 245, 245, 18, 17, 0, 0, 17, 185
       F5 F5 F5 F5 F5 F5	
       F5 F5 12 11 00 00	
       11 B9			
 3AD4  B9 11 11 11 B9 BA	DB 185, 17, 17, 17, 185, 186, 185, 17, 0, 17, 1
				8, 245, 245, 245, 245, 245, 245, 245, 245, 18
       B9 11 00 11 12 F5	
       F5 F5 F5 F5 F5 F5	
       F5 12			
 3AE8  11 00 11 B9 BA B9	DB 17, 0, 17, 185, 186, 185, 185, 17, 17, 17, 1
				85, 17, 0, 0, 17, 18, 245, 245, 245, 245
       B9 11 11 11 B9 11	
Microsoft (R) Macro Assembler Version 5.10                  12/6/19 16:06:45
                                                             Page     1-95


       00 00 11 12 F5 F5	
       F5 F5			
 3AFC  F5 F5 12 11 11 00	DB 245, 245, 18, 17, 17, 0, 0, 17, 114, 6, 6, 1
				14, 114, 114, 6, 6, 6, 113, 17, 0
       00 11 72 06 06 72	
       72 72 06 06 06 71	
       11 00			
 3B10  11 11 11 11 11 11	DB 17, 17, 17, 17, 17, 17, 17, 17, 17, 17, 0, 1
				7, 186, 114, 6, 6, 6, 114, 114, 6
       11 11 11 11 00 11	
       BA 72 06 06 06 72	
       72 06			
 3B24  06 72 11 00 00 11	DB 6, 114, 17, 0, 0, 17, 17, 18, 245, 245, 245,
				 18, 17, 0, 0, 0, 17, 114, 6, 41
       11 12 F5 F5 F5 12	
       11 00 00 00 11 72	
       06 29			
 3B38  29 29 29 29 29 29	DB 41, 41, 41, 41, 41, 41, 6, 113, 0, 0, 0, 0, 
				0, 0, 0, 0, 0, 0, 0, 0
       06 71 00 00 00 00	
       00 00 00 00 00 00	
       00 00			
 3B4C  00 00 B9 72 06 29	DB 0, 0, 185, 114, 6, 41, 41, 41, 41, 41, 41, 6
				, 114, 185, 0, 0, 0, 17, 18, 245
       29 29 29 29 29 06	
       72 B9 00 00 00 11	
       12 F5			
 3B60  11 11 00 00 00 BA	DB 17, 17, 0, 0, 0, 186, 114, 6, 41, 42, 42, 42
				, 42, 41, 41, 6, 113, 17, 0, 0
       72 06 29 2A 2A 2A	
       2A 29 29 06 71 11	
       00 00			
 3B74  00 00 00 00 00 00	DB 0, 0, 0, 0, 0, 0, 0, 0, 0, 0, 0, 0, 0, 185, 
				114, 41, 42, 42, 41, 41
       00 00 00 00 00 00	
       00 B9 72 29 2A 2A	
       29 29			
 3B88  29 29 29 06 BA 00	DB 41, 41, 41, 6, 186, 0, 0, 0, 17, 17, 0, 0, 0
				, 0, 185, 6, 41, 42, 42, 41
       00 00 11 11 00 00	
       00 00 B9 06 29 2A	
       2A 29			
 3B9C  29 29 29 29 06 BA	DB 41, 41, 41, 41, 6, 186, 0, 0, 0, 0, 17, 17, 
				17, 17, 17, 17, 17, 17, 17, 17
       00 00 00 00 11 11	
       11 11 11 11 11 11	
       11 11			
 3BB0  11 00 00 00 B9 06	DB 17, 0, 0, 0, 185, 6, 41, 42, 41, 41, 41, 42,
				 42, 41, 6, 185, 0, 0, 0, 0
       29 2A 29 29 29 2A	
       2A 29 06 B9 00 00	
       00 00			
 3BC4  00 00 00 00 BA 06	DB 0, 0, 0, 0, 186, 6, 42, 42, 42, 41, 41, 41, 
				41, 6, 114, 185, 0, 0, 0, 17
Microsoft (R) Macro Assembler Version 5.10                  12/6/19 16:06:45
                                                             Page     1-96


       2A 2A 2A 29 29 29	
       29 06 72 B9 00 00	
       00 11			
 3BD8  71 06 06 06 06 06	DB 113, 6, 6, 6, 6, 6, 6, 6, 6, 6, 6, 113, 17, 
				0, 17, 113, 6, 41, 41, 6
       06 06 06 06 06 71	
       11 00 11 71 06 29	
       29 06			
 3BEC  29 2A 2A 2A 06 BA	DB 41, 42, 42, 42, 6, 186, 0, 0, 0, 0, 0, 0, 0,
				 0, 185, 114, 6, 41, 41, 6
       00 00 00 00 00 00	
       00 00 B9 72 06 29	
       29 06			
 3C00  06 29 2A 29 06 B9	DB 6, 41, 42, 41, 6, 185, 0, 0, 0, 17, 6, 42, 4
				2, 42, 42, 41, 41, 41, 42, 42
       00 00 00 11 06 2A	
       2A 2A 2A 29 29 29	
       2A 2A			
 3C14  2A 06 71 11 B9 72	DB 42, 6, 113, 17, 185, 114, 6, 42, 41, 6, 6, 6
				, 41, 6, 6, 186, 0, 0, 0, 0
       06 2A 29 06 06 06	
       29 06 06 BA 00 00	
       00 00			
 3C28  00 00 00 00 11 B9	DB 0, 0, 0, 0, 17, 185, 186, 186, 185, 113, 6, 
				42, 42, 42, 6, 186, 0, 0, 0, 0
       BA BA B9 71 06 2A	
       2A 2A 06 BA 00 00	
       00 00			
 3C3C  BA 72 06 72 72 72	DB 186, 114, 6, 114, 114, 114, 114, 114, 114, 6
				, 6, 114, 185, 17, 186, 6, 41, 42, 42, 6
       72 72 72 06 06 72	
       B9 11 BA 06 29 2A	
       2A 06			
 3C50  72 BA B9 B9 B9 11	DB 114, 186, 185, 185, 185, 17, 0, 0, 0, 0, 0, 
				0, 0, 0, 0, 0, 0, 0, 0, 17
       00 00 00 00 00 00	
       00 00 00 00 00 00	
       00 11			
 3C64  72 29 2A 29 06 B9	DB 114, 41, 42, 41, 6, 185, 0, 0, 0, 0, 0, 0, 0
				, 0, 0, 0, 0, 0, 0, 0
       00 00 00 00 00 00	
       00 00 00 00 00 00	
       00 00			
 3C78  00 00 00 00 B9 72	DB 0, 0, 0, 0, 185, 114, 6, 42, 41, 6, 186, 0, 
				0, 0, 0, 0, 0, 0, 0, 0
       06 2A 29 06 BA 00	
       00 00 00 00 00 00	
       00 00			
 3C8C  00 00 00 00 00 11	DB 0, 0, 0, 0, 0, 17, 186, 113, 113, 113, 113, 
				113, 114, 113, 185, 0, 0, 0, 0, 0
       BA 71 71 71 71 71	
       72 71 B9 00 00 00	
       00 00			
 3CA0  11 B9 BA BA B9 B9	DB 17, 185, 186, 186, 185, 185, 185, 186, 186, 
Microsoft (R) Macro Assembler Version 5.10                  12/6/19 16:06:45
                                                             Page     1-97


				17, 0, 0, 0, 0, 0, 185, 113, 114, 114, 113
       B9 BA BA 11 00 00	
       00 00 00 B9 71 72	
       72 71			
 3CB4  71 71 71 BA B9 00	DB 113, 113, 113, 186, 185, 0, 0, 0, 0, 0, 0, 0
				, 0, 0, 185, 114, 6, 41, 6, 114
       00 00 00 00 00 00	
       00 00 B9 72 06 29	
       06 72			
 3CC8  B9 00 00 00 00 00	DB 185, 0, 0, 0, 0, 0, 0, 0, 0, 17, 114, 6, 6, 
				6, 6, 6, 6, 6, 6, 114
       00 00 00 11 72 06	
       06 06 06 06 06 06	
       06 72			
 3CDC  B9 00 00 00 00 00	DB 185, 0, 0, 0, 0, 0, 0, 0, 0, 185, 113, 6, 41
				, 6, 114, 185, 0, 0, 0, 0
       00 00 00 B9 71 06	
       29 06 72 B9 00 00	
       00 00			
 3CF0  17 AF DF 11 B9 06	DB 23, 175, 223, 17, 185, 6, 41, 42, 6, 186, 0,
				 0, 0, 0, 0, 17, 186, 113, 113, 114
       29 2A 06 BA 00 00	
       00 00 00 11 BA 71	
       71 72			
 3D04  06 29 2A 29 29 29	DB 6, 41, 42, 41, 41, 41, 41, 41, 41, 6, 114, 1
				13, 113, 186, 17, 0, 0, 0, 0, 0
       29 29 29 06 72 71	
       71 BA 11 00 00 00	
       00 00			
 3D18  B9 06 2A 2A 06 B9	DB 185, 6, 42, 42, 6, 185, 17, 198, 150, 23, 30
				, 28, 172, 18, 185, 4, 41, 6, 113, 0
       11 C6 96 17 1E 1C	
       AC 12 B9 04 29 06	
       71 00			
 3D2C  00 00 00 00 11 72	DB 0, 0, 0, 0, 17, 114, 6, 41, 41, 6, 41, 41, 4
				1, 41, 41, 41, 41, 41, 41, 41
       06 29 29 06 29 29	
       29 29 29 29 29 29	
       29 29			
 3D40  29 29 29 06 72 11	DB 41, 41, 41, 6, 114, 17, 0, 0, 0, 0, 0, 186, 
				6, 41, 4, 184, 17, 173, 28, 30
       00 00 00 00 00 BA	
       06 29 04 B8 11 AD	
       1C 1E			
 3D54  1E 0F 07 13 11 B8	DB 30, 15, 7, 19, 17, 184, 185, 185, 0, 0, 0, 0
				, 0, 185, 114, 6, 42, 42, 42, 42
       B9 B9 00 00 00 00	
       00 B9 72 06 2A 2A	
       2A 2A			
 3D68  29 29 06 06 06 06	DB 41, 41, 6, 6, 6, 6, 6, 41, 41, 42, 42, 42, 4
				2, 42, 41, 6, 186, 0, 0, 0
       06 29 29 2A 2A 2A	
       2A 2A 29 06 BA 00	
       00 00			
Microsoft (R) Macro Assembler Version 5.10                  12/6/19 16:06:45
                                                             Page     1-98


 3D7C  00 00 B9 B9 B8 00	DB 0, 0, 185, 185, 184, 0, 17, 24, 15, 30, 30, 
				15, 7, 246, 0, 0, 0, 0, 0, 0
       11 18 0F 1E 1E 0F	
       07 F6 00 00 00 00	
       00 00			
 3D90  00 00 BA 06 29 2A	DB 0, 0, 186, 6, 41, 42, 42, 41, 41, 41, 6, 6, 
				6, 6, 6, 6, 6, 6, 6, 41
       2A 29 29 29 06 06	
       06 06 06 06 06 06	
       06 29			
 3DA4  29 29 2A 2A 2A 29	DB 41, 41, 42, 42, 42, 41, 6, 113, 0, 0, 0, 0, 
				0, 0, 0, 0, 17, 24, 15, 30
       06 71 00 00 00 00	
       00 00 00 00 11 18	
       0F 1E			
 3DB8  1B 19 08 11 00 00	DB 27, 25, 8, 17, 0, 0, 17, 17, 0, 0, 0, 0, 113
				, 41, 42, 42, 41, 6, 113, 113
       11 11 00 00 00 00	
       71 29 2A 2A 29 06	
       71 71			
 3DCC  72 06 29 29 29 29	DB 114, 6, 41, 41, 41, 41, 41, 6, 114, 186, 186
				, 114, 6, 41, 42, 42, 42, 114, 0, 0
       29 06 72 BA BA 72	
       06 29 2A 2A 2A 72	
       00 00			
 3DE0  00 00 11 11 00 00	DB 0, 0, 17, 17, 0, 0, 0, 245, 25, 27, 18, 17, 
				0, 0, 185, 113, 6, 113, 17, 0
       00 F5 19 1B 12 11	
       00 00 B9 71 06 71	
       11 00			
 3DF4  00 00 71 29 2A 2A	DB 0, 0, 113, 41, 42, 42, 6, 186, 0, 0, 113, 6,
				 41, 41, 41, 41, 6, 114, 17, 0
       06 BA 00 00 71 06	
       29 29 29 29 06 72	
       11 00			
 3E08  00 00 BA 06 29 2A	DB 0, 0, 186, 6, 41, 42, 41, 114, 0, 0, 0, 17, 
				113, 114, 113, 185, 0, 0, 17, 18
       29 72 00 00 00 11	
       71 72 71 B9 00 00	
       11 12			
 3E1C  00 00 00 00 71 06	DB 0, 0, 0, 0, 113, 6, 41, 6, 17, 0, 0, 186, 6,
				 41, 41, 6, 113, 17, 17, 185
       29 06 11 00 00 BA	
       06 29 29 06 71 11	
       11 B9			
 3E30  72 06 29 29 06 06	DB 114, 6, 41, 41, 6, 6, 114, 186, 17, 17, 0, 0
				, 184, 113, 6, 41, 41, 6, 113, 17
       72 BA 11 11 00 00	
       B8 71 06 29 29 06	
       71 11			
 3E44  00 11 72 06 06 71	DB 0, 17, 114, 6, 6, 113, 17, 0, 0, 0, 0, 0, 0,
				 0, 113, 6, 41, 6, 17, 0
       11 00 00 00 00 00	
       00 00 71 06 29 06	
Microsoft (R) Macro Assembler Version 5.10                  12/6/19 16:06:45
                                                             Page     1-99


       11 00			
 3E58  B9 06 29 29 06 BA	DB 185, 6, 41, 41, 6, 186, 17, 17, 113, 6, 6, 4
				1, 41, 41, 114, 185, 17, 185, 113, 6
       11 11 71 06 06 29	
       29 29 72 B9 11 B9	
       71 06			
 3E6C  06 72 B9 11 B9 72	DB 6, 114, 185, 17, 185, 114, 41, 41, 6, 113, 0
				, 17, 114, 6, 6, 114, 17, 0, 0, 0
       29 29 06 71 00 11	
       72 06 06 72 11 00	
       00 00			
 3E80  00 00 00 00 BA 06	DB 0, 0, 0, 0, 186, 6, 41, 114, 0, 0, 113, 41, 
				42, 41, 114, 0, 0, 185, 6, 41
       29 72 00 00 71 29	
       2A 29 72 00 00 B9	
       06 29			
 3E94  29 29 29 06 71 00	DB 41, 41, 41, 6, 113, 0, 0, 184, 6, 42, 66, 65
				, 8, 17, 0, 185, 6, 42, 42, 6
       00 B8 06 2A 42 41	
       08 11 00 B9 06 2A	
       2A 06			
 3EA8  11 00 71 06 06 71	DB 17, 0, 113, 6, 6, 113, 17, 0, 0, 0, 0, 0, 0,
				 0, 113, 6, 6, 114, 0, 0
       11 00 00 00 00 00	
       00 00 71 06 06 72	
       00 00			
 3EBC  71 2A 2A 29 71 00	DB 113, 42, 42, 41, 113, 0, 0, 185, 6, 42, 42, 
				41, 41, 6, 186, 0, 0, 184, 6, 66
       00 B9 06 2A 2A 29	
       29 06 BA 00 00 B8	
       06 42			
 3ED0  5C 0F 18 C5 00 B9	DB 92, 15, 24, 197, 0, 185, 6, 42, 42, 6, 185, 
				0, 186, 6, 6, 186, 17, 0, 0, 0
       06 2A 2A 06 B9 00	
       BA 06 06 BA 11 00	
       00 00			
 3EE4  00 00 00 00 BA 06	DB 0, 0, 0, 0, 186, 6, 6, 114, 0, 0, 113, 42, 4
				2, 41, 113, 0, 0, 185, 6, 42
       06 72 00 00 71 2A	
       2A 29 71 00 00 B9	
       06 2A			
 3EF8  2A 29 29 06 72 B9	DB 42, 41, 41, 6, 114, 185, 0, 17, 113, 12, 28,
				 102, 24, 20, 186, 113, 6, 42, 42, 6
       00 11 71 0C 1C 66	
       18 14 BA 71 06 2A	
       2A 06			
 3F0C  B9 00 BA 06 06 71	DB 185, 0, 186, 6, 6, 113, 17, 0, 0, 0, 0, 0, 0
				, 0, 185, 6, 6, 114, 0, 0
       11 00 00 00 00 00	
       00 00 B9 06 06 72	
       00 00			
 3F20  71 2A 2A 29 71 00	DB 113, 42, 42, 41, 113, 0, 0, 185, 6, 42, 42, 
				41, 41, 41, 6, 6, 114, 185, 0, 17
       00 B9 06 2A 2A 29	
Microsoft (R) Macro Assembler Version 5.10                  12/6/19 16:06:45
                                                             Page     1-100


       29 29 06 06 72 B9	
       00 11			
 3F34  DF DC 14 88 06 06	DB 223, 220, 20, 136, 6, 6, 41, 42, 42, 6, 185,
				 0, 113, 6, 6, 186, 0, 0, 0, 0
       29 2A 2A 06 B9 00	
       71 06 06 BA 00 00	
       00 00			
 3F48  11 11 00 00 B9 06	DB 17, 17, 0, 0, 185, 6, 6, 114, 0, 0, 185, 6, 
				42, 41, 6, 185, 0, 17, 114, 41
       06 72 00 00 B9 06	
       2A 29 06 B9 00 11	
       72 29			
 3F5C  29 29 29 29 2A 2A	DB 41, 41, 41, 41, 42, 42, 42, 114, 0, 0, 0, 0,
				 185, 6, 41, 41, 41, 41, 6, 114
       2A 72 00 00 00 00	
       B9 06 29 29 29 29	
       06 72			
 3F70  11 00 71 06 06 B9	DB 17, 0, 113, 6, 6, 185, 0, 0, 17, 17, 7, 25, 
				150, 17, 185, 4, 6, 114, 17, 0
       00 00 11 11 07 19	
       96 11 B9 04 06 72	
       11 00			
 3F84  00 BA 06 29 29 06	DB 0, 186, 6, 41, 41, 6, 114, 185, 0, 185, 114,
				 6, 41, 41, 42, 42, 42, 6, 114, 185
       72 B9 00 B9 72 06	
       29 29 2A 2A 2A 06	
       72 B9			
 3F98  B8 70 04 29 29 2A	DB 184, 112, 4, 41, 41, 42, 41, 6, 186, 17, 0, 
				17, 114, 6, 113, 184, 17, 244, 25, 27
       29 06 BA 11 00 11	
       72 06 71 B8 11 F4	
       19 1B			
 3FAC  1E 0F 19 13 B9 71	DB 30, 15, 25, 19, 185, 113, 6, 114, 185, 0, 0,
				 0, 113, 6, 42, 42, 41, 113, 0, 0
       06 72 B9 00 00 00	
       71 06 2A 2A 29 71	
       00 00			
 3FC0  72 29 29 06 72 72	DB 114, 41, 41, 6, 114, 114, 114, 6, 41, 42, 41
				, 41, 41, 41, 41, 42, 41, 114, 0, 0
       72 06 29 2A 29 29	
       29 29 29 2A 29 72	
       00 00			
 3FD4  00 11 72 06 71 B8	DB 0, 17, 114, 6, 113, 184, 17, 24, 15, 30, 30,
				 15, 7, 244, 185, 113, 6, 114, 185, 0
       11 18 0F 1E 1E 0F	
       07 F4 B9 71 06 72	
       B9 00			
 3FE8  00 00 BA 06 2A 2A	DB 0, 0, 186, 6, 42, 42, 42, 6, 113, 113, 6, 6,
				 6, 186, 0, 0, 17, 114, 41, 42
       2A 06 71 71 06 06	
       06 BA 00 00 11 72	
       29 2A			
 3FFC  2A 2A 29 29 29 2A	DB 42, 42, 41, 41, 41, 42, 41, 113, 0, 0, 0, 17
				, 114, 6, 113, 184, 17, 24, 15, 30
Microsoft (R) Macro Assembler Version 5.10                  12/6/19 16:06:45
                                                             Page     1-101


       29 71 00 00 00 11	
       72 06 71 B8 11 18	
       0F 1E			
 4010  1D 1B AD 12 B9 71	DB 29, 27, 173, 18, 185, 113, 6, 114, 17, 0, 0,
				 0, 185, 114, 41, 42, 42, 42, 41, 6
       06 72 11 00 00 00	
       B9 72 29 2A 2A 2A	
       29 06			
 4024  06 06 71 B9 11 11	DB 6, 6, 113, 185, 17, 17, 185, 113, 6, 6, 41, 
				42, 42, 41, 41, 41, 6, 186, 0, 0
       B9 71 06 06 29 2A	
       2A 29 29 29 06 BA	
       00 00			
 4038  00 11 72 06 71 B8	DB 0, 17, 114, 6, 113, 184, 17, 150, 27, 29, 8,
				 245, 17, 17, 185, 6, 6, 114, 17, 0
       11 96 1B 1D 08 F5	
       11 11 B9 06 06 72	
       11 00			
 404C  00 00 00 B9 72 06	DB 0, 0, 0, 185, 114, 6, 42, 42, 42, 41, 114, 1
				86, 186, 113, 114, 6, 114, 186, 185, 186
       2A 2A 2A 29 72 BA	
       BA 71 72 06 72 BA	
       B9 BA			
 4060  06 2A 2A 2A 29 06	DB 6, 42, 42, 42, 41, 6, 186, 17, 0, 0, 0, 0, 1
				14, 6, 114, 185, 0, 17, 245, 8
       BA 11 00 00 00 00	
       72 06 72 B9 00 11	
       F5 08			
 4074  00 00 00 00 B9 06	DB 0, 0, 0, 0, 185, 6, 41, 6, 185, 0, 0, 0, 0, 
				0, 185, 114, 6, 42, 42, 6
       29 06 B9 00 00 00	
       00 00 B9 72 06 2A	
       2A 06			
 4088  B9 00 B9 71 06 29	DB 185, 0, 185, 113, 6, 41, 6, 185, 0, 0, 113, 
				6, 42, 41, 6, 186, 0, 0, 0, 0
       06 B9 00 00 71 06	
       2A 29 06 BA 00 00	
       00 00			
 409C  00 B9 06 06 06 B9	DB 0, 185, 6, 6, 6, 185, 0, 0, 0, 0, 0, 0, 0, 0
				, 185, 6, 41, 41, 6, 186
       00 00 00 00 00 00	
       00 00 B9 06 29 29	
       06 BA			
 40B0  11 00 00 00 00 11	DB 17, 0, 0, 0, 0, 17, 186, 114, 113, 185, 0, 0
				, 0, 184, 185, 113, 185, 17, 0, 0
       BA 72 71 B9 00 00	
       00 B8 B9 71 B9 11	
       00 00			
 40C4  11 BA 72 71 B9 00	DB 17, 186, 114, 113, 185, 0, 0, 0, 0, 0, 186, 
				6, 41, 41, 6, 186, 0, 0, 0, 0
       00 00 00 00 BA 06	
       29 29 06 BA 00 00	
       00 00			
 40D8  00 00 00 00 B9 72	DB 0, 0, 0, 0, 185, 114, 41, 42, 42, 6, 186, 0,
Microsoft (R) Macro Assembler Version 5.10                  12/6/19 16:06:45
                                                             Page     1-102


				 0, 0, 0, 0, 0, 0, 0, 0
       29 2A 2A 06 BA 00	
       00 00 00 00 00 00	
       00 00			
 40EC  00 00 00 00 00 00	DB 0, 0, 0, 0, 0, 0, 0, 0, 0, 0, 0, 0, 0, 0, 0,
				 0, 0, 0, 0, 0
       00 00 00 00 00 00	
       00 00 00 00 00 00	
       00 00			
 4100  72 2A 2A 2A 06 B9	DB 114, 42, 42, 42, 6, 185, 0, 0, 0, 0, 0, 0, 0
				, 0, 185, 114, 41, 42, 42, 6
       00 00 00 00 00 00	
       00 00 B9 72 29 2A	
       2A 06			
 4114  BA 00 00 00 00 00	DB 186, 0, 0, 0, 0, 0, 0, 0, 0, 0, 0, 0, 247, 1
				73, 24, 24, 172, 246, 17, 0
       00 00 00 00 00 00	
       F7 AD 18 18 AC F6	
       11 00			
 4128  00 00 00 00 00 00	DB 0, 0, 0, 0, 0, 0, 0, 0, 0, 0, 114, 42, 42, 4
				2, 6, 185, 0, 0, 0, 0
       00 00 00 00 72 2A	
       2A 2A 06 B9 00 00	
       00 00			
 413C  00 00 00 00 B9 72	DB 0, 0, 0, 0, 185, 114, 41, 42, 42, 41, 114, 1
				7, 0, 0, 0, 0, 0, 0, 0, 0
       29 2A 2A 29 72 11	
       00 00 00 00 00 00	
       00 00			
 4150  00 11 17 1D 0F 0F	DB 0, 17, 23, 29, 15, 15, 30, 25, 17, 0, 0, 0, 
				0, 0, 0, 0, 0, 0, 17, 186
       1E 19 11 00 00 00	
       00 00 00 00 00 00	
       11 BA			
 4164  06 2A 2A 2A 06 B9	DB 6, 42, 42, 42, 6, 185, 0, 0, 0, 0, 0, 0, 0, 
				0, 185, 114, 41, 42, 42, 41
       00 00 00 00 00 00	
       00 00 B9 72 29 2A	
       2A 29			
 4178  06 72 B9 00 00 00	DB 6, 114, 185, 0, 0, 0, 0, 0, 0, 0, 0, 17, 24,
				 30, 15, 15, 15, 7, 17, 0
       00 00 00 00 00 11	
       18 1E 0F 0F 0F 07	
       11 00			
 418C  00 00 00 00 00 00	DB 0, 0, 0, 0, 0, 0, 0, 185, 114, 6, 41, 42, 42
				, 41, 6, 185, 0, 0, 0, 0
       00 B9 72 06 29 2A	
       2A 29 06 B9 00 00	
       00 00			
 41A0  11 00 00 00 B9 06	DB 17, 0, 0, 0, 185, 6, 41, 41, 41, 6, 6, 113, 
				185, 0, 0, 0, 0, 0, 0, 0
       29 29 29 06 06 71	
       B9 00 00 00 00 00	
       00 00			
Microsoft (R) Macro Assembler Version 5.10                  12/6/19 16:06:45
                                                             Page     1-103


 41B4  00 00 18 1E 0F 0F	DB 0, 0, 24, 30, 15, 15, 30, 24, 0, 0, 0, 0, 0,
				 0, 0, 0, 0, 185, 113, 6
       1E 18 00 00 00 00	
       00 00 00 00 00 B9	
       71 06			
 41C8  06 29 29 29 06 B9	DB 6, 41, 41, 41, 6, 185, 0, 0, 0, 17, 24, 174,
				 223, 17, 185, 6, 41, 6, 113, 184
       00 00 00 11 18 AE	
       DF 11 B9 06 29 06	
       71 B8			
 41DC  B8 B8 B8 00 00 00	DB 184, 184, 184, 0, 0, 0, 0, 0, 0, 0, 0, 0, 23
				, 30, 15, 15, 30, 23, 0, 0
       00 00 00 00 00 00	
       17 1E 0F 0F 1E 17	
       00 00			
 41F0  00 00 00 00 00 00	DB 0, 0, 0, 0, 0, 0, 0, 184, 184, 184, 184, 113
				, 6, 41, 6, 185, 0, 198, 174, 24
       00 B8 B8 B8 B8 71	
       06 29 06 B9 00 C6	
       AE 18			
 4204  1E 1C AC 12 B8 71	DB 30, 28, 172, 18, 184, 113, 6, 114, 185, 0, 0
				, 0, 0, 0, 0, 0, 0, 0, 0, 0
       06 72 B9 00 00 00	
       00 00 00 00 00 00	
       00 00			
 4218  00 00 17 1D 0F 0F	DB 0, 0, 23, 29, 15, 15, 29, 22, 0, 0, 0, 0, 0,
				 0, 0, 0, 0, 0, 0, 17
       1D 16 00 00 00 00	
       00 00 00 00 00 00	
       00 11			
 422C  00 B9 71 06 71 B8	DB 0, 185, 113, 6, 113, 184, 17, 173, 28, 30, 3
				0, 15, 7, 19, 0, 184, 185, 137, 172, 172
       11 AD 1C 1E 1E 0F	
       07 13 00 B8 B9 89	
       AC AC			
 4240  AC 95 C5 00 00 B9	DB 172, 149, 197, 0, 0, 185, 186, 185, 17, 0, 0
				, 0, 23, 29, 15, 15, 29, 22, 0, 0
       BA B9 11 00 00 00	
       17 1D 0F 0F 1D 16	
       00 00			
 4254  00 00 BA 71 B9 00	DB 0, 0, 186, 113, 185, 0, 0, 198, 149, 24, 24,
				 172, 8, 185, 0, 0, 17, 24, 15, 30
       00 C6 95 18 18 AC	
       08 B9 00 00 11 18	
       0F 1E			
 4268  1E 0F 07 12 00 00	DB 30, 15, 7, 18, 0, 0, 17, 172, 101, 15, 15, 1
				01, 24, 221, 186, 113, 6, 6, 185, 0
       11 AC 65 0F 0F 65	
       18 DD BA 71 06 06	
       B9 00			
 427C  00 00 17 1E 0F 0F	DB 0, 0, 23, 30, 15, 15, 29, 22, 0, 0, 0, 185, 
				114, 6, 113, 184, 17, 172, 101, 15
       1D 16 00 00 00 B9	
       72 06 71 B8 11 AC	
Microsoft (R) Macro Assembler Version 5.10                  12/6/19 16:06:45
                                                             Page     1-104


       65 0F			
 4290  0F 1E 19 12 00 00	DB 15, 30, 25, 18, 0, 0, 17, 23, 15, 30, 27, 25
				, 8, 17, 0, 0, 185, 24, 30, 15
       11 17 0F 1E 1B 19	
       08 11 00 00 B9 18	
       1E 0F			
 42A4  0F 1E 07 8B 06 06	DB 15, 30, 7, 139, 6, 6, 6, 113, 17, 0, 0, 0, 2
				3, 30, 15, 15, 29, 22, 0, 0
       06 71 11 00 00 00	
       17 1E 0F 0F 1D 16	
       00 00			
 42B8  00 11 BA 72 71 71	DB 0, 17, 186, 114, 113, 113, 114, 25, 30, 15, 
				15, 30, 7, 137, 17, 0, 0, 245, 25, 27
       72 19 1E 0F 0F 1E	
       07 89 11 00 00 F5	
       19 1B			
 42CC  11 11 00 00 11 B9	DB 17, 17, 0, 0, 17, 185, 6, 41, 65, 66, 66, 65
				, 42, 6, 114, 113, 185, 17, 0, 0
       06 29 41 42 42 41	
       2A 06 72 71 B9 11	
       00 00			
 42E0  00 00 17 1D 0F 0F	DB 0, 0, 23, 29, 15, 15, 29, 22, 0, 0, 0, 0, 0,
				 17, 185, 113, 6, 42, 64, 66
       1D 16 00 00 00 00	
       00 11 B9 71 06 2A	
       40 42			
 42F4  42 41 2A 06 71 11	DB 66, 65, 42, 6, 113, 17, 0, 0, 17, 17, 17, 17
				, 0, 0, 17, 186, 114, 113, 113, 185
       00 00 11 11 11 11	
       00 00 11 BA 72 71	
       71 B9			
 4308  B9 71 71 71 B9 00	DB 185, 113, 113, 113, 185, 0, 0, 17, 186, 185,
				 0, 0, 173, 29, 15, 15, 29, 22, 0, 0
       00 11 BA B9 00 00	
       AD 1D 0F 0F 1D 16	
       00 00			
 431C  11 B9 71 72 71 71	DB 17, 185, 113, 114, 113, 113, 113, 113, 113, 
				185, 185, 113, 113, 113, 185, 17, 0, 0, 17, 17
       71 71 71 B9 B9 71	
       71 71 B9 11 00 00	
       11 11			
 4330  F5 12 11 00 00 11	DB 245, 18, 17, 0, 0, 17, 185, 185, 0, 0, 0, 0,
				 184, 17, 0, 0, 0, 186, 6, 6
       B9 B9 00 00 00 00	
       B8 11 00 00 00 BA	
       06 06			
 4344  B8 11 AC 1D 0F 0F	DB 184, 17, 172, 29, 15, 15, 29, 23, 0, 0, 184,
				 6, 41, 6, 114, 186, 185, 0, 0, 0
       1D 17 00 00 B8 06	
       29 06 72 BA B9 00	
       00 00			
 4358  00 00 B8 B9 11 00	DB 0, 0, 184, 185, 17, 0, 0, 17, 18, 245, 245, 
				245, 18, 0, 17, 185, 186, 113, 186, 185
       00 11 12 F5 F5 F5	
Microsoft (R) Macro Assembler Version 5.10                  12/6/19 16:06:45
                                                             Page     1-105


       12 00 11 B9 BA 71	
       BA B9			
 436C  B9 BA 71 BA 11 00	DB 185, 186, 113, 186, 17, 0, 0, 186, 114, 113,
				 184, 17, 23, 30, 15, 15, 30, 24, 0, 0
       00 BA 72 71 B8 11	
       17 1E 0F 0F 1E 18	
       00 00			
 4380  B8 72 06 06 72 71	DB 184, 114, 6, 6, 114, 113, 186, 186, 185, 185
				, 185, 186, 113, 186, 185, 17, 17, 18, 245, 245
       BA BA B9 B9 B9 BA	
       71 BA B9 11 11 12	
       F5 F5			
 4394  F5 F5 12 11 B9 72	DB 245, 245, 18, 17, 185, 114, 6, 6, 6, 6, 6, 6
				, 6, 6, 114, 185, 0, 17, 185, 184
       06 06 06 06 06 06	
       06 06 72 B9 00 11	
       B9 B8			
 43A8  00 11 18 1E 0F 0F	DB 0, 17, 24, 30, 15, 15, 15, 25, 17, 0, 0, 17,
				 185, 186, 114, 6, 6, 6, 6, 6
       0F 19 11 00 00 11	
       B9 BA 72 06 06 06	
       06 06			
 43BC  06 06 06 06 72 B9	DB 6, 6, 6, 6, 114, 185, 17, 18, 245, 245, 245,
				 245, 245, 17, 18, 114, 6, 41, 6, 6
       11 12 F5 F5 F5 F5	
       F5 11 12 72 06 29	
       06 06			
 43D0  06 06 29 06 72 B9	DB 6, 6, 41, 6, 114, 185, 0, 17, 17, 17, 17, 17
				, 8, 27, 30, 15, 28, 22, 17, 17
       00 11 11 11 11 11	
       08 1B 1E 0F 1C 16	
       11 11			
 43E4  11 11 11 00 B9 72	DB 17, 17, 17, 0, 185, 114, 6, 6, 6, 6, 6, 6, 4
				1, 6, 114, 186, 17, 18, 245, 245
       06 06 06 06 06 06	
       29 06 72 BA 11 12	
       F5 F5			
 43F8  F5 F5 F5 F5 12 BA	DB 245, 245, 245, 245, 18, 186, 113, 113, 113, 
				186, 186, 113, 113, 186, 185, 17, 0, 17, 18, 24
				5
       71 71 71 BA BA 71	
       71 BA B9 11 00 11	
       12 F5			
 440C  F5 12 12 13 08 16	DB 245, 18, 18, 19, 8, 22, 20, 18, 18, 245, 245
				, 18, 17, 0, 0, 17, 186, 113, 113, 186
       14 12 12 F5 F5 12	
       11 00 00 11 BA 71	
       71 BA			
 4420  BA 71 71 BA BA 12	DB 186, 113, 113, 186, 186, 18, 245, 245, 245, 
				245, 245, 245, 245, 245, 18, 17, 0, 0, 0, 0
       F5 F5 F5 F5 F5 F5	
       F5 F5 12 11 00 00	
       00 00			
 4434  00 00 00 00 00 00	DB 0, 0, 0, 0, 0, 0, 17, 18, 245, 245, 245, 245
Microsoft (R) Macro Assembler Version 5.10                  12/6/19 16:06:45
                                                             Page     1-106


				, 18, 17, 0, 0, 17, 18, 245, 245
       11 12 F5 F5 F5 F5	
       12 11 00 00 11 12	
       F5 F5			
 4448  F5 F5 12 11 00 00	DB 245, 245, 18, 17, 0, 0, 0, 0, 0, 0, 0, 0, 0,
				 0, 17, 18, 245, 245, 245, 245
       00 00 00 00 00 00	
       00 00 11 12 F5 F5	
       F5 F5			
				
 445C  F5 F5 F5 F6 12 11	BITMAP_RIGHT_PLAYER1 DB 245, 245, 245, 246, 18,
				 17, 0, 0, 0, 0, 0, 0, 0, 0, 0, 0, 0, 0, 0, 0
       00 00 00 00 00 00	
       00 00 00 00 00 00	
       00 00			
 4470  00 00 00 00 00 00	DB 0, 0, 0, 0, 0, 0, 0, 0, 0, 0, 0, 0, 0, 0, 0,
				 0, 0, 0, 0, 0
       00 00 00 00 00 00	
       00 00 00 00 00 00	
       00 00			
 4484  00 00 00 00 11 12	DB 0, 0, 0, 0, 17, 18, 246, 245, 245, 245, 245,
				 245, 245, 222, 18, 17, 17, 0, 0, 0
       F6 F5 F5 F5 F5 F5	
       F5 DE 12 11 11 00	
       00 00			
 4498  11 11 11 00 00 00	DB 17, 17, 17, 0, 0, 0, 17, 185, 185, 185, 185,
				 185, 185, 185, 185, 185, 17, 17, 0, 0
       11 B9 B9 B9 B9 B9	
       B9 B9 B9 B9 11 11	
       00 00			
 44AC  00 00 11 11 11 11	DB 0, 0, 17, 17, 17, 17, 0, 0, 0, 0, 0, 0, 0, 0
				, 0, 18, 222, 245, 245, 245
       00 00 00 00 00 00	
       00 00 00 12 DE F5	
       F5 F5			
 44C0  F5 F5 DE 12 12 BA	DB 245, 245, 222, 18, 18, 186, 186, 0, 0, 113, 
				6, 6, 113, 17, 17, 185, 113, 6, 6, 6
       BA 00 00 71 06 06	
       71 11 11 B9 71 06	
       06 06			
 44D4  06 06 06 06 06 06	DB 6, 6, 6, 6, 6, 6, 114, 114, 113, 113, 113, 1
				13, 114, 114, 114, 113, 0, 0, 0, 0
       72 72 71 71 71 71	
       72 72 72 71 00 00	
       00 00			
 44E8  00 00 00 00 00 11	DB 0, 0, 0, 0, 0, 17, 18, 222, 245, 245, 245, 2
				22, 18, 18, 114, 6, 113, 0, 17, 6
       12 DE F5 F5 F5 DE	
       12 12 72 06 71 00	
       11 06			
 44FC  2A 2A 06 BA 11 11	DB 42, 42, 6, 186, 17, 17, 114, 41, 41, 41, 6, 
				41, 41, 6, 6, 6, 6, 41, 41, 41
       72 29 29 29 06 29	
       29 06 06 06 06 29	
Microsoft (R) Macro Assembler Version 5.10                  12/6/19 16:06:45
                                                             Page     1-107


       29 29			
 4510  06 06 29 29 29 06	DB 6, 6, 41, 41, 41, 6, 0, 0, 17, 18, 17, 0, 0,
				 0, 0, 17, 17, 18, 222, 245
       00 00 11 12 11 00	
       00 00 00 11 11 12	
       DE F5			
 4524  12 12 11 72 06 06	DB 18, 18, 17, 114, 6, 6, 113, 0, 17, 6, 42, 42
				, 41, 113, 0, 0, 113, 6, 6, 4
       71 00 11 06 2A 2A	
       29 71 00 00 71 06	
       06 04			
 4538  06 06 06 06 06 72	DB 6, 6, 6, 6, 6, 114, 6, 41, 42, 42, 41, 41, 4
				2, 42, 42, 6, 0, 0, 220, 23
       06 29 2A 2A 29 29	
       2A 2A 2A 06 00 00	
       DC 17			
 454C  A3 D2 11 00 00 B9	DB 163, 210, 17, 0, 0, 185, 186, 18, 18, 18, 17
				, 17, 186, 41, 42, 41, 114, 17, 17, 6
       BA 12 12 12 11 11	
       BA 29 2A 29 72 11	
       11 06			
 4560  2A 2A 29 72 00 00	DB 42, 42, 41, 114, 0, 0, 17, 186, 186, 186, 18
				5, 185, 185, 185, 185, 185, 113, 6, 41, 42
       11 BA BA BA B9 B9	
       B9 B9 B9 B9 71 06	
       29 2A			
 4574  2A 29 2A 2A 2A 06	DB 42, 41, 42, 42, 42, 6, 0, 0, 172, 28, 89, 16
				3, 113, 0, 17, 114, 6, 113, 17, 17
       00 00 AC 1C 59 A3	
       71 00 11 72 06 71	
       11 11			
 4588  00 11 06 2A 2A 29	DB 0, 17, 6, 42, 42, 41, 6, 186, 186, 114, 6, 6
				, 6, 113, 17, 0, 0, 17, 220, 244
       06 BA BA 72 06 06	
       06 71 11 00 00 11	
       DC F4			
 459C  12 00 00 00 00 00	DB 18, 0, 0, 0, 0, 0, 185, 186, 6, 41, 42, 42, 
				42, 42, 42, 6, 0, 0, 148, 29
       B9 BA 06 29 2A 2A	
       2A 2A 2A 06 00 00	
       94 1D			
 45B0  5A 40 06 B8 B9 06	DB 90, 64, 6, 184, 185, 6, 41, 114, 17, 0, 0, 1
				85, 6, 42, 42, 42, 41, 6, 114, 113
       29 72 11 00 00 B9	
       06 2A 2A 2A 29 06	
       72 71			
 45C4  BA BA BA 71 B9 00	DB 186, 186, 186, 113, 185, 0, 0, 197, 3, 7, 16
				2, 185, 0, 0, 0, 17, 185, 17, 185, 6
       00 C5 03 07 A2 B9	
       00 00 00 11 B9 11	
       B9 06			
 45D8  29 2A 2A 2A 2A 06	DB 41, 42, 42, 42, 42, 6, 0, 0, 125, 7, 66, 12,
				 6, 184, 185, 6, 42, 6, 17, 0
       00 00 7D 07 42 0C	
Microsoft (R) Macro Assembler Version 5.10                  12/6/19 16:06:45
                                                             Page     1-108


       06 B8 B9 06 2A 06	
       11 00			
 45EC  00 B9 06 2A 2A 2A	DB 0, 185, 6, 42, 42, 42, 41, 41, 114, 17, 0, 0
				, 185, 114, 113, 184, 0, 125, 101, 15
       29 29 72 11 00 00	
       B9 72 71 B8 00 7D	
       65 0F			
 4600  42 06 B8 00 00 71	DB 66, 6, 184, 0, 0, 113, 113, 0, 0, 113, 6, 41
				, 41, 42, 41, 6, 0, 0, 199, 20
       71 00 00 71 06 29	
       29 2A 29 06 00 00	
       C7 14			
 4614  06 06 72 B9 B9 29	DB 6, 6, 114, 185, 185, 41, 42, 6, 17, 0, 0, 17
				, 186, 114, 6, 6, 6, 6, 186, 0
       2A 06 11 00 00 11	
       BA 72 06 06 06 06	
       BA 00			
 4628  00 00 71 06 06 71	DB 0, 0, 113, 6, 6, 113, 0, 220, 90, 30, 67, 41
				, 113, 0, 17, 114, 6, 114, 185, 185
       00 DC 5A 1E 43 29	
       71 00 11 72 06 72	
       B9 B9			
 463C  71 72 06 06 06 71	DB 113, 114, 6, 6, 6, 113, 0, 0, 17, 113, 114, 
				114, 185, 0, 186, 41, 42, 6, 17, 0
       00 00 11 71 72 72	
       B9 00 BA 29 2A 06	
       11 00			
 4650  00 00 00 11 11 11	DB 0, 0, 0, 17, 17, 17, 185, 17, 0, 0, 0, 186, 
				6, 41, 6, 185, 0, 17, 12, 66
       B9 11 00 00 00 BA	
       06 29 06 B9 00 11	
       0C 42			
 4664  2B 29 71 00 00 72	DB 43, 41, 113, 0, 0, 114, 42, 42, 6, 185, 0, 0
				, 17, 185, 185, 17, 0, 0, 113, 6
       2A 2A 06 B9 00 00	
       11 B9 B9 11 00 00	
       71 06			
 4678  06 BA 00 00 BA 29	DB 6, 186, 0, 0, 186, 41, 42, 6, 17, 0, 0, 0, 0
				, 0, 0, 0, 0, 0, 0, 0
       2A 06 11 00 00 00	
       00 00 00 00 00 00	
       00 00			
 468C  B9 06 29 2A 29 72	DB 185, 6, 41, 42, 41, 114, 17, 0, 113, 6, 6, 1
				14, 185, 17, 185, 6, 42, 42, 41, 185
       11 00 71 06 06 72	
       B9 11 B9 06 2A 2A	
       29 B9			
 46A0  00 00 00 00 00 00	DB 0, 0, 0, 0, 0, 0, 0, 0, 113, 4, 113, 0, 0, 0
				, 0, 6, 41, 114, 17, 0
       00 00 71 04 71 00	
       00 00 00 06 29 72	
       11 00			
 46B4  00 00 00 00 00 00	DB 0, 0, 0, 0, 0, 0, 0, 0, 0, 186, 6, 6, 41, 41
				, 41, 6, 114, 185, 17, 184
Microsoft (R) Macro Assembler Version 5.10                  12/6/19 16:06:45
                                                             Page     1-109


       00 00 00 BA 06 06	
       29 29 29 06 72 B9	
       11 B8			
 46C8  B9 B9 B9 71 72 06	DB 185, 185, 185, 113, 114, 6, 42, 42, 41, 186,
				 0, 0, 0, 0, 0, 0, 0, 0, 17, 184
       2A 2A 29 BA 00 00	
       00 00 00 00 00 00	
       11 B8			
 46DC  00 00 00 00 00 B9	DB 0, 0, 0, 0, 0, 185, 113, 185, 0, 0, 0, 0, 0,
				 0, 0, 0, 0, 0, 17, 6
       71 B9 00 00 00 00	
       00 00 00 00 00 00	
       11 06			
 46F0  29 29 29 29 29 29	DB 41, 41, 41, 41, 41, 41, 6, 114, 0, 0, 0, 0, 
				186, 6, 41, 41, 41, 41, 6, 113
       06 72 00 00 00 00	
       BA 06 29 29 29 29	
       06 71			
 4704  00 00 00 00 00 00	DB 0, 0, 0, 0, 0, 0, 0, 0, 0, 0, 0, 0, 0, 17, 1
				7, 0, 0, 0, 0, 0
       00 00 00 00 00 00	
       00 11 11 00 00 00	
       00 00			
 4718  11 11 00 00 11 B9	DB 17, 17, 0, 0, 17, 185, 17, 0, 185, 6, 42, 41
				, 6, 6, 41, 41, 41, 6, 186, 0
       11 00 B9 06 2A 29	
       06 06 29 29 29 06	
       BA 00			
 472C  00 11 72 06 2A 29	DB 0, 17, 114, 6, 42, 41, 6, 114, 114, 113, 185
				, 0, 0, 17, 244, 174, 174, 150, 151, 220
       06 72 72 71 B9 00	
       00 11 F4 AE AE 96	
       97 DC			
 4740  97 96 AD AC 96 11	DB 151, 150, 173, 172, 150, 17, 0, 0, 17, 17, 1
				8, 18, 17, 17, 113, 114, 186, 0, 185, 6
       00 00 11 11 12 12	
       11 11 71 72 BA 00	
       B9 06			
 4754  2A 29 06 06 29 29	DB 42, 41, 6, 6, 41, 41, 41, 6, 114, 186, 186, 
				114, 6, 41, 42, 41, 6, 185, 185, 114
       29 06 72 BA BA 72	
       06 29 2A 29 06 B9	
       B9 72			
 4768  71 B9 11 DD 18 1D	DB 113, 185, 17, 221, 24, 29, 29, 28, 28, 28, 2
				8, 28, 29, 29, 27, 221, 0, 17, 18, 18
       1D 1C 1C 1C 1C 1C	
       1D 1D 1B DD 00 11	
       12 12			
 477C  F5 F5 11 11 72 06	DB 245, 245, 17, 17, 114, 6, 114, 17, 17, 6, 41
				, 41, 41, 41, 41, 41, 41, 6, 6, 6
       72 11 11 06 29 29	
       29 29 29 29 29 06	
       06 06			
 4790  06 06 29 29 2A 29	DB 6, 6, 41, 41, 42, 41, 113, 0, 0, 114, 6, 113
Microsoft (R) Macro Assembler Version 5.10                  12/6/19 16:06:45
                                                             Page     1-110


				, 186, 20, 27, 15, 15, 15, 15, 15
       71 00 00 72 06 71	
       BA 14 1B 0F 0F 0F	
       0F 0F			
 47A4  0F 0F 0F 0F 1E 08	DB 15, 15, 15, 15, 30, 8, 0, 17, 222, 245, 245,
				 245, 18, 17, 6, 6, 6, 17, 0, 6
       00 11 DE F5 F5 F5	
       12 11 06 06 06 11	
       00 06			
 47B8  29 29 29 29 29 29	DB 41, 41, 41, 41, 41, 41, 41, 41, 41, 41, 41, 
				41, 41, 42, 42, 41, 186, 0, 0, 114
       29 29 29 29 29 29	
       29 2A 2A 29 BA 00	
       00 72			
 47CC  29 06 BA EA 41 5B	DB 41, 6, 186, 234, 65, 91, 91, 91, 91, 91, 91,
				 91, 30, 91, 66, 137, 0, 18, 245, 245
       5B 5B 5B 5B 5B 5B	
       1E 5B 42 89 00 12	
       F5 F5			
 47E0  F5 F5 11 11 72 06	DB 245, 245, 17, 17, 114, 6, 114, 17, 0, 6, 41,
				 41, 6, 6, 6, 6, 6, 41, 41, 41
       72 11 00 06 29 29	
       06 06 06 06 06 29	
       29 29			
 47F4  29 29 29 29 29 29	DB 41, 41, 41, 41, 41, 41, 114, 0, 0, 114, 6, 1
				14, 185, 185, 6, 12, 12, 12, 12, 12
       72 00 00 72 06 72	
       B9 B9 06 0C 0C 0C	
       0C 0C			
 4808  0C 0C 41 41 0C D1	DB 12, 12, 65, 65, 12, 209, 0, 17, 245, 245, 24
				5, 245, 17, 17, 114, 6, 114, 0, 0, 6
       00 11 F5 F5 F5 F5	
       11 11 72 06 72 00	
       00 06			
 481C  29 29 06 72 72 72	DB 41, 41, 6, 114, 114, 114, 6, 42, 42, 42, 42,
				 41, 6, 114, 114, 6, 6, 114, 185, 186
       06 2A 2A 2A 2A 29	
       06 72 72 06 06 72	
       B9 BA			
 4830  BA B9 00 00 B9 71	DB 186, 185, 0, 0, 185, 113, 113, 113, 113, 113
				, 113, 113, 113, 4, 113, 185, 0, 17, 245, 245
       71 71 71 71 71 71	
       71 04 71 B9 00 11	
       F5 F5			
 4844  F5 F5 11 11 72 06	DB 245, 245, 17, 17, 114, 6, 114, 0, 0, 6, 42, 
				41, 114, 185, 17, 185, 6, 42, 42, 42
       72 00 00 06 2A 29	
       72 B9 11 B9 06 2A	
       2A 2A			
 4858  2A 06 71 11 11 72	DB 42, 6, 113, 17, 17, 114, 41, 41, 6, 185, 0, 
				0, 0, 0, 0, 0, 0, 0, 0, 0
       29 29 06 B9 00 00	
       00 00 00 00 00 00	
       00 00			
Microsoft (R) Macro Assembler Version 5.10                  12/6/19 16:06:45
                                                             Page     1-111


 486C  00 00 00 11 11 00	DB 0, 0, 0, 17, 17, 0, 0, 17, 245, 245, 245, 24
				5, 17, 17, 114, 6, 114, 17, 17, 6
       00 11 F5 F5 F5 F5	
       11 11 72 06 72 11	
       11 06			
 4880  2A 2A 06 BA 00 00	DB 42, 42, 6, 186, 0, 0, 113, 6, 6, 6, 6, 114, 
				185, 0, 17, 114, 41, 42, 41, 113
       71 06 06 06 06 72	
       B9 00 11 72 29 2A	
       29 71			
 4894  11 00 00 00 00 00	DB 17, 0, 0, 0, 0, 0, 0, 0, 0, 0, 0, 0, 0, 0, 0
				, 0, 0, 17, 245, 245
       00 00 00 00 00 00	
       00 00 00 00 00 11	
       F5 F5			
 48A8  F5 F5 11 11 72 06	DB 245, 245, 17, 17, 114, 6, 6, 17, 17, 6, 42, 
				42, 41, 114, 186, 17, 17, 17, 185, 185
       06 11 11 06 2A 2A	
       29 72 BA 11 11 11	
       B9 B9			
 48BC  11 11 11 BA 72 06	DB 17, 17, 17, 186, 114, 6, 41, 42, 42, 6, 114,
				 185, 0, 0, 0, 0, 0, 0, 0, 0
       29 2A 2A 06 72 B9	
       00 00 00 00 00 00	
       00 00			
 48D0  00 00 00 00 00 00	DB 0, 0, 0, 0, 0, 0, 0, 17, 245, 245, 245, 245,
				 17, 17, 114, 6, 114, 17, 17, 114
       00 11 F5 F5 F5 F5	
       11 11 72 06 72 11	
       11 72			
 48E4  29 2A 2A 29 06 71	DB 41, 42, 42, 41, 6, 113, 0, 0, 0, 0, 0, 0, 18
				6, 114, 6, 41, 41, 41, 42, 41
       00 00 00 00 00 00	
       BA 72 06 29 29 29	
       2A 29			
 48F8  06 72 00 00 00 00	DB 6, 114, 0, 0, 0, 0, 0, 0, 0, 0, 0, 0, 0, 0, 
				0, 0, 0, 17, 245, 245
       00 00 00 00 00 00	
       00 00 00 00 00 11	
       F5 F5			
 490C  F5 F5 11 00 BA 71	DB 245, 245, 17, 0, 186, 113, 186, 0, 0, 186, 6
				, 41, 42, 42, 41, 6, 185, 0, 0, 0
       BA 00 00 BA 06 29	
       2A 2A 29 06 B9 00	
       00 00			
 4920  00 11 72 06 29 29	DB 0, 17, 114, 6, 41, 41, 41, 41, 42, 41, 6, 11
				3, 0, 0, 0, 0, 0, 0, 0, 0
       29 29 2A 29 06 71	
       00 00 00 00 00 00	
       00 00			
 4934  11 B9 BA 71 B9 00	DB 17, 185, 186, 113, 185, 0, 0, 17, 245, 245, 
				245, 245, 17, 0, 17, 185, 17, 0, 0, 17
       00 11 F5 F5 F5 F5	
       11 00 11 B9 11 00	
Microsoft (R) Macro Assembler Version 5.10                  12/6/19 16:06:45
                                                             Page     1-112


       00 11			
 4948  BA 06 29 2A 29 29	DB 186, 6, 41, 42, 41, 41, 6, 113, 113, 113, 11
				3, 114, 6, 41, 41, 41, 41, 41, 41, 6
       06 71 71 71 71 72	
       06 29 29 29 29 29	
       29 06			
 495C  BA 11 00 00 00 00	DB 186, 17, 0, 0, 0, 0, 0, 0, 0, 0, 185, 114, 6
				, 6, 114, 185, 0, 17, 245, 245
       00 00 00 00 B9 72	
       06 06 72 B9 00 11	
       F5 F5			
 4970  F5 F5 11 00 00 00	DB 245, 245, 17, 0, 0, 0, 0, 0, 0, 0, 0, 113, 6
				, 41, 42, 42, 41, 41, 41, 41
       00 00 00 00 00 71	
       06 29 2A 2A 29 29	
       29 29			
 4984  29 29 29 29 2A 2A	DB 41, 41, 41, 41, 42, 42, 41, 41, 6, 186, 0, 0
				, 0, 17, 185, 185, 17, 0, 0, 0
       29 29 06 BA 00 00	
       00 11 B9 B9 11 00	
       00 00			
 4998  71 29 2A 2A 29 BA	DB 113, 41, 42, 42, 41, 186, 0, 17, 245, 245, 2
				45, 246, 18, 0, 0, 185, 185, 0, 0, 0
       00 11 F5 F5 F5 F6	
       12 00 00 B9 B9 00	
       00 00			
 49AC  00 11 72 06 29 2A	DB 0, 17, 114, 6, 41, 42, 42, 42, 42, 42, 42, 4
				2, 42, 42, 42, 42, 41, 6, 186, 0
       2A 2A 2A 2A 2A 2A	
       2A 2A 2A 2A 29 06	
       BA 00			
 49C0  00 00 00 BA 72 72	DB 0, 0, 0, 186, 114, 114, 185, 0, 0, 0, 114, 4
				2, 42, 42, 41, 186, 0, 17, 245, 245
       B9 00 00 00 72 2A	
       2A 2A 29 BA 00 11	
       F5 F5			
 49D4  F5 DE 11 00 71 06	DB 245, 222, 17, 0, 113, 6, 114, 17, 0, 0, 0, 0
				, 17, 114, 6, 42, 42, 41, 41, 41
       72 11 00 00 00 00	
       11 72 06 2A 2A 29	
       29 29			
 49E8  29 29 29 29 29 29	DB 41, 41, 41, 41, 41, 41, 6, 113, 0, 0, 0, 0, 
				0, 186, 6, 6, 186, 0, 0, 0
       06 71 00 00 00 00	
       00 BA 06 06 BA 00	
       00 00			
 49FC  71 29 2A 2A 06 BA	DB 113, 41, 42, 42, 6, 186, 0, 17, 245, 245, 18
				, 18, 17, 113, 6, 41, 6, 114, 17, 0
       00 11 F5 F5 12 12	
       11 71 06 29 06 72	
       11 00			
 4A10  00 00 00 B9 71 06	DB 0, 0, 0, 185, 113, 6, 6, 114, 114, 114, 114,
				 114, 114, 114, 6, 6, 113, 0, 0, 0
       06 72 72 72 72 72	
Microsoft (R) Macro Assembler Version 5.10                  12/6/19 16:06:45
                                                             Page     1-113


       72 72 06 06 71 00	
       00 00			
 4A24  00 00 00 11 71 72	DB 0, 0, 0, 17, 113, 114, 185, 0, 0, 0, 185, 11
				3, 114, 114, 113, 17, 0, 18, 246, 245
       B9 00 00 00 B9 71	
       72 72 71 11 00 12	
       F6 F5			
 4A38  11 11 BA 06 29 2A	DB 17, 17, 186, 6, 41, 42, 42, 41, 114, 0, 0, 0
				, 0, 0, 0, 17, 17, 0, 0, 0
       2A 29 72 00 00 00	
       00 00 00 11 11 00	
       00 00			
 4A4C  00 00 00 11 11 11	DB 0, 0, 0, 17, 17, 17, 17, 0, 0, 0, 0, 0, 0, 0
				, 0, 17, 17, 0, 0, 0
       11 00 00 00 00 00	
       00 00 00 11 11 00	
       00 00			
 4A60  00 00 00 00 00 00	DB 0, 0, 0, 0, 0, 0, 0, 17, 246, 245, 0, 17, 11
				4, 41, 42, 42, 42, 42, 6, 0
       00 11 F6 F5 00 11	
       72 29 2A 2A 2A 2A	
       06 00			
 4A74  00 00 00 00 00 00	DB 0, 0, 0, 0, 0, 0, 0, 0, 0, 0, 0, 0, 0, 0, 0,
				 0, 0, 0, 0, 0
       00 00 00 00 00 00	
       00 00 00 00 00 00	
       00 00			
 4A88  00 00 00 00 00 00	DB 0, 0, 0, 0, 0, 0, 0, 0, 0, 0, 0, 0, 0, 0, 0,
				 0, 0, 17, 18, 222
       00 00 00 00 00 00	
       00 00 00 00 00 11	
       12 DE			
 4A9C  00 11 06 29 2A 2A	DB 0, 17, 6, 41, 42, 42, 42, 42, 6, 0, 0, 0, 0,
				 0, 0, 0, 0, 0, 0, 0
       2A 2A 06 00 00 00	
       00 00 00 00 00 00	
       00 00			
 4AB0  00 00 00 00 00 00	DB 0, 0, 0, 0, 0, 0, 0, 0, 0, 0, 0, 17, 186, 11
				4, 114, 186, 0, 0, 0, 0
       00 00 00 00 00 11	
       BA 72 72 BA 00 00	
       00 00			
 4AC4  00 00 00 BA BA 00	DB 0, 0, 0, 186, 186, 0, 0, 17, 17, 18, 0, 0, 1
				14, 41, 41, 41, 41, 41, 114, 17
       00 11 11 12 00 00	
       72 29 29 29 29 29	
       72 11			
 4AD8  00 00 00 00 00 00	DB 0, 0, 0, 0, 0, 0, 0, 0, 0, 0, 0, 0, 0, 0, 0,
				 0, 0, 0, 0, 0
       00 00 00 00 00 00	
       00 00 00 00 00 00	
       00 00			
 4AEC  00 BA 06 2A 2A 72	DB 0, 186, 6, 42, 42, 114, 0, 0, 17, 17, 17, 0,
				 185, 6, 6, 113, 0, 0, 0, 17
Microsoft (R) Macro Assembler Version 5.10                  12/6/19 16:06:45
                                                             Page     1-114


       00 00 11 11 11 00	
       B9 06 06 71 00 00	
       00 11			
 4B00  00 00 72 29 2A 29	DB 0, 0, 114, 41, 42, 41, 6, 114, 113, 186, 186
				, 186, 185, 17, 0, 0, 0, 0, 0, 0
       06 72 71 BA BA BA	
       B9 11 00 00 00 00	
       00 00			
 4B14  00 00 00 00 00 00	DB 0, 0, 0, 0, 0, 0, 0, 185, 185, 185, 185, 114
				, 41, 42, 42, 6, 0, 0, 220, 149
       00 B9 B9 B9 B9 72	
       29 2A 2A 06 00 00	
       DC 95			
 4B28  DC 12 B9 06 2A 06	DB 220, 18, 185, 6, 42, 6, 186, 0, 0, 0, 0, 0, 
				114, 41, 42, 41, 114, 185, 185, 114
       BA 00 00 00 00 00	
       72 29 2A 29 72 B9	
       B9 72			
 4B3C  06 06 06 BA 00 00	DB 6, 6, 6, 186, 0, 0, 0, 0, 0, 0, 0, 0, 0, 0, 
				0, 0, 17, 114, 6, 6
       00 00 00 00 00 00	
       00 00 00 00 11 72	
       06 06			
 4B50  06 06 29 2A 2A 06	DB 6, 6, 41, 42, 42, 6, 0, 17, 23, 27, 25, 245,
				 184, 113, 41, 42, 6, 185, 0, 0
       00 11 17 1B 19 F5	
       B8 71 29 2A 06 B9	
       00 00			
 4B64  00 11 06 2A 2A 29	DB 0, 17, 6, 42, 42, 41, 113, 0, 17, 6, 42, 42,
				 41, 114, 17, 0, 17, 186, 186, 185
       71 00 11 06 2A 2A	
       29 72 11 00 11 BA	
       BA B9			
 4B78  BA BA BA B9 11 11	DB 186, 186, 186, 185, 17, 17, 113, 6, 42, 42, 
				41, 41, 42, 42, 42, 6, 0, 17, 7, 15
       71 06 2A 2A 29 29	
       2A 2A 2A 06 00 11	
       07 0F			
 4B8C  1C A1 B8 B9 06 2A	DB 28, 161, 184, 185, 6, 42, 41, 113, 0, 0, 0, 
				17, 6, 42, 42, 41, 113, 0, 17, 41
       29 71 00 00 00 11	
       06 2A 2A 29 71 00	
       11 29			
 4BA0  2A 2A 2A 72 B9 00	DB 42, 42, 42, 114, 185, 0, 186, 6, 6, 6, 6, 6,
				 6, 114, 114, 114, 6, 42, 42, 42
       BA 06 06 06 06 06	
       06 72 72 72 06 2A	
       2A 2A			
 4BB4  2A 2A 2A 2A 2A 06	DB 42, 42, 42, 42, 42, 6, 0, 17, 25, 90, 66, 6,
				 185, 184, 113, 42, 42, 114, 17, 0
       00 11 19 5A 42 06	
       B9 B8 71 2A 2A 72	
       11 00			
 4BC8  00 11 06 2A 2A 06	DB 0, 17, 6, 42, 42, 6, 186, 0, 0, 6, 42, 42, 4
Microsoft (R) Macro Assembler Version 5.10                  12/6/19 16:06:45
                                                             Page     1-115


				1, 114, 185, 185, 114, 41, 41, 41
       BA 00 00 06 2A 2A	
       29 72 B9 B9 72 29	
       29 29			
 4BDC  06 06 06 06 06 06	DB 6, 6, 6, 6, 6, 6, 41, 41, 42, 42, 41, 41, 41
				, 41, 41, 113, 0, 0, 137, 12
       29 29 2A 2A 29 29	
       29 29 29 71 00 00	
       89 0C			
 4BF0  0C 06 71 B9 BA 06	DB 12, 6, 113, 185, 186, 6, 41, 114, 17, 0, 0, 
				17, 113, 6, 6, 113, 184, 0, 0, 184
       29 72 11 00 00 11	
       71 06 06 71 B8 00	
       00 B8			
 4C04  71 06 72 B9 11 11	DB 113, 6, 114, 185, 17, 17, 114, 6, 6, 6, 113,
				 112, 112, 113, 113, 114, 6, 114, 114, 114
       72 06 06 06 71 70	
       70 71 71 72 06 72	
       72 72			
 4C18  72 72 71 71 71 B8	DB 114, 114, 113, 113, 113, 184, 0, 0, 17, 113,
				 6, 6, 113, 113, 114, 41, 41, 114, 0, 0
       00 00 11 71 06 06	
       71 71 72 29 29 72	
       00 00			
 4C2C  00 00 00 11 11 00	DB 0, 0, 0, 17, 17, 0, 0, 0, 0, 0, 0, 17, 17, 0
				, 0, 0, 17, 185, 185, 0
       00 00 00 00 00 11	
       11 00 00 00 11 B9	
       B9 00			
 4C40  00 00 00 00 00 11	DB 0, 0, 0, 0, 0, 17, 17, 17, 17, 0, 0, 0, 0, 0
				, 0, 0, 0, 0, 0, 0
       11 11 11 00 00 00	
       00 00 00 00 00 00	
       00 00			
 4C54  B8 B9 BA 72 29 2A	DB 184, 185, 186, 114, 41, 42, 41, 113, 0, 0, 0
				, 0, 0, 0, 0, 0, 0, 198, 221, 196
       29 71 00 00 00 00	
       00 00 00 00 00 C6	
       DD C4			
 4C68  11 00 00 00 00 00	DB 17, 0, 0, 0, 0, 0, 0, 0, 0, 0, 17, 197, 197,
				 198, 0, 0, 0, 0, 0, 0
       00 00 00 00 11 C5	
       C5 C6 00 00 00 00	
       00 00			
 4C7C  00 00 00 00 11 DD	DB 0, 0, 0, 0, 17, 221, 244, 198, 0, 0, 0, 0, 1
				7, 114, 41, 42, 42, 114, 0, 0
       F4 C6 00 00 00 00	
       11 72 29 2A 2A 72	
       00 00			
 4C90  00 00 00 00 00 00	DB 0, 0, 0, 0, 0, 0, 245, 25, 28, 28, 24, 17, 0
				, 0, 0, 0, 0, 0, 0, 0
       F5 19 1C 1C 18 11	
       00 00 00 00 00 00	
       00 00			
Microsoft (R) Macro Assembler Version 5.10                  12/6/19 16:06:45
                                                             Page     1-116


 4CA4  AC 1B 1C 07 96 00	DB 172, 27, 28, 7, 150, 0, 0, 0, 0, 0, 0, 0, 0,
				 198, 172, 28, 29, 7, 222, 0
       00 00 00 00 00 00	
       00 C6 AC 1C 1D 07	
       DE 00			
 4CB8  00 00 00 B9 06 2A	DB 0, 0, 0, 185, 6, 42, 42, 114, 17, 0, 0, 0, 0
				, 0, 0, 0, 22, 30, 15, 15
       2A 72 11 00 00 00	
       00 00 00 00 16 1E	
       0F 0F			
 4CCC  1E AC 00 00 00 00	DB 30, 172, 0, 0, 0, 0, 0, 0, 0, 17, 27, 15, 15
				, 15, 28, 8, 17, 0, 0, 0
       00 00 00 11 1B 0F	
       0F 0F 1C 08 11 00	
       00 00			
 4CE0  00 00 00 14 1C 0F	DB 0, 0, 0, 20, 28, 15, 15, 15, 24, 17, 0, 0, 0
				, 0, 186, 6, 41, 114, 17, 0
       0F 0F 18 11 00 00	
       00 00 BA 06 29 72	
       11 00			
 4CF4  11 11 00 00 00 00	DB 17, 17, 0, 0, 0, 0, 162, 90, 15, 15, 15, 28,
				 8, 18, 17, 0, 0, 0, 0, 17
       A2 5A 0F 0F 0F 1C	
       08 12 11 00 00 00	
       00 11			
 4D08  41 1E 0F 0F 1E 1B	DB 65, 30, 15, 15, 30, 27, 8, 17, 0, 0, 0, 0, 0
				, 137, 89, 15, 15, 15, 29, 23
       08 11 00 00 00 00	
       00 89 59 0F 0F 0F	
       1D 17			
 4D1C  13 11 00 00 00 72	DB 19, 17, 0, 0, 0, 114, 6, 113, 17, 0, 18, 18,
				 17, 0, 0, 0, 136, 64, 66, 66
       06 71 11 00 12 12	
       11 00 00 00 88 40	
       42 42			
 4D30  5A 5B 1C 17 12 00	DB 90, 91, 28, 23, 18, 0, 0, 0, 0, 17, 6, 65, 6
				6, 89, 91, 30, 7, 246, 0, 0
       00 00 00 11 06 41	
       42 59 5B 1E 07 F6	
       00 00			
 4D44  00 00 00 D1 0C 42	DB 0, 0, 0, 209, 12, 66, 66, 67, 91, 29, 24, 22
				3, 0, 0, 0, 185, 185, 17, 0, 0
       42 43 5B 1D 18 DF	
       00 00 00 B9 B9 11	
       00 00			
 4D58  F5 DE 12 11 00 00	DB 245, 222, 18, 17, 0, 0, 185, 114, 41, 41, 12
				, 90, 30, 25, 18, 0, 0, 0, 0, 0
       B9 72 29 29 0C 5A	
       1E 19 12 00 00 00	
       00 00			
 4D6C  71 06 29 0C 41 5A	DB 113, 6, 41, 12, 65, 90, 27, 8, 0, 0, 0, 0, 0
				, 185, 113, 6, 41, 12, 89, 30
       1B 08 00 00 00 00	
       00 B9 71 06 29 0C	
Microsoft (R) Macro Assembler Version 5.10                  12/6/19 16:06:45
                                                             Page     1-117


       59 1E			
 4D80  1B F5 00 00 00 00	DB 27, 245, 0, 0, 0, 0, 0, 0, 0, 17, 245, 245, 
				222, 18, 17, 0, 0, 184, 184, 184
       00 00 00 11 F5 F5	
       DE 12 11 00 00 B8	
       B8 B8			
 4D94  71 18 07 AD 11 00	DB 113, 24, 7, 173, 17, 0, 0, 0, 0, 0, 17, 184,
				 184, 113, 138, 25, 24, 245, 0, 0
       00 00 00 00 11 B8	
       B8 71 8A 19 18 F5	
       00 00			
 4DA8  00 00 00 00 B8 B8	DB 0, 0, 0, 0, 184, 184, 184, 113, 23, 7, 24, 1
				9, 0, 0, 0, 0, 0, 17, 17, 18
       B8 71 17 07 18 13	
       00 00 00 00 00 11	
       11 12			
 4DBC  F5 F5 F5 DE 12 00	DB 245, 245, 245, 222, 18, 0, 0, 0, 0, 0, 0, 20
				9, 245, 18, 0, 0, 0, 0, 0, 0
       00 00 00 00 00 D1	
       F5 12 00 00 00 00	
       00 00			
 4DD0  00 00 00 00 11 13	DB 0, 0, 0, 0, 17, 19, 19, 17, 0, 0, 0, 0, 0, 0
				, 0, 0, 0, 0, 18, 19
       13 11 00 00 00 00	
       00 00 00 00 00 00	
       12 13			
 4DE4  13 11 00 00 00 00	DB 19, 17, 0, 0, 0, 0, 0, 17, 18, 245, 245, 245
				, 245, 246, 18, 17, 0, 0, 0, 0
       00 11 12 F5 F5 F5	
       F5 F6 12 11 00 00	
       00 00			
 4DF8  00 00 00 00 00 00	DB 0, 0, 0, 0, 0, 0, 0, 0, 0, 0, 0, 0, 0, 0, 0,
				 0, 0, 0, 0, 0
       00 00 00 00 00 00	
       00 00 00 00 00 00	
       00 00			
 4E0C  00 00 00 00 00 00	DB 0, 0, 0, 0, 0, 0, 0, 0, 0, 0, 0, 0, 0, 0, 0,
				 0, 0, 17, 245, 245
       00 00 00 00 00 00	
       00 00 00 00 00 11	
       F5 F5			
				
 4E20  F5 F5 F5 F5 F5 F5	BITMAP_DOWNRIGHT_PLAYER1 DB 245, 245, 245, 245,
				 245, 245, 245, 245, 245, 245, 245, 245, 245, 2
				45, 245, 245, 222, 17, 0, 0
       F5 F5 F5 F5 F5 F5	
       F5 F5 F5 F5 DE 11	
       00 00			
 4E34  00 00 00 00 00 11	DB 0, 0, 0, 0, 0, 17, 222, 245, 245, 245, 245, 
				245, 245, 245, 245, 245, 245, 245, 245, 245
       DE F5 F5 F5 F5 F5	
       F5 F5 F5 F5 F5 F5	
       F5 F5			
 4E48  F5 F5 F5 F5 F5 F5	DB 245, 245, 245, 245, 245, 245, 245, 245, 245,
Microsoft (R) Macro Assembler Version 5.10                  12/6/19 16:06:45
                                                             Page     1-118


				 245, 245, 245, 245, 245, 245, 245, 245, 245, 2
				45, 245
       F5 F5 F5 F5 F5 F5	
       F5 F5 F5 F5 F5 F5	
       F5 F5			
 4E5C  F5 F5 F5 F5 F5 F6	DB 245, 245, 245, 245, 245, 246, 18, 17, 0, 185
				, 185, 17, 17, 185, 186, 18, 18, 246, 245, 245
       12 11 00 B9 B9 11	
       11 B9 BA 12 12 F6	
       F5 F5			
 4E70  F5 F5 F5 F5 F5 F5	DB 245, 245, 245, 245, 245, 245, 245, 245, 245,
				 245, 245, 245, 245, 245, 245, 245, 245, 245, 2
				45, 245
       F5 F5 F5 F5 F5 F5	
       F5 F5 F5 F5 F5 F5	
       F5 F5			
 4E84  F5 F5 F5 F5 F5 F5	DB 245, 245, 245, 245, 245, 245, 245, 245, 245,
				 245, 245, 245, 245, 245, 245, 18, 17, 0, 17, 1
				14
       F5 F5 F5 F5 F5 F5	
       F5 F5 F5 12 11 00	
       11 72			
 4E98  06 06 06 06 06 72	DB 6, 6, 6, 6, 6, 114, 17, 18, 245, 245, 245, 2
				45, 245, 245, 245, 245, 245, 245, 245, 245
       11 12 F5 F5 F5 F5	
       F5 F5 F5 F5 F5 F5	
       F5 F5			
 4EAC  F5 F5 F5 F5 F5 F5	DB 245, 245, 245, 245, 245, 245, 245, 245, 245,
				 245, 245, 245, 245, 245, 245, 245, 245, 245, 2
				45, 245
       F5 F5 F5 F5 F5 F5	
       F5 F5 F5 F5 F5 F5	
       F5 F5			
 4EC0  F5 F5 F5 F5 F5 12	DB 245, 245, 245, 245, 245, 18, 0, 0, 0, 114, 4
				1, 42, 42, 41, 6, 6, 186, 17, 222, 245
       00 00 00 72 29 2A	
       2A 29 06 06 BA 11	
       DE F5			
 4ED4  F5 F5 F5 F5 F5 F5	DB 245, 245, 245, 245, 245, 245, 245, 245, 245,
				 245, 245, 245, 245, 245, 245, 245, 245, 245, 2
				45, 245
       F5 F5 F5 F5 F5 F5	
       F5 F5 F5 F5 F5 F5	
       F5 F5			
 4EE8  F5 F5 F5 F5 F5 F5	DB 245, 245, 245, 245, 245, 245, 245, 245, 245,
				 245, 245, 245, 245, 245, 245, 18, 0, 0, 0, 185
       F5 F5 F5 F5 F5 F5	
       F5 F5 F5 12 00 00	
       00 B9			
 4EFC  72 2A 2A 06 B9 BA	DB 114, 42, 42, 6, 185, 186, 114, 186, 17, 222,
				 245, 245, 245, 245, 245, 245, 245, 245, 245, 2
				45
       72 BA 11 DE F5 F5	
       F5 F5 F5 F5 F5 F5	
Microsoft (R) Macro Assembler Version 5.10                  12/6/19 16:06:45
                                                             Page     1-119


       F5 F5			
 4F10  F5 F5 F5 F5 F5 F5	DB 245, 245, 245, 245, 245, 245, 245, 245, 245,
				 245, 245, 245, 245, 245, 245, 245, 245, 245, 2
				45, 245
       F5 F5 F5 F5 F5 F5	
       F5 F5 F5 F5 F5 F5	
       F5 F5			
 4F24  F5 F5 F5 F5 DE 12	DB 245, 245, 245, 245, 222, 18, 186, 17, 0, 0, 
				17, 114, 6, 186, 0, 17, 6, 41, 113, 18
       BA 11 00 00 11 72	
       06 BA 00 11 06 29	
       71 12			
 4F38  DE F5 F5 F5 F5 F5	DB 222, 245, 245, 245, 245, 245, 245, 245, 245,
				 245, 245, 245, 245, 245, 245, 245, 245, 245, 2
				45, 245
       F5 F5 F5 F5 F5 F5	
       F5 F5 F5 F5 F5 F5	
       F5 F5			
 4F4C  F5 F5 F5 F5 F5 F5	DB 245, 245, 245, 245, 245, 245, 245, 245, 245,
				 245, 245, 245, 245, 222, 17, 113, 6, 185, 0, 0
       F5 F5 F5 F5 F5 F5	
       F5 DE 11 71 06 B9	
       00 00			
 4F60  00 00 11 00 00 11	DB 0, 0, 17, 0, 0, 17, 6, 42, 6, 186, 18, 222, 
				245, 245, 245, 245, 245, 245, 245, 245
       06 2A 06 BA 12 DE	
       F5 F5 F5 F5 F5 F5	
       F5 F5			
 4F74  F5 F5 F5 F5 F5 F5	DB 245, 245, 245, 245, 245, 245, 245, 245, 245,
				 245, 245, 245, 245, 245, 245, 245, 245, 245, 2
				45, 245
       F5 F5 F5 F5 F5 F5	
       F5 F5 F5 F5 F5 F5	
       F5 F5			
 4F88  F5 F5 DE 12 71 72	DB 245, 245, 222, 18, 113, 114, 114, 113, 186, 
				185, 185, 17, 185, 185, 113, 113, 114, 114, 114
				, 114
       72 71 BA B9 B9 11	
       B9 B9 71 71 72 72	
       72 72			
 4F9C  BA 12 DE F5 F5 F5	DB 186, 18, 222, 245, 245, 245, 245, 245, 245, 
				245, 245, 245, 245, 245, 245, 245, 245, 245, 24
				5, 245
       F5 F5 F5 F5 F5 F5	
       F5 F5 F5 F5 F5 F5	
       F5 F5			
 4FB0  F5 F5 F5 F5 F5 F5	DB 245, 245, 245, 245, 245, 245, 245, 245, 245,
				 245, 245, 246, 18, 186, 41, 113, 185, 114, 6, 
				6
       F5 F5 F5 F5 F5 F6	
       12 BA 29 71 B9 72	
       06 06			
 4FC4  06 06 06 06 29 06	DB 6, 6, 6, 6, 41, 6, 185, 0, 0, 6, 6, 17, 18, 
				245, 245, 245, 245, 245, 245, 245
Microsoft (R) Macro Assembler Version 5.10                  12/6/19 16:06:45
                                                             Page     1-120


       B9 00 00 06 06 11	
       12 F5 F5 F5 F5 F5	
       F5 F5			
 4FD8  F5 F5 F5 F5 F5 F5	DB 245, 245, 245, 245, 245, 245, 245, 245, 245,
				 245, 245, 245, 245, 245, 245, 245, 245, 245, 2
				45, 245
       F5 F5 F5 F5 F5 F5	
       F5 F5 F5 F5 F5 F5	
       F5 F5			
 4FEC  F6 12 12 72 06 BA	DB 246, 18, 18, 114, 6, 186, 185, 6, 41, 41, 41
				, 41, 42, 42, 6, 186, 0, 0, 185, 114
       B9 06 29 29 29 29	
       2A 2A 06 BA 00 00	
       B9 72			
 5000  06 72 12 12 F6 F5	DB 6, 114, 18, 18, 246, 245, 245, 245, 245, 245
				, 245, 245, 245, 245, 245, 245, 245, 245, 245, 
				245
       F5 F5 F5 F5 F5 F5	
       F5 F5 F5 F5 F5 F5	
       F5 F5			
 5014  F5 F5 F5 F5 F5 F5	DB 245, 245, 245, 245, 245, 245, 245, 245, 245,
				 245, 18, 18, 114, 114, 185, 186, 114, 6, 41, 4
				1
       F5 F5 F5 F5 12 12	
       72 72 B9 BA 72 06	
       29 29			
 5028  29 29 29 06 71 00	DB 41, 41, 41, 6, 113, 0, 0, 185, 114, 113, 113
				, 6, 114, 18, 18, 245, 245, 245, 245, 245
       00 B9 72 71 71 06	
       72 12 12 F5 F5 F5	
       F5 F5			
 503C  F5 F5 F5 F5 F5 F5	DB 245, 245, 245, 245, 245, 245, 245, 245, 245,
				 245, 245, 245, 245, 245, 245, 222, 222, 222, 2
				22, 18
       F5 F5 F5 F5 F5 F5	
       F5 F5 F5 DE DE DE	
       DE 12			
 5050  D0 06 06 BA BA 72	DB 208, 6, 6, 186, 186, 114, 6, 41, 6, 6, 41, 4
				1, 6, 114, 186, 185, 184, 185, 113, 113
       06 29 06 06 29 29	
       06 72 BA B9 B8 B9	
       71 71			
 5064  BA 72 06 BA 11 DE	DB 186, 114, 6, 186, 17, 222, 245, 245, 245, 24
				5, 245, 245, 245, 245, 245, 245, 245, 245, 245,
				 245
       F5 F5 F5 F5 F5 F5	
       F5 F5 F5 F5 F5 F5	
       F5 F5			
 5078  F5 F5 F5 F5 F5 12	DB 245, 245, 245, 245, 245, 18, 17, 17, 17, 17,
				 6, 6, 186, 186, 6, 6, 41, 6, 6, 6
       11 11 11 11 06 06	
       BA BA 06 06 29 06	
       06 06			
 508C  29 06 BA B9 72 06	DB 41, 6, 186, 185, 114, 6, 6, 185, 17, 113, 11
Microsoft (R) Macro Assembler Version 5.10                  12/6/19 16:06:45
                                                             Page     1-121


				3, 17, 186, 6, 186, 17, 222, 245, 245, 245
       06 B9 11 71 71 11	
       BA 06 BA 11 DE F5	
       F5 F5			
 50A0  F5 F5 F5 F5 F5 F5	DB 245, 245, 245, 245, 245, 245, 245, 245, 245,
				 245, 245, 245, 245, 246, 18, 17, 186, 186, 0, 
				0
       F5 F5 F5 F5 F5 F5	
       F5 F6 12 11 BA BA	
       00 00			
 50B4  72 72 00 B9 06 2A	DB 114, 114, 0, 185, 6, 42, 41, 6, 6, 6, 42, 6,
				 17, 0, 6, 43, 65, 247, 0, 113
       29 06 06 06 2A 06	
       11 00 06 2B 41 F7	
       00 71			
 50C8  72 00 B9 06 06 BA	DB 114, 0, 185, 6, 6, 186, 18, 222, 245, 245, 2
				45, 245, 245, 245, 245, 245, 245, 245, 245, 245
       12 DE F5 F5 F5 F5	
       F5 F5 F5 F5 F5 F5	
       F5 F5			
 50DC  F5 F5 F5 12 11 71	DB 245, 245, 245, 18, 17, 113, 6, 6, 186, 0, 0,
				 0, 0, 185, 6, 42, 41, 6, 6, 6
       06 06 BA 00 00 00	
       00 B9 06 2A 29 06	
       06 06			
 50F0  29 06 B9 00 71 41	DB 41, 6, 185, 0, 113, 65, 91, 172, 17, 113, 11
				4, 0, 17, 6, 42, 6, 186, 18, 246, 245
       5B AC 11 71 72 00	
       11 06 2A 06 BA 12	
       F6 F5			
 5104  F5 F5 F5 F5 F5 F5	DB 245, 245, 245, 245, 245, 245, 245, 245, 245,
				 245, 245, 245, 222, 17, 113, 6, 41, 41, 6, 185
       F5 F5 F5 F5 F5 F5	
       DE 11 71 06 29 29	
       06 B9			
 5118  00 00 11 72 06 06	DB 0, 0, 17, 114, 6, 6, 114, 6, 41, 41, 41, 41,
				 114, 185, 17, 137, 25, 23, 210, 114
       72 06 29 29 29 29	
       72 B9 11 89 19 17	
       D2 72			
 512C  06 72 B9 71 29 2A	DB 6, 114, 185, 113, 41, 42, 6, 18, 18, 246, 24
				5, 245, 245, 245, 245, 245, 245, 245, 245, 245
       06 12 12 F6 F5 F5	
       F5 F5 F5 F5 F5 F5	
       F5 F5			
 5140  F5 DE 11 71 06 29	DB 245, 222, 17, 113, 6, 41, 41, 41, 41, 6, 0, 
				0, 114, 41, 41, 186, 17, 114, 41, 41
       29 29 29 06 00 00	
       72 29 29 BA 11 72	
       29 29			
 5154  06 29 06 71 00 00	DB 6, 41, 6, 113, 0, 0, 18, 137, 6, 41, 41, 41,
				 114, 17, 114, 41, 42, 114, 17, 18
       12 89 06 29 29 29	
       72 11 72 29 2A 72	
Microsoft (R) Macro Assembler Version 5.10                  12/6/19 16:06:45
                                                             Page     1-122


       11 12			
 5168  F5 F5 F5 F5 F5 F5	DB 245, 245, 245, 245, 245, 245, 245, 245, 245,
				 245, 18, 18, 0, 6, 42, 42, 41, 41, 42, 41
       F5 F5 F5 F5 12 12	
       00 06 2A 2A 29 29	
       2A 29			
 517C  B9 00 06 2A 29 11	DB 185, 0, 6, 42, 41, 17, 0, 114, 41, 41, 6, 41
				, 41, 6, 186, 17, 185, 6, 41, 41
       00 72 29 29 06 29	
       29 06 BA 11 B9 06	
       29 29			
 5190  2A 2A 06 11 B9 29	DB 42, 42, 6, 17, 185, 41, 42, 6, 17, 17, 18, 2
				46, 245, 245, 245, 245, 245, 245, 245, 245
       2A 06 11 11 12 F6	
       F5 F5 F5 F5 F5 F5	
       F5 F5			
 51A4  11 00 00 72 29 2A	DB 17, 0, 0, 114, 41, 42, 6, 6, 41, 6, 185, 0, 
				6, 42, 41, 185, 0, 186, 41, 41
       06 06 29 06 B9 00	
       06 2A 29 B9 00 BA	
       29 29			
 51B8  29 29 29 29 06 06	DB 41, 41, 41, 41, 6, 6, 113, 6, 41, 41, 42, 42
				, 114, 17, 186, 41, 41, 6, 208, 0
       71 06 29 29 2A 2A	
       72 11 BA 29 29 06	
       D0 00			
 51CC  11 12 F5 F5 F5 F5	DB 17, 18, 245, 245, 245, 245, 245, 245, 245, 2
				45, 0, 0, 0, 185, 6, 41, 6, 113, 113, 113
       F5 F5 F5 F5 00 00	
       00 B9 06 29 06 71	
       71 71			
 51E0  11 00 BA 06 29 72	DB 17, 0, 186, 6, 41, 114, 17, 17, 114, 41, 42,
				 41, 41, 41, 42, 41, 114, 185, 113, 6
       11 11 72 29 2A 29	
       29 29 2A 29 72 B9	
       71 06			
 51F4  29 06 BA 11 06 29	DB 41, 6, 186, 17, 6, 41, 6, 163, 24, 22, 18, 1
				7, 222, 245, 245, 245, 245, 245, 245, 245
       06 A3 18 16 12 11	
       DE F5 F5 F5 F5 F5	
       F5 F5			
 5208  00 00 00 00 BA 06	DB 0, 0, 0, 0, 186, 6, 114, 17, 0, 0, 0, 0, 0, 
				114, 41, 41, 114, 0, 0, 6
       72 11 00 00 00 00	
       00 72 29 29 72 00	
       00 06			
 521C  29 29 29 29 2A 06	DB 41, 41, 41, 41, 42, 6, 185, 0, 0, 114, 6, 18
				6, 0, 17, 6, 6, 113, 172, 101, 29
       B9 00 00 72 06 BA	
       00 11 06 06 71 AC	
       65 1D			
 5230  06 B9 11 DE F5 F5	DB 6, 185, 17, 222, 245, 245, 245, 245, 245, 24
				5, 0, 0, 0, 0, 17, 113, 114, 17, 0, 0
       F5 F5 F5 F5 00 00	
Microsoft (R) Macro Assembler Version 5.10                  12/6/19 16:06:45
                                                             Page     1-123


       00 00 11 71 72 11	
       00 00			
 5244  00 00 00 BA 29 2A	DB 0, 0, 0, 186, 41, 42, 6, 185, 0, 185, 113, 1
				14, 6, 6, 6, 113, 185, 0, 185, 113
       06 B9 00 B9 71 72	
       06 06 06 71 B9 00	
       B9 71			
 5258  B9 00 00 00 BA 71	DB 185, 0, 0, 0, 186, 113, 185, 161, 29, 91, 12
				, 6, 186, 18, 222, 245, 245, 245, 245, 245
       B9 A1 1D 5B 0C 06	
       BA 12 DE F5 F5 F5	
       F5 F5			
 526C  00 00 11 00 00 00	DB 0, 0, 17, 0, 0, 0, 113, 6, 6, 6, 185, 0, 0, 
				185, 6, 42, 42, 6, 114, 17
       71 06 06 06 B9 00	
       00 B9 06 2A 2A 06	
       72 11			
 5280  00 00 72 06 B9 11	DB 0, 0, 114, 6, 185, 17, 113, 6, 114, 186, 17,
				 0, 0, 0, 0, 17, 185, 6, 64, 65
       71 06 72 BA 11 00	
       00 00 00 11 B9 06	
       40 41			
 5294  2A 29 06 BA 12 F6	DB 42, 41, 6, 186, 18, 246, 245, 245, 245, 245,
				 0, 244, 172, 17, 0, 0, 186, 42, 42, 41
       F5 F5 F5 F5 00 F4	
       AC 11 00 00 BA 2A	
       2A 29			
 52A8  BA 00 00 00 71 29	DB 186, 0, 0, 0, 113, 41, 42, 42, 41, 113, 17, 
				185, 6, 114, 0, 0, 114, 4, 113, 161
       2A 2A 29 71 11 B9	
       06 72 00 00 72 04	
       71 A1			
 52BC  F4 00 00 00 B9 BA	DB 244, 0, 0, 0, 185, 186, 186, 6, 41, 42, 41, 
				6, 114, 17, 17, 246, 245, 245, 245, 245
       BA 06 29 2A 29 06	
       72 11 11 F6 F5 F5	
       F5 F5			
 52D0  11 18 1D 16 00 00	DB 17, 24, 29, 22, 0, 0, 186, 42, 42, 41, 186, 
				0, 0, 0, 0, 114, 42, 42, 41, 6
       BA 2A 2A 29 BA 00	
       00 00 00 72 2A 2A	
       29 06			
 52E4  06 06 29 72 11 11	DB 6, 6, 41, 114, 17, 17, 113, 112, 17, 25, 27,
				 200, 0, 0, 6, 6, 186, 113, 6, 41
       71 70 11 19 1B C8	
       00 00 06 06 BA 71	
       06 29			
 52F8  29 71 11 00 11 F6	DB 41, 113, 17, 0, 17, 246, 245, 245, 245, 245,
				 0, 163, 91, 29, 174, 17, 17, 114, 6, 6
       F5 F5 F5 F5 00 A3	
       5B 1D AE 11 11 72	
       06 06			
 530C  71 BA B9 00 00 11	DB 113, 186, 185, 0, 0, 17, 114, 6, 6, 41, 42, 
				42, 42, 6, 114, 186, 113, 184, 186, 28
Microsoft (R) Macro Assembler Version 5.10                  12/6/19 16:06:45
                                                             Page     1-124


       72 06 06 29 2A 2A	
       2A 06 72 BA 71 B8	
       BA 1C			
 5320  0F A3 00 00 06 29	DB 15, 163, 0, 0, 6, 41, 186, 17, 113, 6, 114, 
				17, 0, 185, 208, 18, 18, 245, 245, 245
       BA 11 71 06 72 11	
       00 B9 D0 12 12 F5	
       F5 F5			
 5334  00 D1 41 0F 1C 96	DB 0, 209, 65, 15, 28, 150, 0, 17, 17, 185, 114
				, 6, 6, 113, 0, 0, 17, 17, 185, 6
       00 11 11 B9 72 06	
       06 71 00 00 11 11	
       B9 06			
 5348  2A 2A 29 29 29 72	DB 42, 42, 41, 41, 41, 114, 185, 184, 6, 90, 15
				, 64, 113, 0, 113, 6, 186, 0, 0, 17
       B9 B8 06 5A 0F 40	
       71 00 71 06 BA 00	
       00 11			
 535C  B9 00 11 72 72 D0	DB 185, 0, 17, 114, 114, 208, 17, 245, 245, 245
				, 17, 17, 6, 66, 90, 162, 0, 0, 0, 0
       11 F5 F5 F5 11 11	
       06 42 5A A2 00 00	
       00 00			
 5370  06 2A 2A 06 71 00	DB 6, 42, 42, 6, 113, 0, 0, 0, 0, 186, 6, 114, 
				114, 6, 6, 113, 17, 0, 113, 65
       00 00 00 BA 06 72	
       72 06 06 71 11 00	
       71 41			
 5384  42 2A 06 89 B8 B8	DB 66, 42, 6, 137, 184, 184, 184, 0, 0, 0, 0, 1
				86, 114, 6, 114, 185, 0, 245, 245, 245
       B8 00 00 00 00 BA	
       72 06 72 B9 00 F5	
       F5 F5			
 5398  12 12 11 06 2A 72	DB 18, 18, 17, 6, 42, 114, 0, 0, 0, 0, 6, 42, 4
				2, 42, 6, 185, 0, 0, 0, 0
       00 00 00 00 06 2A	
       2A 2A 06 B9 00 00	
       00 00			
 53AC  00 00 00 00 11 11	DB 0, 0, 0, 0, 17, 17, 0, 0, 0, 6, 41, 41, 65, 
				28, 150, 0, 0, 0, 0, 0
       00 00 00 06 29 29	
       41 1C 96 00 00 00	
       00 00			
 53C0  00 72 06 72 B9 00	DB 0, 114, 6, 114, 185, 0, 0, 245, 245, 245, 24
				5, 222, 17, 185, 113, 185, 0, 0, 0, 0
       00 F5 F5 F5 F5 DE	
       11 B9 71 B9 00 00	
       00 00			
 53D4  B9 06 29 2A 2A 72	DB 185, 6, 41, 42, 42, 114, 185, 185, 17, 0, 0,
				 0, 0, 0, 0, 0, 0, 0, 0, 184
       B9 B9 11 00 00 00	
       00 00 00 00 00 00	
       00 B8			
 53E8  04 29 42 0F 65 14	DB 4, 41, 66, 15, 101, 20, 0, 0, 0, 0, 0, 186, 
Microsoft (R) Macro Assembler Version 5.10                  12/6/19 16:06:45
                                                             Page     1-125


				6, 186, 0, 17, 17, 245, 245, 245
       00 00 00 00 00 BA	
       06 BA 00 11 11 F5	
       F5 F5			
 53FC  F5 F5 DE 11 B8 00	DB 245, 245, 222, 17, 184, 0, 0, 0, 17, 17, 0, 
				185, 6, 42, 42, 41, 6, 6, 114, 17
       00 00 11 11 00 B9	
       06 2A 2A 29 06 06	
       72 11			
 5410  00 00 00 00 00 00	DB 0, 0, 0, 0, 0, 0, 0, 17, 17, 0, 184, 4, 64, 
				30, 15, 28, 20, 0, 0, 0
       00 11 11 00 B8 04	
       40 1E 0F 1C 14 00	
       00 00			
 5424  00 B9 B9 11 11 12	DB 0, 185, 185, 17, 17, 18, 18, 245, 245, 245, 
				245, 245, 245, 18, 17, 0, 0, 0, 8, 172
       12 F5 F5 F5 F5 F5	
       F5 12 11 00 00 00	
       08 AC			
 5438  11 00 B8 06 2A 29	DB 17, 0, 184, 6, 42, 41, 41, 41, 6, 114, 185, 
				186, 186, 17, 0, 0, 113, 6, 114, 17
       29 29 06 72 B9 BA	
       BA 11 00 00 71 06	
       72 11			
 544C  00 B8 06 59 0F 0F	DB 0, 184, 6, 89, 15, 15, 27, 18, 0, 0, 0, 0, 0
				, 17, 18, 245, 245, 245, 245, 245
       1B 12 00 00 00 00	
       00 11 12 F5 F5 F5	
       F5 F5			
 5460  F5 F5 F5 F6 12 11	DB 245, 245, 245, 246, 18, 17, 0, 17, 24, 29, 1
				75, 0, 0, 113, 41, 42, 41, 41, 41, 6
       00 11 18 1D AF 00	
       00 71 29 2A 29 29	
       29 06			
 5474  06 06 06 72 11 11	DB 6, 6, 6, 114, 17, 17, 6, 42, 41, 186, 0, 0, 
				185, 6, 89, 15, 15, 7, 18, 0
       06 2A 29 BA 00 00	
       B9 06 59 0F 0F 07	
       12 00			
 5488  00 00 00 12 DE F5	DB 0, 0, 0, 18, 222, 245, 245, 245, 245, 245, 2
				45, 245, 245, 245, 245, 18, 17, 0, 23, 30
       F5 F5 F5 F5 F5 F5	
       F5 F5 F5 12 11 00	
       17 1E			
 549C  1C 95 11 11 71 06	DB 28, 149, 17, 17, 113, 6, 41, 41, 41, 41, 41,
				 41, 42, 41, 114, 113, 114, 6, 6, 185
       29 29 29 29 29 29	
       2A 29 72 71 72 06	
       06 B9			
 54B0  00 00 00 B9 06 42	DB 0, 0, 0, 185, 6, 66, 15, 15, 25, 18, 0, 17, 
				18, 222, 245, 245, 245, 245, 245, 245
       0F 0F 19 12 00 11	
       12 DE F5 F5 F5 F5	
       F5 F5			
Microsoft (R) Macro Assembler Version 5.10                  12/6/19 16:06:45
                                                             Page     1-126


 54C4  F5 F5 F5 F5 F5 DE	DB 245, 245, 245, 245, 245, 222, 18, 0, 113, 65
				, 30, 28, 220, 0, 0, 114, 41, 41, 41, 41
       12 00 71 41 1E 1C	
       DC 00 00 72 29 29	
       29 29			
 54D8  29 29 29 29 29 72	DB 41, 41, 41, 41, 41, 114, 185, 17, 17, 17, 0,
				 0, 0, 0, 184, 6, 90, 15, 30, 25
       B9 11 11 11 00 00	
       00 00 B8 06 5A 0F	
       1E 19			
 54EC  11 12 DE F5 F5 F5	DB 17, 18, 222, 245, 245, 245, 245, 245, 245, 2
				45, 245, 245, 245, 245, 245, 245, 222, 17, 17, 
				6
       F5 F5 F5 F5 F5 F5	
       F5 F5 F5 F5 DE 11	
       11 06			
 5500  42 5A 08 00 00 11	DB 66, 90, 8, 0, 0, 17, 6, 41, 42, 41, 42, 41, 
				113, 112, 113, 185, 0, 0, 0, 186
       06 29 2A 29 2A 29	
       71 70 71 B9 00 00	
       00 BA			
 5514  71 00 00 00 00 B9	DB 113, 0, 0, 0, 0, 185, 6, 30, 15, 15, 24, 18,
				 222, 246, 245, 245, 245, 245, 245, 245
       06 1E 0F 0F 18 12	
       DE F6 F5 F5 F5 F5	
       F5 F5			
 5528  F5 F5 F5 F5 F5 F5	DB 245, 245, 245, 245, 245, 245, 245, 222, 17, 
				17, 6, 12, 210, 0, 0, 0, 185, 6, 42, 42
       F5 DE 11 11 06 0C	
       D2 00 00 00 B9 06	
       2A 2A			
 553C  29 29 BA 00 00 00	DB 41, 41, 186, 0, 0, 0, 0, 0, 0, 114, 6, 185, 
				0, 0, 0, 0, 113, 12, 15, 15
       00 00 00 72 06 B9	
       00 00 00 00 71 0C	
       0F 0F			
 5550  0F 16 12 DE F5 F5	DB 15, 22, 18, 222, 245, 245, 245, 245, 245, 24
				5, 245, 245, 245, 245, 245, 245, 245, 245, 18, 
				17
       F5 F5 F5 F5 F5 F5	
       F5 F5 F5 F5 F5 F5	
       12 11			
 5564  B9 71 B9 00 00 00	DB 185, 113, 185, 0, 0, 0, 0, 185, 6, 41, 6, 11
				4, 8, 150, 18, 185, 185, 0, 0, 113
       00 B9 06 29 06 72	
       08 96 12 B9 B9 00	
       00 71			
 5578  72 11 00 11 11 00	DB 114, 17, 0, 17, 17, 0, 0, 114, 66, 30, 29, 2
				2, 18, 222, 245, 245, 245, 245, 245, 245
       00 72 42 1E 1D 16	
       12 DE F5 F5 F5 F5	
       F5 F5			
 558C  F5 F5 F5 F5 F5 F5	DB 245, 245, 245, 245, 245, 245, 245, 245, 246,
				 18, 17, 184, 0, 0, 0, 17, 17, 0, 186, 6
Microsoft (R) Macro Assembler Version 5.10                  12/6/19 16:06:45
                                                             Page     1-127


       F5 F5 F6 12 11 B8	
       00 00 00 11 11 00	
       BA 06			
 55A0  71 B9 17 1B A4 06	DB 113, 185, 23, 27, 164, 6, 6, 185, 0, 17, 185
				, 17, 185, 114, 114, 0, 0, 185, 6, 12
       06 B9 00 11 B9 11	
       B9 72 72 00 00 B9	
       06 0C			
 55B4  A2 F7 DE F6 F5 F5	DB 162, 247, 222, 246, 245, 245, 245, 245, 245,
				 245, 245, 245, 245, 245, 245, 245, 245, 245, 2
				45, 245
       F5 F5 F5 F5 F5 F5	
       F5 F5 F5 F5 F5 F5	
       F5 F5			
 55C8  12 11 00 00 00 AE	DB 18, 17, 0, 0, 0, 174, 173, 17, 0, 185, 17, 0
				, 22, 89, 65, 42, 41, 113, 0, 0
       AD 11 00 B9 11 00	
       16 59 41 2A 29 71	
       00 00			
 55DC  11 72 72 06 71 11	DB 17, 114, 114, 6, 113, 17, 17, 17, 185, 113, 
				18, 18, 245, 245, 245, 245, 245, 245, 245, 245
       11 11 B9 71 12 12	
       F5 F5 F5 F5 F5 F5	
       F5 F5			
 55F0  F5 F5 F5 F5 F5 F5	DB 245, 245, 245, 245, 245, 245, 245, 245, 245,
				 245, 246, 18, 17, 0, 17, 7, 28, 150, 0, 0
       F5 F5 F5 F5 F6 12	
       11 00 11 07 1C 96	
       00 00			
 5604  00 00 88 0C 2A 2A	DB 0, 0, 136, 12, 42, 42, 41, 113, 0, 0, 185, 6
				, 6, 113, 18, 222, 222, 18, 17, 17
       29 71 00 00 B9 06	
       06 71 12 DE DE 12	
       11 11			
 5618  12 F6 F5 F5 F5 F5	DB 18, 246, 245, 245, 245, 245, 245, 245, 245, 
				245, 245, 245, 245, 245, 245, 245, 245, 245, 24
				5, 245
       F5 F5 F5 F5 F5 F5	
       F5 F5 F5 F5 F5 F5	
       F5 F5			
 562C  F5 F6 12 11 00 18	DB 245, 246, 18, 17, 0, 24, 30, 28, 174, 17, 0,
				 0, 113, 41, 42, 6, 114, 113, 186, 186
       1E 1C AE 11 00 00	
       71 29 2A 06 72 71	
       BA BA			
 5640  72 06 72 12 12 F5	DB 114, 6, 114, 18, 18, 245, 245, 222, 17, 18, 
				245, 245, 245, 245, 245, 245, 245, 245, 245, 24
				5
       F5 DE 11 12 F5 F5	
       F5 F5 F5 F5 F5 F5	
       F5 F5			
 5654  F5 F5 F5 F5 F5 F5	DB 245, 245, 245, 245, 245, 245, 245, 245, 245,
				 245, 245, 245, 222, 18, 0, 113, 66, 15, 29, 24
				4
Microsoft (R) Macro Assembler Version 5.10                  12/6/19 16:06:45
                                                             Page     1-128


       F5 F5 F5 F5 F5 F5	
       DE 12 00 71 42 0F	
       1D F4			
 5668  00 00 71 29 29 06	DB 0, 0, 113, 41, 41, 6, 186, 113, 6, 41, 6, 18
				6, 17, 18, 246, 245, 245, 245, 222, 222
       BA 71 06 29 06 BA	
       11 12 F6 F5 F5 F5	
       DE DE			
 567C  F5 F5 F5 F5 F5 F5	DB 245, 245, 245, 245, 245, 245, 245, 245, 245,
				 245, 245, 245, 245, 245, 245, 245, 245, 245, 2
				45, 245
       F5 F5 F5 F5 F5 F5	
       F5 F5 F5 F5 F5 F5	
       F5 F5			
 5690  F5 F5 F5 DE 11 11	DB 245, 245, 245, 222, 17, 17, 6, 67, 90, 8, 0,
				 0, 185, 114, 114, 113, 113, 6, 42, 41
       06 43 5A 08 00 00	
       B9 72 72 71 71 06	
       2A 29			
 56A4  72 11 11 F6 F5 F5	DB 114, 17, 17, 246, 245, 245, 245, 245, 245, 2
				45, 245, 245, 245, 245, 245, 245, 245, 245, 245
				, 245
       F5 F5 F5 F5 F5 F5	
       F5 F5 F5 F5 F5 F5	
       F5 F5			
 56B8  F5 F5 F5 F5 F5 F5	DB 245, 245, 245, 245, 245, 245, 245, 245, 245,
				 245, 245, 245, 245, 245, 222, 17, 185, 6, 12, 
				210
       F5 F5 F5 F5 F5 F5	
       F5 F5 DE 11 B9 06	
       0C D2			
 56CC  00 00 00 00 00 B9	DB 0, 0, 0, 0, 0, 185, 6, 41, 41, 114, 185, 0, 
				17, 245, 245, 245, 245, 245, 245, 245
       06 29 29 72 B9 00	
       11 F5 F5 F5 F5 F5	
       F5 F5			
 56E0  F5 F5 F5 F5 F5 F5	DB 245, 245, 245, 245, 245, 245, 245, 245, 245,
				 245, 245, 245, 245, 245, 245, 245, 245, 245, 2
				45, 245
       F5 F5 F5 F5 F5 F5	
       F5 F5 F5 F5 F5 F5	
       F5 F5			
 56F4  F5 F5 F5 F5 F5 12	DB 245, 245, 245, 245, 245, 18, 17, 113, 113, 1
				85, 0, 0, 0, 0, 0, 185, 6, 41, 6, 185
       11 71 71 B9 00 00	
       00 00 00 B9 06 29	
       06 B9			
 5708  00 11 12 F6 F5 F5	DB 0, 17, 18, 246, 245, 245, 245, 245, 245, 245
				, 245, 245, 245, 245, 245, 245, 245, 245, 245, 
				245
       F5 F5 F5 F5 F5 F5	
       F5 F5 F5 F5 F5 F5	
       F5 F5			
 571C  F5 F5 F5 F5 F5 F5	DB 245, 245, 245, 245, 245, 245, 245, 245, 245,
Microsoft (R) Macro Assembler Version 5.10                  12/6/19 16:06:45
                                                             Page     1-129


				 245, 245, 245, 245, 245, 245, 246, 18, 17, 184
				, 0
       F5 F5 F5 F5 F5 F5	
       F5 F5 F5 F6 12 11	
       B8 00			
 5730  00 00 00 00 00 B9	DB 0, 0, 0, 0, 0, 185, 6, 6, 186, 0, 0, 18, 222
				, 245, 245, 245, 245, 245, 245, 245
       06 06 BA 00 00 12	
       DE F5 F5 F5 F5 F5	
       F5 F5			
 5744  F5 F5 F5 F5 F5 F5	DB 245, 245, 245, 245, 245, 245, 245, 245, 245,
				 245, 245, 245, 245, 245, 245, 245, 245, 245, 2
				45, 245
       F5 F5 F5 F5 F5 F5	
       F5 F5 F5 F5 F5 F5	
       F5 F5			
 5758  F5 F5 F5 F5 F5 F5	DB 245, 245, 245, 245, 245, 245, 245, 18, 17, 0
				, 0, 0, 0, 0, 0, 17, 113, 186, 0, 0
       F5 12 11 00 00 00	
       00 00 00 11 71 BA	
       00 00			
 576C  11 F6 F5 F5 F5 F5	DB 17, 246, 245, 245, 245, 245, 245, 245, 245, 
				245, 245, 245, 245, 245, 245, 245, 245, 245, 24
				5, 245
       F5 F5 F5 F5 F5 F5	
       F5 F5 F5 F5 F5 F5	
       F5 F5			
 5780  F5 F5 F5 F5 F5 F5	DB 245, 245, 245, 245, 245, 245, 245, 245, 245,
				 245, 245, 245, 245, 245, 245, 245, 245, 222, 1
				8, 0
       F5 F5 F5 F5 F5 F5	
       F5 F5 F5 F5 F5 DE	
       12 00			
 5794  00 00 00 00 00 00	DB 0, 0, 0, 0, 0, 0, 17, 17, 0, 18, 222, 245, 2
				45, 245, 245, 245, 245, 245, 245, 245
       11 11 00 12 DE F5	
       F5 F5 F5 F5 F5 F5	
       F5 F5			
 57A8  F5 F5 F5 F5 F5 F5	DB 245, 245, 245, 245, 245, 245, 245, 245, 245,
				 245, 245, 245, 245, 245, 245, 245, 245, 245, 2
				45, 245
       F5 F5 F5 F5 F5 F5	
       F5 F5 F5 F5 F5 F5	
       F5 F5			
 57BC  F5 F5 F5 F5 F5 F5	DB 245, 245, 245, 245, 245, 245, 245, 245, 18, 
				17, 0, 0, 0, 0, 0, 0, 0, 0, 0, 18
       F5 F5 12 11 00 00	
       00 00 00 00 00 00	
       00 12			
 57D0  F5 F5 F5 F5 F5 F5	DB 245, 245, 245, 245, 245, 245, 245, 245, 245,
				 245, 245, 245, 245, 245, 245, 245, 245, 245, 2
				45, 245
       F5 F5 F5 F5 F5 F5	
       F5 F5 F5 F5 F5 F5	
Microsoft (R) Macro Assembler Version 5.10                  12/6/19 16:06:45
                                                             Page     1-130


       F5 F5			
				
 57E4  F5 F5 F5 F5 F5 F5	BITMAP_UPRIGHT_PLAYER1 DB 245, 245, 245, 245, 2
				45, 245, 245, 245, 245, 245, 245, 245, 245, 245
				, 245, 245, 245, 245, 245, 245
       F5 F5 F5 F5 F5 F5	
       F5 F5 F5 F5 F5 F5	
       F5 F5			
 57F8  F5 F5 F5 F5 F5 F5	DB 245, 245, 245, 245, 245, 245, 245, 245, 245,
				 245, 245, 245, 245, 245, 245, 245, 245, 245, 2
				45, 245
       F5 F5 F5 F5 F5 F5	
       F5 F5 F5 F5 F5 F5	
       F5 F5			
 580C  F5 F5 F5 F5 F5 F5	DB 245, 245, 245, 245, 245, 245, 245, 245, 245,
				 245, 245, 245, 245, 245, 245, 245, 245, 245, 2
				45, 245
       F5 F5 F5 F5 F5 F5	
       F5 F5 F5 F5 F5 F5	
       F5 F5			
 5820  F5 F5 F5 F5 F5 F5	DB 245, 245, 245, 245, 245, 245, 245, 245, 245,
				 245, 245, 245, 245, 245, 245, 245, 245, 245, 2
				45, 245
       F5 F5 F5 F5 F5 F5	
       F5 F5 F5 F5 F5 F5	
       F5 F5			
 5834  F5 F5 F5 F5 F5 F5	DB 245, 245, 245, 245, 245, 245, 245, 245, 245,
				 245, 245, 245, 245, 245, 245, 245, 245, 245, 2
				45, 245
       F5 F5 F5 F5 F5 F5	
       F5 F5 F5 F5 F5 F5	
       F5 F5			
 5848  F5 F5 F5 F5 F5 F5	DB 245, 245, 245, 245, 245, 245, 245, 245, 245,
				 245, 245, 245, 245, 245, 245, 245, 245, 245, 2
				45, 245
       F5 F5 F5 F5 F5 F5	
       F5 F5 F5 F5 F5 F5	
       F5 F5			
 585C  F5 F5 F5 F5 F5 F5	DB 245, 245, 245, 245, 245, 245, 245, 245, 245,
				 245, 245, 245, 245, 245, 245, 245, 245, 245, 2
				45, 245
       F5 F5 F5 F5 F5 F5	
       F5 F5 F5 F5 F5 F5	
       F5 F5			
 5870  F5 F5 F5 F5 F5 F5	DB 245, 245, 245, 245, 245, 245, 245, 245, 245,
				 245, 245, 245, 245, 245, 245, 245, 245, 245, 2
				45, 245
       F5 F5 F5 F5 F5 F5	
       F5 F5 F5 F5 F5 F5	
       F5 F5			
 5884  F5 F5 F5 F5 F5 F5	DB 245, 245, 245, 245, 245, 245, 245, 245, 245,
				 245, 245, 245, 222, 17, 0, 0, 0, 0, 0, 0
       F5 F5 F5 F5 F5 F5	
       DE 11 00 00 00 00	
Microsoft (R) Macro Assembler Version 5.10                  12/6/19 16:06:45
                                                             Page     1-131


       00 00			
 5898  11 DE F5 F5 F5 F5	DB 17, 222, 245, 245, 245, 245, 245, 245, 245, 
				245, 245, 245, 245, 245, 245, 245, 245, 245, 24
				5, 245
       F5 F5 F5 F5 F5 F5	
       F5 F5 F5 F5 F5 F5	
       F5 F5			
 58AC  F5 F5 F5 F5 F5 F5	DB 245, 245, 245, 245, 245, 245, 245, 245, 245,
				 245, 245, 245, 245, 245, 245, 245, 245, 245, 2
				45, 245
       F5 F5 F5 F5 F5 F5	
       F5 F5 F5 F5 F5 F5	
       F5 F5			
 58C0  F5 F5 13 D2 B9 00	DB 245, 245, 19, 210, 185, 0, 17, 186, 185, 0, 
				17, 222, 245, 245, 245, 245, 245, 245, 245, 245
       11 BA B9 00 11 DE	
       F5 F5 F5 F5 F5 F5	
       F5 F5			
 58D4  F5 F5 F5 F5 F5 F5	DB 245, 245, 245, 245, 245, 245, 245, 245, 245,
				 245, 245, 245, 245, 245, 245, 245, 245, 245, 2
				45, 245
       F5 F5 F5 F5 F5 F5	
       F5 F5 F5 F5 F5 F5	
       F5 F5			
 58E8  F5 F5 F5 F5 F5 F5	DB 245, 245, 245, 245, 245, 245, 245, 245, 245,
				 245, 246, 18, 208, 6, 6, 208, 209, 6, 114, 185
       F5 F5 F5 F5 F6 12	
       D0 06 06 D0 D1 06	
       72 B9			
 58FC  00 11 12 F6 DE 12	DB 0, 17, 18, 246, 222, 18, 18, 245, 245, 245, 
				245, 245, 245, 245, 245, 245, 245, 245, 245, 24
				5
       12 F5 F5 F5 F5 F5	
       F5 F5 F5 F5 F5 F5	
       F5 F5			
 5910  F5 F5 F5 F5 F5 F5	DB 245, 245, 245, 245, 245, 245, 245, 245, 245,
				 245, 245, 245, 245, 245, 245, 245, 245, 245, 2
				45, 245
       F5 F5 F5 F5 F5 F5	
       F5 F5 F5 F5 F5 F5	
       F5 F5			
 5924  12 11 00 B9 A2 1B	DB 18, 17, 0, 185, 162, 27, 25, 114, 6, 114, 18
				5, 0, 17, 18, 245, 23, 244, 222, 245, 245
       19 72 06 72 B9 00	
       11 12 F5 17 F4 DE	
       F5 F5			
 5938  F5 F5 F5 F5 F5 F5	DB 245, 245, 245, 245, 245, 245, 245, 245, 245,
				 245, 245, 245, 245, 245, 245, 245, 245, 245, 2
				45, 245
       F5 F5 F5 F5 F5 F5	
       F5 F5 F5 F5 F5 F5	
       F5 F5			
 594C  F5 F5 F5 F5 F5 F5	DB 245, 245, 245, 245, 245, 245, 245, 245, 246,
				 18, 17, 0, 0, 0, 22, 15, 7, 18, 113, 6
Microsoft (R) Macro Assembler Version 5.10                  12/6/19 16:06:45
                                                             Page     1-132


       F5 F5 F6 12 11 00	
       00 00 16 0F 07 12	
       71 06			
 5960  71 00 11 12 19 0F	DB 113, 0, 17, 18, 25, 15, 7, 18, 18, 245, 245,
				 245, 245, 245, 245, 245, 245, 245, 245, 245
       07 12 12 F5 F5 F5	
       F5 F5 F5 F5 F5 F5	
       F5 F5			
 5974  F5 F5 F5 F5 F5 F5	DB 245, 245, 245, 245, 245, 245, 245, 245, 245,
				 245, 245, 245, 245, 245, 245, 245, 245, 246, 1
				8, 208
       F5 F5 F5 F5 F5 F5	
       F5 F5 F5 F5 F5 F6	
       12 D0			
 5988  72 72 71 B9 8A 18	DB 114, 114, 113, 185, 138, 24, 149, 17, 0, 185
				, 184, 0, 0, 24, 15, 15, 89, 137, 18, 18
       95 11 00 B9 B8 00	
       00 18 0F 0F 59 89	
       12 12			
 599C  F5 F5 F5 F5 F5 F5	DB 245, 245, 245, 245, 245, 245, 245, 245, 245,
				 245, 245, 245, 245, 245, 245, 245, 245, 245, 2
				45, 245
       F5 F5 F5 F5 F5 F5	
       F5 F5 F5 F5 F5 F5	
       F5 F5			
 59B0  F5 F5 F5 F5 F5 F5	DB 245, 245, 245, 245, 245, 245, 246, 18, 186, 
				6, 42, 42, 42, 42, 6, 17, 0, 17, 0, 0
       F6 12 BA 06 2A 2A	
       2A 2A 06 11 00 11	
       00 00			
 59C4  00 11 18 0F 0F 1E	DB 0, 17, 24, 15, 15, 30, 65, 6, 184, 17, 18, 2
				45, 245, 245, 245, 245, 245, 245, 245, 245
       41 06 B8 11 12 F5	
       F5 F5 F5 F5 F5 F5	
       F5 F5			
 59D8  F5 F5 F5 F5 F5 F5	DB 245, 245, 245, 245, 245, 245, 245, 245, 245,
				 245, 245, 245, 245, 245, 245, 222, 18, 186, 6,
				 42
       F5 F5 F5 F5 F5 F5	
       F5 F5 F5 DE 12 BA	
       06 2A			
 59EC  2A 2A 2A 2A 06 00	DB 42, 42, 42, 42, 6, 0, 185, 6, 112, 0, 17, 25
				, 15, 15, 90, 12, 6, 185, 0, 0
       B9 06 70 00 11 19	
       0F 0F 5A 0C 06 B9	
       00 00			
 5A00  12 F5 F5 F5 F5 F5	DB 18, 245, 245, 245, 245, 245, 245, 245, 245, 
				245, 245, 245, 245, 245, 245, 245, 245, 245, 24
				5, 245
       F5 F5 F5 F5 F5 F5	
       F5 F5 F5 F5 F5 F5	
       F5 F5			
 5A14  F5 F5 F5 F5 F6 12	DB 245, 245, 245, 245, 246, 18, 186, 6, 42, 6, 
				114, 114, 6, 6, 114, 185, 113, 6, 113, 20
Microsoft (R) Macro Assembler Version 5.10                  12/6/19 16:06:45
                                                             Page     1-133


       BA 06 2A 06 72 72	
       06 06 72 B9 71 06	
       71 14			
 5A28  1B 0F 0F 1E 0C 04	DB 27, 15, 15, 30, 12, 4, 184, 0, 0, 0, 18, 245
				, 245, 245, 245, 245, 245, 245, 245, 245
       B8 00 00 00 12 F5	
       F5 F5 F5 F5 F5 F5	
       F5 F5			
 5A3C  F5 F5 F5 F5 F5 F5	DB 245, 245, 245, 245, 245, 245, 245, 245, 245,
				 245, 245, 245, 245, 222, 18, 209, 41, 42, 6, 1
				86
       F5 F5 F5 F5 F5 F5	
       F5 DE 12 D1 29 2A	
       06 BA			
 5A50  00 00 00 00 BA 06	DB 0, 0, 0, 0, 186, 6, 113, 184, 20, 28, 15, 15
				, 30, 12, 113, 0, 0, 0, 0, 0
       71 B8 14 1C 0F 0F	
       1E 0C 71 00 00 00	
       00 00			
 5A64  11 12 DE F5 F5 F5	DB 17, 18, 222, 245, 245, 245, 245, 245, 245, 2
				45, 245, 245, 245, 245, 245, 245, 245, 245, 245
				, 245
       F5 F5 F5 F5 F5 F5	
       F5 F5 F5 F5 F5 F5	
       F5 F5			
 5A78  F5 F5 DE 12 71 06	DB 245, 245, 222, 18, 113, 6, 6, 114, 113, 113,
				 186, 185, 17, 185, 113, 113, 184, 0, 244, 28
       06 72 71 71 BA B9	
       11 B9 71 71 B8 00	
       F4 1C			
 5A8C  1E 5B 40 71 00 00	DB 30, 91, 64, 113, 0, 0, 0, 0, 0, 0, 0, 0, 18,
				 246, 245, 245, 245, 245, 245, 245
       00 00 00 00 00 00	
       12 F6 F5 F5 F5 F5	
       F5 F5			
 5AA0  F5 F5 F5 F5 F5 F5	DB 245, 245, 245, 245, 245, 245, 245, 245, 245,
				 245, 245, 222, 18, 113, 6, 113, 0, 0, 185, 6
       F5 F5 F5 F5 F5 DE	
       12 71 06 71 00 00	
       B9 06			
 5AB4  29 29 06 06 72 11	DB 41, 41, 6, 6, 114, 17, 0, 0, 185, 6, 42, 42,
				 113, 0, 0, 0, 0, 0, 0, 0
       00 00 B9 06 2A 2A	
       71 00 00 00 00 00	
       00 00			
 5AC8  00 00 11 12 DE F5	DB 0, 0, 17, 18, 222, 245, 245, 245, 245, 245, 
				245, 245, 245, 245, 245, 245, 245, 245, 245, 24
				5
       F5 F5 F5 F5 F5 F5	
       F5 F5 F5 F5 F5 F5	
       F5 F5			
 5ADC  DE 12 71 06 72 72	DB 222, 18, 113, 6, 114, 114, 185, 0, 0, 185, 6
				, 42, 42, 42, 114, 0, 0, 186, 113, 113
       B9 00 00 B9 06 2A	
Microsoft (R) Macro Assembler Version 5.10                  12/6/19 16:06:45
                                                             Page     1-134


       2A 2A 72 00 00 BA	
       71 71			
 5AF0  04 71 B8 00 00 00	DB 4, 113, 184, 0, 0, 0, 0, 17, 113, 114, 114, 
				185, 0, 0, 18, 222, 245, 245, 245, 245
       00 11 71 72 72 B9	
       00 00 12 DE F5 F5	
       F5 F5			
 5B04  F5 F5 F5 F5 F5 F5	DB 245, 245, 245, 245, 245, 245, 245, 245, 245,
				 18, 18, 114, 6, 114, 186, 113, 114, 209, 17, 0
       F5 F5 F5 12 12 72	
       06 72 BA 71 72 D1	
       11 00			
 5B18  B9 06 2A 2A 06 11	DB 185, 6, 42, 42, 6, 17, 185, 114, 113, 17, 0,
				 0, 0, 0, 0, 0, 0, 0, 113, 41
       B9 72 71 11 00 00	
       00 00 00 00 00 00	
       71 29			
 5B2C  29 06 BA 00 00 11	DB 41, 6, 186, 0, 0, 17, 222, 245, 245, 245, 24
				5, 245, 245, 245, 245, 245, 245, 245, 18, 18
       DE F5 F5 F5 F5 F5	
       F5 F5 F5 F5 F5 F5	
       12 12			
 5B40  72 72 71 71 71 B8	DB 114, 114, 113, 113, 113, 184, 235, 7, 27, 13
				9, 184, 17, 114, 41, 41, 6, 186, 17, 0, 0
       EB 07 1B 8B B8 11	
       72 29 29 06 BA 11	
       00 00			
 5B54  00 00 00 00 00 00	DB 0, 0, 0, 0, 0, 0, 0, 0, 0, 184, 41, 42, 6, 1
				85, 0, 0, 18, 222, 245, 245
       00 00 00 B8 29 2A	
       06 B9 00 00 12 DE	
       F5 F5			
 5B68  F5 F5 F5 F5 F5 F5	DB 245, 245, 245, 245, 245, 245, 245, 18, 17, 6
				, 6, 185, 0, 113, 113, 0, 198, 103, 15, 66
       F5 12 11 06 06 B9	
       00 71 71 00 C6 67	
       0F 42			
 5B7C  71 00 00 06 2A 29	DB 113, 0, 0, 6, 42, 41, 114, 0, 0, 0, 0, 17, 0
				, 0, 0, 0, 0, 0, 17, 223
       72 00 00 00 00 11	
       00 00 00 00 00 00	
       11 DF			
 5B90  06 2A 2A 06 B9 00	DB 6, 42, 42, 6, 185, 0, 0, 17, 222, 245, 245, 
				245, 245, 245, 245, 246, 18, 18, 6, 42
       00 11 DE F5 F5 F5	
       F5 F5 F5 F6 12 12	
       06 2A			
 5BA4  06 B9 00 71 71 00	DB 6, 185, 0, 113, 113, 0, 17, 23, 66, 43, 6, 0
				, 0, 114, 42, 42, 6, 114, 113, 114
       11 17 42 2B 06 00	
       00 72 2A 2A 06 72	
       71 72			
 5BB8  06 06 BA 00 00 00	DB 6, 6, 186, 0, 0, 0, 0, 223, 7, 103, 22, 113,
				 41, 42, 6, 185, 0, 0, 17, 18
Microsoft (R) Macro Assembler Version 5.10                  12/6/19 16:06:45
                                                             Page     1-135


       00 DF 07 67 16 71	
       29 2A 06 B9 00 00	
       11 12			
 5BCC  F5 F5 F5 F5 F5 12	DB 245, 245, 245, 245, 245, 18, 17, 114, 42, 42
				, 6, 185, 185, 114, 6, 113, 17, 185, 114, 114
       11 72 2A 2A 06 B9	
       B9 72 06 71 11 B9	
       72 72			
 5BE0  BA 11 BA 06 29 29	DB 186, 17, 186, 6, 41, 41, 6, 6, 6, 41, 42, 42
				, 114, 0, 0, 0, 0, 160, 29, 102
       06 06 06 29 2A 2A	
       72 00 00 00 00 A0	
       1D 66			
 5BF4  97 00 B9 29 2A 06	DB 151, 0, 185, 41, 42, 6, 186, 0, 0, 0, 245, 2
				45, 245, 246, 18, 17, 0, 6, 42, 6
       BA 00 00 00 F5 F5	
       F5 F6 12 11 00 06	
       2A 06			
 5C08  B9 BA 06 29 29 29	DB 185, 186, 6, 41, 41, 41, 114, 17, 0, 0, 0, 1
				13, 6, 6, 41, 41, 113, 17, 186, 6
       72 11 00 00 00 71	
       06 06 29 29 71 11	
       BA 06			
 5C1C  2A 2A 72 00 00 00	DB 42, 42, 114, 0, 0, 0, 113, 6, 20, 222, 17, 0
				, 0, 186, 6, 42, 42, 6, 17, 0
       71 06 14 DE 11 00	
       00 BA 06 2A 2A 06	
       11 00			
 5C30  F5 F5 F6 12 11 B9	DB 245, 245, 246, 18, 17, 185, 186, 114, 114, 1
				7, 0, 114, 42, 42, 42, 42, 41, 186, 0, 0
       BA 72 72 11 00 72	
       2A 2A 2A 2A 29 BA	
       00 00			
 5C44  B9 06 29 29 2A 29	DB 185, 6, 41, 41, 42, 41, 186, 0, 0, 6, 42, 42
				, 114, 0, 0, 17, 6, 6, 185, 0
       BA 00 00 06 2A 2A	
       72 00 00 11 06 06	
       B9 00			
 5C58  11 00 00 00 BA 06	DB 17, 0, 0, 0, 186, 6, 42, 6, 185, 0, 245, 222
				, 18, 18, 6, 41, 6, 113, 17, 0
       2A 06 B9 00 F5 DE	
       12 12 06 29 06 71	
       11 00			
 5C6C  00 72 29 2A 29 29	DB 0, 114, 41, 42, 41, 41, 41, 6, 114, 114, 6, 
				41, 41, 41, 41, 6, 186, 0, 17, 6
       29 06 72 72 06 29	
       29 29 29 06 BA 00	
       11 06			
 5C80  2A 2A 72 00 00 11	DB 42, 42, 114, 0, 0, 17, 114, 41, 6, 6, 6, 114
				, 17, 0, 0, 185, 185, 17, 0, 0
       72 29 06 06 06 72	
       11 00 00 B9 B9 11	
       00 00			
 5C94  DE 12 BA 06 29 2A	DB 222, 18, 186, 6, 41, 42, 41, 6, 113, 0, 0, 0
Microsoft (R) Macro Assembler Version 5.10                  12/6/19 16:06:45
                                                             Page     1-136


				, 113, 6, 6, 6, 6, 41, 41, 41
       29 06 71 00 00 00	
       71 06 06 06 06 29	
       29 29			
 5CA8  29 2A 2A 2A 06 BA	DB 41, 42, 42, 42, 6, 186, 185, 186, 6, 6, 6, 1
				13, 185, 0, 0, 0, 113, 41, 41, 42
       B9 BA 06 06 06 71	
       B9 00 00 00 71 29	
       29 2A			
 5CBC  2A 29 BA 00 00 00	DB 42, 41, 186, 0, 0, 0, 0, 0, 0, 0, 17, 17, 6,
				 42, 41, 41, 41, 42, 42, 114
       00 00 00 00 11 11	
       06 2A 29 29 29 2A	
       2A 72			
 5CD0  00 00 00 71 29 29	DB 0, 0, 0, 113, 41, 41, 6, 6, 41, 41, 41, 41, 
				42, 41, 114, 0, 185, 6, 42, 41
       06 06 29 29 29 29	
       2A 29 72 00 B9 06	
       2A 29			
 5CE4  BA 00 00 00 00 00	DB 186, 0, 0, 0, 0, 0, 186, 6, 41, 42, 42, 6, 1
				85, 0, 0, 17, 0, 0, 0, 0
       BA 06 29 2A 2A 06	
       B9 00 00 11 00 00	
       00 00			
 5CF8  00 B9 06 2A 29 06	DB 0, 185, 6, 42, 41, 6, 41, 42, 42, 6, 0, 0, 0
				, 113, 41, 41, 6, 6, 41, 41
       29 2A 2A 06 00 00	
       00 71 29 29 06 06	
       29 29			
 5D0C  06 71 B9 B9 11 B9	DB 6, 113, 185, 185, 17, 185, 114, 41, 42, 42, 
				113, 0, 0, 0, 0, 0, 186, 41, 42, 42
       72 29 2A 2A 71 00	
       00 00 00 00 BA 29	
       2A 2A			
 5D20  06 B9 00 11 AD 17	DB 6, 185, 0, 17, 173, 23, 18, 0, 0, 0, 0, 185,
				 6, 42, 41, 6, 41, 41, 6, 186
       12 00 00 00 00 B9	
       06 2A 29 06 29 29	
       06 BA			
 5D34  00 00 00 BA 06 29	DB 0, 0, 0, 186, 6, 41, 41, 41, 41, 41, 6, 17, 
				0, 0, 185, 6, 42, 42, 42, 6
       29 29 29 29 06 11	
       00 00 B9 06 2A 2A	
       2A 06			
 5D48  BA 00 00 00 00 11	DB 186, 0, 0, 0, 0, 17, 114, 41, 42, 6, 184, 0,
				 17, 24, 30, 28, 235, 0, 0, 0
       72 29 2A 06 B8 00	
       11 18 1E 1C EB 00	
       00 00			
 5D5C  00 BA 06 2A 29 29	DB 0, 186, 6, 42, 41, 41, 6, 114, 185, 0, 0, 0,
				 0, 17, 113, 41, 42, 42, 41, 41
       06 72 B9 00 00 00	
       00 11 71 29 2A 2A	
       29 29			
Microsoft (R) Macro Assembler Version 5.10                  12/6/19 16:06:45
                                                             Page     1-137


 5D70  06 72 71 71 06 2A	DB 6, 114, 113, 113, 6, 42, 42, 42, 6, 113, 17,
				 0, 0, 0, 186, 6, 42, 41, 114, 17
       2A 2A 06 71 11 00	
       00 00 BA 06 2A 29	
       72 11			
 5D84  00 C5 4E 0F 1E 40	DB 0, 197, 78, 15, 30, 64, 186, 0, 17, 18, 0, 1
				7, 114, 41, 42, 42, 6, 185, 0, 0
       BA 00 11 12 00 11	
       72 29 2A 2A 06 B9	
       00 00			
 5D98  00 00 00 00 11 72	DB 0, 0, 0, 0, 17, 114, 6, 6, 6, 41, 42, 42, 42
				, 42, 41, 6, 6, 6, 113, 0
       06 06 06 29 2A 2A	
       2A 2A 29 06 06 06	
       71 00			
 5DAC  00 00 00 00 06 2A	DB 0, 0, 0, 0, 6, 42, 42, 6, 17, 0, 0, 8, 30, 1
				5, 65, 113, 0, 17, 18, 246
       2A 06 11 00 00 08	
       1E 0F 41 71 00 11	
       12 F6			
 5DC0  00 00 11 72 29 2A	DB 0, 0, 17, 114, 41, 42, 41, 185, 0, 185, 114,
				 186, 0, 0, 0, 17, 185, 185, 186, 6
       29 B9 00 B9 72 BA	
       00 00 00 11 B9 B9	
       BA 06			
 5DD4  2A 2A 2A 2A 06 BA	DB 42, 42, 42, 42, 6, 186, 185, 185, 17, 0, 0, 
				0, 0, 17, 6, 42, 6, 185, 0, 0
       B9 B9 11 00 00 00	
       00 11 06 2A 06 B9	
       00 00			
 5DE8  00 D2 41 41 72 11	DB 0, 210, 65, 65, 114, 17, 17, 18, 246, 245, 1
				7, 0, 0, 0, 114, 42, 41, 186, 0, 113
       11 12 F6 F5 11 00	
       00 00 72 2A 29 BA	
       00 71			
 5DFC  2A 06 BA 00 00 00	DB 42, 6, 186, 0, 0, 0, 0, 0, 0, 113, 6, 6, 6, 
				6, 113, 0, 0, 0, 0, 0
       00 00 00 71 06 06	
       06 06 71 00 00 00	
       00 00			
 5E10  00 00 11 71 06 72	DB 0, 0, 17, 113, 6, 114, 185, 0, 0, 0, 0, 17, 
				113, 113, 17, 17, 222, 245, 245, 245
       B9 00 00 00 00 11	
       71 71 11 11 DE F5	
       F5 F5			
 5E24  12 12 00 00 00 06	DB 18, 18, 0, 0, 0, 6, 41, 186, 0, 113, 42, 42,
				 6, 185, 0, 0, 0, 0, 0, 0
       29 BA 00 71 2A 2A	
       06 B9 00 00 00 00	
       00 00			
 5E38  00 00 00 00 00 00	DB 0, 0, 0, 0, 0, 0, 0, 0, 0, 0, 0, 0, 114, 6, 
				113, 0, 0, 0, 0, 0
       00 00 00 00 00 00	
       72 06 71 00 00 00	
Microsoft (R) Macro Assembler Version 5.10                  12/6/19 16:06:45
                                                             Page     1-138


       00 00			
 5E4C  00 00 00 00 12 DE	DB 0, 0, 0, 0, 18, 222, 245, 245, 245, 245, 245
				, 222, 18, 0, 0, 185, 113, 185, 0, 17
       F5 F5 F5 F5 F5 DE	
       12 00 00 B9 71 B9	
       00 11			
 5E60  72 2A 2A 06 B9 00	DB 114, 42, 42, 6, 185, 0, 0, 0, 0, 0, 0, 0, 0,
				 0, 0, 0, 0, 0, 0, 186
       00 00 00 00 00 00	
       00 00 00 00 00 00	
       00 BA			
 5E74  71 72 06 72 11 00	DB 113, 114, 6, 114, 17, 0, 222, 174, 19, 0, 0,
				 0, 0, 17, 222, 245, 245, 245, 245, 245
       DE AE 13 00 00 00	
       00 11 DE F5 F5 F5	
       F5 F5			
 5E88  F5 F5 F6 12 00 00	DB 245, 245, 246, 18, 0, 0, 0, 0, 0, 0, 0, 113,
				 41, 42, 6, 186, 0, 0, 0, 0
       00 00 00 00 00 71	
       29 2A 06 BA 00 00	
       00 00			
 5E9C  00 00 00 00 00 00	DB 0, 0, 0, 0, 0, 0, 0, 0, 186, 6, 42, 41, 113,
				 0, 0, 244, 27, 29, 22, 0
       00 00 BA 06 2A 29	
       71 00 00 F4 1B 1D	
       16 00			
 5EB0  00 00 12 DE F5 F5	DB 0, 0, 18, 222, 245, 245, 245, 245, 245, 245,
				 245, 245, 245, 222, 18, 17, 0, 0, 0, 0
       F5 F5 F5 F5 F5 F5	
       F5 DE 12 11 00 00	
       00 00			
 5EC4  00 00 71 29 2A 2A	DB 0, 0, 113, 41, 42, 42, 114, 0, 0, 186, 6, 6,
				 185, 0, 0, 186, 114, 114, 114, 114
       72 00 00 BA 06 06	
       B9 00 00 BA 72 72	
       72 72			
 5ED8  06 72 11 00 95 66	DB 6, 114, 17, 0, 149, 102, 15, 89, 137, 0, 17,
				 18, 222, 245, 245, 245, 245, 245, 245, 245
       0F 59 89 00 11 12	
       DE F5 F5 F5 F5 F5	
       F5 F5			
 5EEC  F5 F5 F5 F5 F6 12	DB 245, 245, 245, 245, 246, 18, 17, 0, 0, 0, 0,
				 0, 0, 113, 42, 42, 6, 185, 17, 6
       11 00 00 00 00 00	
       00 71 2A 2A 06 B9	
       11 06			
 5F00  2A 2A 71 00 11 06	DB 42, 42, 113, 0, 17, 6, 42, 42, 6, 17, 0, 0, 
				0, 200, 28, 15, 90, 6, 184, 0
       2A 2A 06 11 00 00	
       00 C8 1C 0F 5A 06	
       B8 00			
 5F14  12 F6 F5 F5 F5 F5	DB 18, 246, 245, 245, 245, 245, 245, 245, 245, 
				245, 245, 245, 245, 245, 245, 222, 18, 18, 18, 
				18
Microsoft (R) Macro Assembler Version 5.10                  12/6/19 16:06:45
                                                             Page     1-139


       F5 F5 F5 F5 F5 F5	
       F5 F5 F5 DE 12 12	
       12 12			
 5F28  12 11 00 00 BA 72	DB 18, 17, 0, 0, 186, 114, 113, 113, 114, 41, 4
				2, 42, 113, 0, 17, 6, 42, 42, 6, 17
       71 71 72 29 2A 2A	
       71 00 11 06 2A 2A	
       06 11			
 5F3C  00 00 00 12 41 42	DB 0, 0, 0, 18, 65, 66, 6, 185, 17, 18, 222, 24
				5, 245, 245, 245, 245, 245, 245, 245, 245
       06 B9 11 12 DE F5	
       F5 F5 F5 F5 F5 F5	
       F5 F5			
 5F50  F5 F5 F5 F5 F5 F5	DB 245, 245, 245, 245, 245, 245, 245, 245, 245,
				 245, 245, 18, 17, 0, 0, 0, 0, 114, 41, 41
       F5 F5 F5 F5 F5 12	
       11 00 00 00 00 72	
       29 29			
 5F64  29 29 72 11 B9 72	DB 41, 41, 114, 17, 185, 114, 6, 6, 113, 0, 0, 
				0, 0, 0, 114, 6, 185, 17, 18, 245
       06 06 71 00 00 00	
       00 00 72 06 B9 11	
       12 F5			
 5F78  F5 F5 F5 F5 F5 F5	DB 245, 245, 245, 245, 245, 245, 245, 245, 245,
				 245, 245, 245, 245, 245, 245, 245, 245, 245, 2
				45, 245
       F5 F5 F5 F5 F5 F5	
       F5 F5 F5 F5 F5 F5	
       F5 F5			
 5F8C  F5 F6 12 11 00 00	DB 245, 246, 18, 17, 0, 0, 0, 114, 41, 41, 6, 6
				, 41, 6, 114, 185, 17, 17, 0, 0
       00 72 29 29 06 06	
       29 06 72 B9 11 11	
       00 00			
 5FA0  00 00 00 00 00 11	DB 0, 0, 0, 0, 0, 17, 17, 18, 246, 245, 245, 24
				5, 245, 245, 245, 245, 245, 245, 245, 245
       11 12 F6 F5 F5 F5	
       F5 F5 F5 F5 F5 F5	
       F5 F5			
 5FB4  F5 F5 F5 F5 F5 F5	DB 245, 245, 245, 245, 245, 245, 245, 245, 245,
				 245, 245, 245, 245, 18, 0, 0, 0, 114, 41, 41
       F5 F5 F5 F5 F5 F5	
       F5 12 00 00 00 72	
       29 29			
 5FC8  06 06 2A 2A 06 11	DB 6, 6, 42, 42, 6, 17, 0, 0, 17, 245, 247, 17,
				 0, 0, 0, 17, 18, 245, 245, 245
       00 00 11 F5 F7 11	
       00 00 00 11 12 F5	
       F5 F5			
 5FDC  F5 F5 F5 F5 F5 F5	DB 245, 245, 245, 245, 245, 245, 245, 245, 245,
				 245, 245, 245, 245, 245, 245, 245, 245, 245, 2
				45, 245
       F5 F5 F5 F5 F5 F5	
       F5 F5 F5 F5 F5 F5	
Microsoft (R) Macro Assembler Version 5.10                  12/6/19 16:06:45
                                                             Page     1-140


       F5 F5			
 5FF0  F5 F5 F5 12 00 00	DB 245, 245, 245, 18, 0, 0, 0, 114, 41, 41, 6, 
				41, 42, 42, 6, 17, 0, 17, 23, 28
       00 72 29 29 06 29	
       2A 2A 06 11 00 11	
       17 1C			
 6004  18 11 00 00 11 12	DB 24, 17, 0, 0, 17, 18, 246, 245, 245, 245, 24
				5, 245, 245, 245, 245, 245, 245, 245, 245, 245
       F6 F5 F5 F5 F5 F5	
       F5 F5 F5 F5 F5 F5	
       F5 F5			
 6018  F5 F5 F5 F5 F5 F5	DB 245, 245, 245, 245, 245, 245, 245, 245, 245,
				 245, 245, 245, 245, 18, 0, 0, 0, 6, 42, 41
       F5 F5 F5 F5 F5 F5	
       F5 12 00 00 00 06	
       2A 29			
 602C  29 29 06 72 B9 00	DB 41, 41, 6, 114, 185, 0, 198, 24, 30, 30, 24,
				 17, 0, 17, 18, 245, 245, 245, 245, 245
       C6 18 1E 1E 18 11	
       00 11 12 F5 F5 F5	
       F5 F5			
 6040  F5 F5 F5 F5 F5 F5	DB 245, 245, 245, 245, 245, 245, 245, 245, 245,
				 245, 245, 245, 245, 245, 245, 245, 245, 245, 2
				45, 245
       F5 F5 F5 F5 F5 F5	
       F5 F5 F5 F5 F5 F5	
       F5 F5			
 6054  F5 F5 F5 12 00 00	DB 245, 245, 245, 18, 0, 0, 0, 114, 41, 41, 41,
				 41, 114, 17, 0, 0, 24, 15, 15, 65
       00 72 29 29 29 29	
       72 11 00 00 18 0F	
       0F 41			
 6068  71 00 11 DE F5 F5	DB 113, 0, 17, 222, 245, 245, 245, 245, 245, 24
				5, 245, 245, 245, 245, 245, 245, 245, 245, 245,
				 245
       F5 F5 F5 F5 F5 F5	
       F5 F5 F5 F5 F5 F5	
       F5 F5			
 607C  F5 F5 F5 F5 F5 F5	DB 245, 245, 245, 245, 245, 245, 245, 245, 245,
				 245, 245, 245, 245, 222, 17, 0, 0, 185, 6, 41
       F5 F5 F5 F5 F5 F5	
       F5 DE 11 00 00 B9	
       06 29			
 6090  2A 2A 72 00 00 00	DB 42, 42, 114, 0, 0, 0, 24, 91, 66, 114, 17, 1
				7, 18, 245, 245, 245, 245, 245, 245, 245
       18 5B 42 72 11 11	
       12 F5 F5 F5 F5 F5	
       F5 F5			
 60A4  F5 F5 F5 F5 F5 F5	DB 245, 245, 245, 245, 245, 245, 245, 245, 245,
				 245, 245, 245, 245, 245, 245, 245, 245, 245, 2
				45, 245
       F5 F5 F5 F5 F5 F5	
       F5 F5 F5 F5 F5 F5	
       F5 F5			
Microsoft (R) Macro Assembler Version 5.10                  12/6/19 16:06:45
                                                             Page     1-141


 60B8  F5 F5 F5 F5 DE 12	DB 245, 245, 245, 245, 222, 18, 0, 0, 17, 114, 
				42, 42, 114, 17, 0, 0, 114, 6, 6, 17
       00 00 11 72 2A 2A	
       72 11 00 00 72 06	
       06 11			
 60CC  11 DE F5 F5 F5 F5	DB 17, 222, 245, 245, 245, 245, 245, 245, 245, 
				245, 245, 245, 245, 245, 245, 245, 245, 245, 24
				5, 245
       F5 F5 F5 F5 F5 F5	
       F5 F5 F5 F5 F5 F5	
       F5 F5			
 60E0  F5 F5 F5 F5 F5 F5	DB 245, 245, 245, 245, 245, 245, 245, 245, 245,
				 245, 245, 245, 245, 245, 245, 222, 18, 17, 0, 
				17
       F5 F5 F5 F5 F5 F5	
       F5 F5 F5 DE 12 11	
       00 11			
 60F4  BA 71 B9 00 00 00	DB 186, 113, 185, 0, 0, 0, 17, 184, 17, 18, 222
				, 245, 245, 245, 245, 245, 245, 245, 245, 245
       11 B8 11 12 DE F5	
       F5 F5 F5 F5 F5 F5	
       F5 F5			
 6108  F5 F5 F5 F5 F5 F5	DB 245, 245, 245, 245, 245, 245, 245, 245, 245,
				 245, 245, 245, 245, 245, 245, 245, 245, 245, 2
				45, 245
       F5 F5 F5 F5 F5 F5	
       F5 F5 F5 F5 F5 F5	
       F5 F5			
 611C  F5 F5 F5 F5 F5 F5	DB 245, 245, 245, 245, 245, 245, 246, 18, 0, 0,
				 0, 0, 0, 0, 0, 0, 0, 0, 17, 222
       F6 12 00 00 00 00	
       00 00 00 00 00 00	
       11 DE			
 6130  F5 F5 F5 F5 F5 F5	DB 245, 245, 245, 245, 245, 245, 245, 245, 245,
				 245, 245, 245, 245, 245, 245, 245, 245, 245, 2
				45, 245
       F5 F5 F5 F5 F5 F5	
       F5 F5 F5 F5 F5 F5	
       F5 F5			
 6144  F5 F5 F5 F5 F5 F5	DB 245, 245, 245, 245, 245, 245, 245, 245, 245,
				 245, 245, 245, 245, 245, 245, 245, 245, 222, 1
				8, 17
       F5 F5 F5 F5 F5 F5	
       F5 F5 F5 F5 F5 DE	
       12 11			
 6158  00 00 00 00 00 00	DB 0, 0, 0, 0, 0, 0, 17, 18, 222, 245, 245, 245
				, 245, 245, 245, 245, 245, 245, 245, 245
       11 12 DE F5 F5 F5	
       F5 F5 F5 F5 F5 F5	
       F5 F5			
 616C  F5 F5 F5 F5 F5 F5	DB 245, 245, 245, 245, 245, 245, 245, 245, 245,
				 245, 245, 245, 245, 245, 245, 245, 245, 245, 2
				45, 245
       F5 F5 F5 F5 F5 F5	
Microsoft (R) Macro Assembler Version 5.10                  12/6/19 16:06:45
                                                             Page     1-142


       F5 F5 F5 F5 F5 F5	
       F5 F5			
 6180  F5 F5 F5 F5 F5 F5	DB 245, 245, 245, 245, 245, 245, 245, 245, 222,
				 17, 0, 0, 0, 0, 0, 0, 17, 222, 245, 245
       F5 F5 DE 11 00 00	
       00 00 00 00 11 DE	
       F5 F5			
 6194  F5 F5 F5 F5 F5 F5	DB 245, 245, 245, 245, 245, 245, 245, 245, 245,
				 245, 245, 245, 245, 245, 245, 245, 245, 245, 2
				45, 245
       F5 F5 F5 F5 F5 F5	
       F5 F5 F5 F5 F5 F5	
       F5 F5			
				
				
 61A8  F5 F5 F5 F5 F5 F5	GHOST1_0 DB 245, 245, 245, 245, 245, 245, 245, 
				245, 245, 245, 245, 245, 245, 245, 245, 245, 24
				5, 245, 112, 112
       F5 F5 F5 F5 F5 F5	
       F5 F5 F5 F5 F5 F5	
       70 70			
 61BC  70 70 13 F5 F5 F5	DB 112, 112, 19, 245, 245, 245, 245, 245, 245, 
				245, 245, 245, 245, 245, 245, 245, 245, 245, 24
				5, 245
       F5 F5 F5 F5 F5 F5	
       F5 F5 F5 F5 F5 F5	
       F5 F5			
 61D0  F5 F5 F5 F5 F5 F5	DB 245, 245, 245, 245, 245, 245, 245, 245, 245,
				 245, 245, 245, 245, 245, 245, 245, 245, 245, 1
				12, 41
       F5 F5 F5 F5 F5 F5	
       F5 F5 F5 F5 F5 F5	
       70 29			
 61E4  29 70 F5 F5 F5 F5	DB 41, 112, 245, 245, 245, 245, 245, 245, 245, 
				245, 245, 245, 245, 245, 245, 245, 245, 245, 24
				5, 245
       F5 F5 F5 F5 F5 F5	
       F5 F5 F5 F5 F5 F5	
       F5 F5			
 61F8  F5 F5 F5 F5 F5 F5	DB 245, 245, 245, 245, 245, 245, 245, 245, 245,
				 245, 245, 245, 245, 245, 245, 245, 245, 245, 1
				12, 41
       F5 F5 F5 F5 F5 F5	
       F5 F5 F5 F5 F5 F5	
       70 29			
 620C  29 70 F5 F5 F5 F5	DB 41, 112, 245, 245, 245, 245, 245, 245, 245, 
				245, 245, 245, 245, 245, 245, 245, 245, 245, 24
				5, 245
       F5 F5 F5 F5 F5 F5	
       F5 F5 F5 F5 F5 F5	
       F5 F5			
 6220  F5 F5 F5 F5 F5 F5	DB 245, 245, 245, 245, 245, 245, 245, 245, 245,
				 245, 245, 245, 245, 245, 245, 245, 245, 245, 1
				12, 41
Microsoft (R) Macro Assembler Version 5.10                  12/6/19 16:06:45
                                                             Page     1-143


       F5 F5 F5 F5 F5 F5	
       F5 F5 F5 F5 F5 F5	
       70 29			
 6234  29 70 13 F5 F5 F5	DB 41, 112, 19, 245, 245, 245, 245, 245, 245, 2
				45, 245, 245, 245, 245, 245, 245, 245, 245, 245
				, 245
       F5 F5 F5 F5 F5 F5	
       F5 F5 F5 F5 F5 F5	
       F5 F5			
 6248  F5 F5 F5 F5 F5 F5	DB 245, 245, 245, 245, 245, 245, 245, 245, 245,
				 245, 245, 245, 245, 245, 245, 245, 245, 245, 1
				12, 41
       F5 F5 F5 F5 F5 F5	
       F5 F5 F5 F5 F5 F5	
       70 29			
 625C  29 70 13 F5 F5 F5	DB 41, 112, 19, 245, 245, 245, 245, 245, 245, 2
				45, 245, 245, 245, 245, 245, 245, 245, 245, 245
				, 245
       F5 F5 F5 F5 F5 F5	
       F5 F5 F5 F5 F5 F5	
       F5 F5			
 6270  F5 F5 F5 F5 F5 F5	DB 245, 245, 245, 245, 245, 245, 245, 245, 245,
				 245, 245, 245, 245, 245, 245, 245, 245, 245, 1
				12, 41
       F5 F5 F5 F5 F5 F5	
       F5 F5 F5 F5 F5 F5	
       70 29			
 6284  29 70 13 F5 F5 F5	DB 41, 112, 19, 245, 245, 245, 245, 245, 245, 2
				45, 245, 245, 245, 245, 245, 245, 245, 245, 245
				, 245
       F5 F5 F5 F5 F5 F5	
       F5 F5 F5 F5 F5 F5	
       F5 F5			
 6298  F5 F5 F5 F5 F5 F5	DB 245, 245, 245, 245, 245, 245, 245, 245, 245,
				 245, 245, 245, 245, 245, 245, 245, 245, 245, 1
				12, 41
       F5 F5 F5 F5 F5 F5	
       F5 F5 F5 F5 F5 F5	
       70 29			
 62AC  29 70 E7 F5 F5 F5	DB 41, 112, 231, 245, 245, 245, 245, 245, 245, 
				245, 245, 245, 245, 245, 245, 245, 245, 245, 24
				5, 245
       F5 F5 F5 F5 F5 F5	
       F5 F5 F5 F5 F5 F5	
       F5 F5			
 62C0  F5 F5 F5 F5 F5 F5	DB 245, 245, 245, 245, 245, 245, 245, 245, 245,
				 245, 245, 245, 245, 245, 245, 245, 245, 112, 4
				1, 41
       F5 F5 F5 F5 F5 F5	
       F5 F5 F5 F5 F5 70	
       29 29			
 62D4  29 29 70 F5 F5 F5	DB 41, 41, 112, 245, 245, 245, 245, 245, 245, 2
				45, 245, 245, 245, 245, 245, 245, 245, 245, 245
				, 245
Microsoft (R) Macro Assembler Version 5.10                  12/6/19 16:06:45
                                                             Page     1-144


       F5 F5 F5 F5 F5 F5	
       F5 F5 F5 F5 F5 F5	
       F5 F5			
 62E8  F5 F5 F5 F5 F5 F5	DB 245, 245, 245, 245, 245, 245, 245, 245, 245,
				 245, 245, 245, 245, 245, 245, 245, 245, 112, 4
				1, 41
       F5 F5 F5 F5 F5 F5	
       F5 F5 F5 F5 F5 70	
       29 29			
 62FC  29 29 70 F5 F5 F5	DB 41, 41, 112, 245, 245, 245, 245, 245, 245, 2
				45, 245, 245, 245, 245, 245, 245, 245, 245, 245
				, 245
       F5 F5 F5 F5 F5 F5	
       F5 F5 F5 F5 F5 F5	
       F5 F5			
 6310  F5 F5 F5 F5 F5 F5	DB 245, 245, 245, 245, 245, 245, 245, 245, 245,
				 245, 245, 245, 245, 245, 245, 245, 245, 112, 4
				1, 41
       F5 F5 F5 F5 F5 F5	
       F5 F5 F5 F5 F5 70	
       29 29			
 6324  29 29 70 F5 F5 F5	DB 41, 41, 112, 245, 245, 245, 245, 245, 245, 2
				45, 245, 245, 245, 245, 245, 245, 245, 245, 245
				, 245
       F5 F5 F5 F5 F5 F5	
       F5 F5 F5 F5 F5 F5	
       F5 F5			
 6338  F5 F5 F5 F5 F5 F5	DB 245, 245, 245, 245, 245, 245, 245, 245, 245,
				 245, 245, 245, 245, 245, 245, 245, 245, 112, 4
				1, 41
       F5 F5 F5 F5 F5 F5	
       F5 F5 F5 F5 F5 70	
       29 29			
 634C  29 29 70 F5 F5 F5	DB 41, 41, 112, 245, 245, 245, 245, 245, 245, 2
				45, 245, 245, 245, 245, 245, 245, 245, 245, 245
				, 245
       F5 F5 F5 F5 F5 F5	
       F5 F5 F5 F5 F5 F5	
       F5 F5			
 6360  F5 F5 F5 F5 F5 F5	DB 245, 245, 245, 245, 245, 245, 245, 245, 245,
				 245, 245, 245, 245, 245, 245, 245, 245, 112, 4
				1, 41
       F5 F5 F5 F5 F5 F5	
       F5 F5 F5 F5 F5 70	
       29 29			
 6374  29 29 70 F5 F5 F5	DB 41, 41, 112, 245, 245, 245, 245, 245, 245, 2
				45, 245, 245, 245, 245, 245, 245, 245, 245, 245
				, 245
       F5 F5 F5 F5 F5 F5	
       F5 F5 F5 F5 F5 F5	
       F5 F5			
 6388  F5 F5 F5 F5 F5 F5	DB 245, 245, 245, 245, 245, 245, 245, 245, 245,
				 245, 245, 245, 245, 245, 245, 245, 112, 41, 41
				, 41
Microsoft (R) Macro Assembler Version 5.10                  12/6/19 16:06:45
                                                             Page     1-145


       F5 F5 F5 F5 F5 F5	
       F5 F5 F5 F5 70 29	
       29 29			
 639C  29 29 29 70 F5 F5	DB 41, 41, 41, 112, 245, 245, 245, 245, 245, 24
				5, 245, 245, 245, 245, 245, 245, 245, 245, 245,
				 245
       F5 F5 F5 F5 F5 F5	
       F5 F5 F5 F5 F5 F5	
       F5 F5			
 63B0  F5 F5 F5 F5 F5 F5	DB 245, 245, 245, 245, 245, 245, 245, 226, 245,
				 112, 19, 245, 245, 245, 245, 245, 112, 41, 41,
				 41
       F5 E2 F5 70 13 F5	
       F5 F5 F5 F5 70 29	
       29 29			
 63C4  29 29 29 70 F5 F5	DB 41, 41, 41, 112, 245, 245, 245, 245, 245, 24
				5, 245, 245, 245, 245, 245, 245, 245, 245, 245,
				 245
       F5 F5 F5 F5 F5 F5	
       F5 F5 F5 F5 F5 F5	
       F5 F5			
 63D8  F5 F5 F5 F5 F5 F5	DB 245, 245, 245, 245, 245, 245, 245, 245, 112,
				 112, 19, 245, 245, 245, 245, 245, 112, 41, 41,
				 41
       F5 F5 70 70 13 F5	
       F5 F5 F5 F5 70 29	
       29 29			
 63EC  29 29 29 70 F5 F5	DB 41, 41, 41, 112, 245, 245, 245, 245, 245, 24
				5, 112, 112, 245, 245, 245, 245, 245, 245, 245,
				 245
       F5 F5 F5 F5 70 70	
       F5 F5 F5 F5 F5 F5	
       F5 F5			
 6400  F5 F5 F5 F5 F5 F5	DB 245, 245, 245, 245, 245, 245, 112, 112, 41, 
				112, 19, 245, 245, 245, 245, 245, 112, 41, 41, 
				41
       70 70 29 70 13 F5	
       F5 F5 F5 F5 70 29	
       29 29			
 6414  29 29 29 70 F5 F5	DB 41, 41, 41, 112, 245, 245, 245, 245, 245, 24
				5, 112, 41, 112, 245, 245, 245, 245, 245, 245, 
				245
       F5 F5 F5 F5 70 29	
       70 F5 F5 F5 F5 F5	
       F5 F5			
 6428  F5 F5 F5 F5 F5 6F	DB 245, 245, 245, 245, 245, 111, 112, 41, 112, 
				245, 245, 245, 245, 245, 246, 112, 112, 41, 41,
				 41
       70 29 70 F5 F5 F5	
       F5 F5 F6 70 70 29	
       29 29			
 643C  29 29 29 70 F5 F5	DB 41, 41, 41, 112, 245, 245, 245, 245, 245, 24
				5, 112, 41, 112, 112, 245, 245, 245, 245, 245, 
				245
Microsoft (R) Macro Assembler Version 5.10                  12/6/19 16:06:45
                                                             Page     1-146


       F5 F5 F5 F5 70 29	
       70 70 F5 F5 F5 F5	
       F5 F5			
 6450  F5 F5 F5 F5 70 29	DB 245, 245, 245, 245, 112, 41, 41, 41, 112, 24
				5, 245, 245, 245, 245, 245, 112, 112, 41, 112, 
				41
       29 29 70 F5 F5 F5	
       F5 F5 F5 70 70 29	
       70 29			
 6464  29 70 70 70 70 F5	DB 41, 112, 112, 112, 112, 245, 245, 245, 245, 
				245, 112, 41, 41, 41, 41, 112, 245, 245, 245, 2
				45
       F5 F5 F5 F5 70 29	
       29 29 29 70 F5 F5	
       F5 F5			
 6478  F5 F5 F5 F5 70 70	DB 245, 245, 245, 245, 112, 112, 41, 41, 112, 2
				45, 245, 245, 245, 245, 112, 41, 41, 41, 112, 4
				1
       29 29 70 F5 F5 F5	
       F5 F5 70 29 29 29	
       70 29			
 648C  29 70 29 29 29 70	DB 41, 112, 41, 41, 41, 112, 245, 245, 245, 245
				, 112, 41, 41, 41, 112, 112, 245, 245, 245, 245
       F5 F5 F5 F5 70 29	
       29 29 70 70 F5 F5	
       F5 F5			
 64A0  F5 F5 6F 70 29 29	DB 245, 245, 111, 112, 41, 41, 41, 41, 112, 245
				, 245, 245, 245, 112, 41, 41, 41, 41, 112, 41
       29 29 70 F5 F5 F5	
       F5 70 29 29 29 29	
       70 29			
 64B4  29 70 29 29 29 29	DB 41, 112, 41, 41, 41, 41, 112, 245, 245, 245,
				 112, 112, 41, 41, 41, 41, 112, 245, 245, 245
       70 F5 F5 F5 70 70	
       29 29 29 29 70 F5	
       F5 F5			
 64C8  F5 F5 70 29 29 29	DB 245, 245, 112, 41, 41, 41, 41, 41, 41, 112, 
				112, 245, 245, 112, 112, 41, 41, 112, 41, 41
       29 29 29 70 70 F5	
       F5 70 70 29 29 70	
       29 29			
 64DC  29 29 29 29 29 70	DB 41, 41, 41, 41, 41, 112, 112, 245, 245, 112,
				 112, 41, 41, 41, 41, 41, 41, 112, 245, 245
       70 F5 F5 70 70 29	
       29 29 29 29 29 70	
       F5 F5			
 64F0  F5 F5 70 29 29 29	DB 245, 245, 112, 41, 41, 41, 41, 41, 41, 41, 4
				1, 112, 245, 112, 41, 41, 41, 112, 41, 41
       29 29 29 29 29 70	
       F5 70 29 29 29 70	
       29 29			
 6504  29 29 29 29 29 29	DB 41, 41, 41, 41, 41, 41, 112, 112, 112, 41, 4
				1, 41, 41, 41, 41, 41, 41, 112, 245, 245
       70 70 70 29 29 29	
Microsoft (R) Macro Assembler Version 5.10                  12/6/19 16:06:45
                                                             Page     1-147


       29 29 29 29 29 70	
       F5 F5			
 6518  F5 F5 70 29 29 29	DB 245, 245, 112, 41, 41, 41, 41, 41, 41, 41, 4
				1, 41, 112, 41, 41, 41, 112, 41, 41, 41
       29 29 29 29 29 29	
       70 29 29 29 70 29	
       29 29			
 652C  29 29 29 70 29 29	DB 41, 41, 41, 112, 41, 41, 41, 41, 41, 41, 41,
				 41, 41, 41, 41, 41, 41, 112, 245, 245
       29 29 29 29 29 29	
       29 29 29 29 29 70	
       F5 F5			
 6540  F5 70 29 29 29 29	DB 245, 112, 41, 41, 41, 41, 41, 41, 41, 41, 41
				, 41, 41, 41, 112, 112, 41, 41, 41, 41
       29 29 29 29 29 29	
       29 29 70 70 29 29	
       29 29			
 6554  29 29 29 29 70 70	DB 41, 41, 41, 41, 112, 112, 41, 41, 41, 41, 41
				, 41, 41, 41, 41, 41, 41, 112, 245, 245
       29 29 29 29 29 29	
       29 29 29 29 29 70	
       F5 F5			
 6568  F5 70 29 29 29 29	DB 245, 112, 41, 41, 41, 41, 41, 41, 41, 41, 41
				, 41, 41, 112, 41, 41, 41, 112, 41, 41
       29 29 29 29 29 29	
       29 70 29 29 29 70	
       29 29			
 657C  29 29 29 29 29 29	DB 41, 41, 41, 41, 41, 41, 112, 41, 41, 41, 41,
				 41, 112, 41, 41, 41, 41, 112, 245, 245
       70 29 29 29 29 29	
       70 29 29 29 29 70	
       F5 F5			
 6590  F5 70 29 29 29 29	DB 245, 112, 41, 41, 41, 41, 41, 112, 41, 41, 4
				1, 41, 41, 112, 41, 112, 41, 41, 41, 41
       29 70 29 29 29 29	
       29 70 29 70 29 29	
       29 29			
 65A4  29 29 70 29 70 29	DB 41, 41, 112, 41, 112, 41, 112, 41, 41, 41, 4
				1, 41, 41, 41, 41, 41, 41, 41, 112, 246
       70 29 29 29 29 29	
       29 29 29 29 29 29	
       70 F6			
 65B8  F5 70 29 29 70 29	DB 245, 112, 41, 41, 112, 41, 41, 112, 41, 41, 
				41, 41, 41, 112, 112, 112, 112, 41, 41, 41
       29 70 29 29 29 29	
       29 70 70 70 70 29	
       29 29			
 65CC  29 29 70 70 70 70	DB 41, 41, 112, 112, 112, 112, 112, 41, 41, 41,
				 41, 41, 41, 41, 41, 112, 41, 41, 112, 245
       70 29 29 29 29 29	
       29 29 29 70 29 29	
       70 F5			
 65E0  70 29 29 29 70 29	DB 112, 41, 41, 41, 112, 41, 41, 41, 112, 112, 
				112, 41, 41, 41, 112, 44, 44, 112, 41, 41
Microsoft (R) Macro Assembler Version 5.10                  12/6/19 16:06:45
                                                             Page     1-148


       29 29 70 70 70 29	
       29 29 70 2C 2C 70	
       29 29			
 65F4  29 29 70 2C 2C 70	DB 41, 41, 112, 44, 44, 112, 41, 41, 41, 112, 1
				12, 112, 41, 41, 41, 112, 41, 41, 41, 112
       29 29 29 70 70 70	
       29 29 29 70 29 29	
       29 70			
 6608  70 29 29 29 70 29	DB 112, 41, 41, 41, 112, 41, 41, 41, 41, 112, 4
				1, 112, 41, 112, 112, 44, 44, 112, 112, 41
       29 29 29 70 29 70	
       29 70 70 2C 2C 70	
       70 29			
 661C  29 70 2C 2C 2C 70	DB 41, 112, 44, 44, 44, 112, 112, 41, 112, 41, 
				112, 41, 41, 41, 41, 112, 41, 41, 41, 112
       70 29 70 29 70 29	
       29 29 29 70 29 29	
       29 70			
 6630  70 29 29 29 70 29	DB 112, 41, 41, 41, 112, 41, 41, 41, 41, 112, 1
				12, 41, 112, 112, 41, 112, 44, 44, 112, 41
       29 29 29 70 70 29	
       70 70 29 70 2C 2C	
       70 29			
 6644  29 70 70 2C 70 29	DB 41, 112, 112, 44, 112, 41, 112, 41, 41, 112,
				 112, 41, 41, 41, 41, 112, 41, 41, 41, 112
       70 29 29 70 70 29	
       29 29 29 70 29 29	
       29 70			
 6658  70 29 29 29 29 70	DB 112, 41, 41, 41, 41, 112, 41, 41, 112, 112, 
				245, 245, 112, 41, 41, 112, 112, 112, 41, 112
       29 29 70 70 F5 F5	
       70 29 29 70 70 70	
       29 70			
 666C  70 29 70 70 70 29	DB 112, 41, 112, 112, 112, 41, 41, 112, 112, 11
				1, 112, 112, 41, 41, 112, 41, 41, 41, 41, 112
       29 70 70 6F 70 70	
       29 29 70 29 29 29	
       29 70			
 6680  70 29 29 29 29 29	DB 112, 41, 41, 41, 41, 41, 41, 41, 112, 112, 1
				11, 245, 207, 41, 112, 41, 41, 41, 41, 41
       29 29 70 70 6F F5	
       CF 29 70 29 29 29	
       29 29			
 6694  29 29 70 29 29 70	DB 41, 41, 112, 41, 41, 112, 41, 245, 245, 112,
				 112, 112, 41, 41, 41, 41, 41, 112, 41, 112
       29 F5 F5 70 70 70	
       29 29 29 29 29 70	
       29 70			
 66A8  F5 70 29 70 29 29	DB 245, 112, 41, 112, 41, 41, 41, 41, 41, 41, 4
				1, 112, 245, 226, 112, 41, 112, 112, 41, 41
       29 29 29 29 29 70	
       F5 E2 70 29 70 70	
       29 29			
 66BC  29 29 29 70 29 70	DB 41, 41, 41, 112, 41, 112, 245, 112, 41, 41, 
Microsoft (R) Macro Assembler Version 5.10                  12/6/19 16:06:45
                                                             Page     1-149


				41, 41, 41, 41, 41, 41, 112, 41, 112, 245
       F5 70 29 29 29 29	
       29 29 29 29 70 29	
       70 F5			
 66D0  70 29 70 29 29 29	DB 112, 41, 112, 41, 41, 41, 41, 112, 112, 41, 
				41, 41, 112, 245, 245, 112, 112, 112, 112, 41
       29 70 70 29 29 29	
       70 F5 F5 70 70 70	
       70 29			
 66E4  29 70 29 70 70 F5	DB 41, 112, 41, 112, 112, 245, 245, 112, 41, 41
				, 41, 112, 112, 41, 41, 41, 41, 41, 41, 112
       F5 70 29 29 29 70	
       70 29 29 29 29 29	
       29 70			
 66F8  70 29 70 29 29 29	DB 112, 41, 112, 41, 41, 41, 41, 112, 245, 112,
				 41, 41, 112, 245, 245, 245, 112, 112, 112, 41
       29 70 F5 70 29 29	
       70 F5 F5 F5 70 70	
       70 29			
 670C  29 70 70 70 F5 F5	DB 41, 112, 112, 112, 245, 245, 245, 112, 41, 4
				1, 112, 245, 112, 41, 41, 41, 41, 41, 41, 112
       F5 70 29 29 70 F5	
       70 29 29 29 29 29	
       29 70			
 6720  F5 70 70 70 29 29	DB 245, 112, 112, 112, 41, 41, 41, 112, 245, 24
				5, 111, 112, 112, 245, 245, 245, 245, 41, 112, 
				41
       29 70 F5 F5 6F 70	
       70 F5 F5 F5 F5 29	
       70 29			
 6734  29 70 70 F5 F5 F5	DB 41, 112, 112, 245, 245, 245, 245, 112, 41, 1
				12, 245, 245, 112, 41, 41, 41, 112, 41, 112, 24
				5
       F5 70 29 70 F5 F5	
       70 29 29 29 70 29	
       70 F5			
 6748  F5 70 70 70 29 29	DB 245, 112, 112, 112, 41, 41, 41, 112, 245, 24
				5, 245, 245, 245, 245, 245, 245, 245, 112, 41, 
				112
       29 70 F5 F5 F5 F5	
       F5 F5 F5 F5 F5 70	
       29 70			
 675C  70 29 F5 F5 F6 F5	DB 112, 41, 245, 245, 246, 245, 245, 245, 245, 
				245, 245, 245, 41, 41, 41, 41, 112, 41, 112, 24
				5
       F5 F5 F5 F5 F5 F5	
       29 29 29 29 70 29	
       70 F5			
 6770  F5 6F 29 29 70 70	DB 245, 111, 41, 41, 112, 112, 41, 112, 245, 24
				5, 245, 245, 245, 245, 245, 245, 245, 245, 112,
				 41
       29 70 F5 F5 F5 F5	
       F5 F5 F5 F5 F5 F5	
       70 29			
Microsoft (R) Macro Assembler Version 5.10                  12/6/19 16:06:45
                                                             Page     1-150


 6784  29 70 F5 F5 F5 F5	DB 41, 112, 245, 245, 245, 245, 245, 245, 245, 
				245, 245, 245, 41, 41, 112, 112, 41, 112, 111, 
				245
       F5 F5 F5 F5 F5 F5	
       29 29 70 70 29 70	
       6F F5			
 6798  F5 F5 6F 70 F5 F5	DB 245, 245, 111, 112, 245, 245, 112, 41, 112, 
				245, 245, 245, 245, 245, 245, 245, 245, 245, 24
				5, 112
       70 29 70 F5 F5 F5	
       F5 F5 F5 F5 F5 F5	
       F5 70			
 67AC  70 F5 F5 F5 F5 F5	DB 112, 245, 245, 245, 245, 245, 245, 245, 245,
				 245, 245, 112, 41, 112, 245, 112, 112, 245, 24
				5, 245
       F5 F5 F5 F5 F5 70	
       29 70 F5 70 70 F5	
       F5 F5			
 67C0  F5 F5 F5 F5 F5 F5	DB 245, 245, 245, 245, 245, 245, 245, 111, 245,
				 245, 245, 245, 245, 245, 245, 245, 245, 245, 2
				45, 245
       F5 6F F5 F5 F5 F5	
       F5 F5 F5 F5 F5 F5	
       F5 F5			
 67D4  F5 F5 F5 F5 F5 F5	DB 245, 245, 245, 245, 245, 245, 245, 245, 245,
				 245, 245, 112, 112, 245, 245, 245, 245, 245, 2
				45, 245
       F5 F5 F5 F5 F5 70	
       70 F5 F5 F5 F5 F5	
       F5 F5			
				
 67E8  F5 F5 F5 F5 F5 F5	GHOST1_1 DB 245, 245, 245, 245, 245, 245, 245, 
				245, 245, 245, 245, 245, 245, 245, 245, 245, 24
				5, 245, 246, 176
       F5 F5 F5 F5 F5 F5	
       F5 F5 F5 F5 F5 F5	
       F6 B0			
 67FC  51 B0 F5 F5 F5 F5	DB 81, 176, 245, 245, 245, 245, 245, 245, 245, 
				245, 245, 245, 245, 245, 245, 245, 245, 245, 24
				5, 245
       F5 F5 F5 F5 F5 F5	
       F5 F5 F5 F5 F5 F5	
       F5 F5			
 6810  F5 F5 F5 F5 F5 F5	DB 245, 245, 245, 245, 245, 245, 245, 245, 245,
				 245, 245, 245, 245, 245, 245, 245, 245, 245, 1
				76, 176
       F5 F5 F5 F5 F5 F5	
       F5 F5 F5 F5 F5 F5	
       B0 B0			
 6824  51 B0 B0 F5 F5 F5	DB 81, 176, 176, 245, 245, 245, 245, 245, 245, 
				245, 245, 245, 245, 245, 245, 245, 245, 245, 24
				5, 245
       F5 F5 F5 F5 F5 F5	
       F5 F5 F5 F5 F5 F5	
Microsoft (R) Macro Assembler Version 5.10                  12/6/19 16:06:45
                                                             Page     1-151


       F5 F5			
 6838  F5 F5 F5 F5 F5 F5	DB 245, 245, 245, 245, 245, 245, 245, 245, 245,
				 245, 245, 245, 245, 245, 245, 245, 245, 245, 1
				76, 103
       F5 F5 F5 F5 F5 F5	
       F5 F5 F5 F5 F5 F5	
       B0 67			
 684C  51 67 B0 F5 F5 F5	DB 81, 103, 176, 245, 245, 245, 245, 245, 245, 
				245, 245, 245, 245, 245, 245, 245, 245, 245, 24
				5, 245
       F5 F5 F5 F5 F5 F5	
       F5 F5 F5 F5 F5 F5	
       F5 F5			
 6860  F5 F5 F5 F5 F5 F5	DB 245, 245, 245, 245, 245, 245, 245, 245, 245,
				 245, 245, 245, 245, 245, 245, 245, 245, 245, 1
				76, 103
       F5 F5 F5 F5 F5 F5	
       F5 F5 F5 F5 F5 F5	
       B0 67			
 6874  51 67 B0 F5 F5 F5	DB 81, 103, 176, 245, 245, 245, 245, 245, 245, 
				245, 245, 245, 245, 245, 245, 245, 245, 245, 24
				5, 245
       F5 F5 F5 F5 F5 F5	
       F5 F5 F5 F5 F5 F5	
       F5 F5			
 6888  F5 F5 F5 F5 F5 F5	DB 245, 245, 245, 245, 245, 245, 245, 245, 245,
				 245, 245, 245, 245, 245, 245, 245, 245, 245, 1
				76, 103
       F5 F5 F5 F5 F5 F5	
       F5 F5 F5 F5 F5 F5	
       B0 67			
 689C  51 67 B0 F5 F5 F5	DB 81, 103, 176, 245, 245, 245, 245, 245, 245, 
				245, 245, 245, 245, 245, 245, 245, 245, 245, 24
				5, 245
       F5 F5 F5 F5 F5 F5	
       F5 F5 F5 F5 F5 F5	
       F5 F5			
 68B0  F5 F5 F5 F5 F5 F5	DB 245, 245, 245, 245, 245, 245, 245, 245, 245,
				 245, 245, 245, 245, 245, 245, 245, 245, 245, 1
				76, 103
       F5 F5 F5 F5 F5 F5	
       F5 F5 F5 F5 F5 F5	
       B0 67			
 68C4  51 67 B0 F5 F5 F5	DB 81, 103, 176, 245, 245, 245, 245, 245, 245, 
				245, 245, 245, 245, 245, 245, 245, 245, 245, 24
				5, 245
       F5 F5 F5 F5 F5 F5	
       F5 F5 F5 F5 F5 F5	
       F5 F5			
 68D8  F5 F5 F5 F5 F5 F5	DB 245, 245, 245, 245, 245, 245, 245, 245, 245,
				 245, 245, 245, 245, 245, 245, 245, 245, 245, 1
				76, 103
       F5 F5 F5 F5 F5 F5	
       F5 F5 F5 F5 F5 F5	
Microsoft (R) Macro Assembler Version 5.10                  12/6/19 16:06:45
                                                             Page     1-152


       B0 67			
 68EC  51 67 B0 F5 F5 F5	DB 81, 103, 176, 245, 245, 245, 245, 245, 245, 
				245, 245, 245, 245, 245, 245, 245, 245, 245, 24
				5, 245
       F5 F5 F5 F5 F5 F5	
       F5 F5 F5 F5 F5 F5	
       F5 F5			
 6900  F5 F5 F5 F5 F5 F5	DB 245, 245, 245, 245, 245, 245, 245, 245, 245,
				 245, 245, 245, 245, 245, 245, 245, 245, 176, 1
				76, 103
       F5 F5 F5 F5 F5 F5	
       F5 F5 F5 F5 F5 B0	
       B0 67			
 6914  51 67 B0 B0 F5 F5	DB 81, 103, 176, 176, 245, 245, 245, 245, 245, 
				245, 245, 245, 245, 245, 245, 245, 245, 245, 24
				5, 245
       F5 F5 F5 F5 F5 F5	
       F5 F5 F5 F5 F5 F5	
       F5 F5			
 6928  F5 F5 F5 F5 F5 F5	DB 245, 245, 245, 245, 245, 245, 245, 245, 245,
				 245, 245, 245, 245, 245, 245, 245, 245, 176, 1
				03, 103
       F5 F5 F5 F5 F5 F5	
       F5 F5 F5 F5 F5 B0	
       67 67			
 693C  51 67 67 B0 F5 F5	DB 81, 103, 103, 176, 245, 245, 245, 245, 245, 
				245, 245, 245, 245, 245, 245, 245, 245, 245, 24
				5, 245
       F5 F5 F5 F5 F5 F5	
       F5 F5 F5 F5 F5 F5	
       F5 F5			
 6950  F5 F5 F5 F5 F5 F5	DB 245, 245, 245, 245, 245, 245, 245, 245, 245,
				 245, 245, 245, 245, 245, 245, 245, 245, 176, 1
				03, 81
       F5 F5 F5 F5 F5 F5	
       F5 F5 F5 F5 F5 B0	
       67 51			
 6964  51 51 67 B0 F5 F5	DB 81, 81, 103, 176, 245, 245, 245, 245, 245, 2
				45, 245, 245, 245, 245, 245, 245, 245, 245, 245
				, 245
       F5 F5 F5 F5 F5 F5	
       F5 F5 F5 F5 F5 F5	
       F5 F5			
 6978  F5 F5 F5 F5 F5 F5	DB 245, 245, 245, 245, 245, 245, 245, 245, 245,
				 245, 245, 245, 245, 245, 245, 245, 245, 176, 1
				03, 81
       F5 F5 F5 F5 F5 F5	
       F5 F5 F5 F5 F5 B0	
       67 51			
 698C  51 51 67 B0 F5 F5	DB 81, 81, 103, 176, 245, 245, 245, 245, 245, 2
				45, 245, 245, 245, 245, 245, 245, 245, 245, 245
				, 245
       F5 F5 F5 F5 F5 F5	
       F5 F5 F5 F5 F5 F5	
Microsoft (R) Macro Assembler Version 5.10                  12/6/19 16:06:45
                                                             Page     1-153


       F5 F5			
 69A0  F5 F5 F5 F5 F5 F5	DB 245, 245, 245, 245, 245, 245, 245, 245, 245,
				 245, 245, 245, 245, 245, 245, 245, 176, 176, 1
				03, 81
       F5 F5 F5 F5 F5 F5	
       F5 F5 F5 F5 B0 B0	
       67 51			
 69B4  51 51 67 B0 B0 F5	DB 81, 81, 103, 176, 176, 245, 245, 245, 245, 2
				45, 245, 245, 245, 245, 245, 245, 245, 245, 245
				, 245
       F5 F5 F5 F5 F5 F5	
       F5 F5 F5 F5 F5 F5	
       F5 F5			
 69C8  F5 F5 F5 F5 F5 F5	DB 245, 245, 245, 245, 245, 245, 245, 245, 245,
				 245, 176, 246, 245, 245, 245, 245, 176, 103, 1
				03, 81
       F5 F5 F5 F5 B0 F6	
       F5 F5 F5 F5 B0 67	
       67 51			
 69DC  51 51 67 67 B0 F5	DB 81, 81, 103, 103, 176, 245, 245, 245, 245, 2
				45, 245, 245, 245, 245, 245, 245, 245, 245, 245
				, 245
       F5 F5 F5 F5 F5 F5	
       F5 F5 F5 F5 F5 F5	
       F5 F5			
 69F0  F5 F5 F5 F5 F5 F5	DB 245, 245, 245, 245, 245, 245, 245, 245, 245,
				 176, 81, 176, 245, 245, 245, 245, 176, 103, 81
				, 81
       F5 F5 F5 B0 51 B0	
       F5 F5 F5 F5 B0 67	
       51 51			
 6A04  51 51 51 67 B0 F5	DB 81, 81, 81, 103, 176, 245, 245, 245, 245, 24
				5, 176, 176, 245, 245, 245, 245, 245, 245, 245,
				 245
       F5 F5 F5 F5 B0 B0	
       F5 F5 F5 F5 F5 F5	
       F5 F5			
 6A18  F5 F5 F5 F5 F5 F5	DB 245, 245, 245, 245, 245, 245, 245, 245, 176,
				 81, 81, 176, 245, 245, 245, 245, 176, 103, 81,
				 81
       F5 F5 B0 51 51 B0	
       F5 F5 F5 F5 B0 67	
       51 51			
 6A2C  51 51 51 67 B0 F5	DB 81, 81, 81, 103, 176, 245, 245, 245, 245, 24
				5, 176, 103, 176, 245, 245, 245, 245, 245, 245,
				 245
       F5 F5 F5 F5 B0 67	
       B0 F5 F5 F5 F5 F5	
       F5 F5			
 6A40  F5 F5 F5 F5 F5 F5	DB 245, 245, 245, 245, 245, 245, 176, 176, 81, 
				81, 81, 176, 245, 245, 245, 245, 176, 103, 81, 
				81
       B0 B0 51 51 51 B0	
       F5 F5 F5 F5 B0 67	
Microsoft (R) Macro Assembler Version 5.10                  12/6/19 16:06:45
                                                             Page     1-154


       51 51			
 6A54  51 51 51 67 B0 F5	DB 81, 81, 81, 103, 176, 245, 245, 245, 245, 24
				5, 176, 103, 176, 245, 245, 245, 245, 245, 245,
				 245
       F5 F5 F5 F5 B0 67	
       B0 F5 F5 F5 F5 F5	
       F5 F5			
 6A68  F5 F5 F5 F5 F5 F5	DB 245, 245, 245, 245, 245, 245, 176, 81, 81, 8
				1, 81, 176, 245, 245, 176, 176, 176, 103, 81, 8
				1
       B0 51 51 51 51 B0	
       F5 F5 B0 B0 B0 67	
       51 51			
 6A7C  51 51 51 67 B0 B0	DB 81, 81, 81, 103, 176, 176, 176, 245, 245, 24
				5, 176, 103, 103, 176, 245, 245, 245, 245, 245,
				 245
       B0 F5 F5 F5 B0 67	
       67 B0 F5 F5 F5 F5	
       F5 F5			
 6A90  F5 F5 F5 F5 F5 B0	DB 245, 245, 245, 245, 245, 176, 81, 81, 81, 81
				, 81, 176, 245, 245, 176, 103, 103, 103, 81, 17
				6
       51 51 51 51 51 B0	
       F5 F5 B0 67 67 67	
       51 B0			
 6AA4  51 B0 51 67 67 67	DB 81, 176, 81, 103, 103, 103, 176, 245, 245, 2
				45, 176, 103, 103, 103, 176, 245, 245, 245, 245
				, 245
       B0 F5 F5 F5 B0 67	
       67 67 B0 F5 F5 F5	
       F5 F5			
 6AB8  F5 F5 F5 F5 F6 B0	DB 245, 245, 245, 245, 246, 176, 81, 81, 81, 81
				, 81, 176, 245, 245, 176, 103, 81, 81, 81, 176
       51 51 51 51 51 B0	
       F5 F5 B0 67 51 51	
       51 B0			
 6ACC  51 B0 51 51 67 67	DB 81, 176, 81, 81, 103, 103, 176, 245, 245, 24
				5, 176, 103, 81, 81, 103, 176, 245, 245, 245, 2
				45
       B0 F5 F5 F5 B0 67	
       51 51 67 B0 F5 F5	
       F5 F5			
 6AE0  F5 F5 F5 F5 B0 51	DB 245, 245, 245, 245, 176, 81, 81, 81, 81, 81,
				 81, 176, 245, 245, 176, 103, 81, 81, 81, 176
       51 51 51 51 51 B0	
       F5 F5 B0 67 51 51	
       51 B0			
 6AF4  51 B0 51 51 51 67	DB 81, 176, 81, 81, 81, 103, 176, 245, 245, 176
				, 176, 103, 81, 81, 81, 176, 245, 245, 245, 245
       B0 F5 F5 B0 B0 67	
       51 51 51 B0 F5 F5	
       F5 F5			
 6B08  F5 F5 F5 B0 B0 51	DB 245, 245, 245, 176, 176, 81, 81, 81, 81, 81,
				 81, 81, 176, 245, 176, 103, 81, 81, 176, 81
Microsoft (R) Macro Assembler Version 5.10                  12/6/19 16:06:45
                                                             Page     1-155


       51 51 51 51 51 51	
       B0 F5 B0 67 51 51	
       B0 51			
 6B1C  51 51 B0 51 51 67	DB 81, 81, 176, 81, 81, 103, 176, 176, 176, 103
				, 103, 103, 81, 81, 81, 103, 176, 245, 245, 245
       B0 B0 B0 67 67 67	
       51 51 51 67 B0 F5	
       F5 F5			
 6B30  F5 F5 F5 B0 51 51	DB 245, 245, 245, 176, 81, 81, 81, 81, 81, 81, 
				81, 81, 81, 176, 176, 103, 81, 176, 81, 81
       51 51 51 51 51 51	
       51 B0 B0 67 51 B0	
       51 51			
 6B44  51 51 51 B0 51 67	DB 81, 81, 81, 176, 81, 103, 176, 103, 103, 103
				, 81, 81, 81, 81, 81, 81, 103, 176, 245, 245
       B0 67 67 67 51 51	
       51 51 51 51 67 B0	
       F5 F5			
 6B58  F5 F5 F5 B0 51 51	DB 245, 245, 245, 176, 81, 81, 81, 81, 176, 81,
				 81, 81, 81, 176, 81, 103, 176, 81, 81, 81
       51 51 B0 51 51 51	
       51 B0 51 67 B0 51	
       51 51			
 6B6C  51 51 51 51 51 67	DB 81, 81, 81, 81, 81, 103, 103, 103, 81, 81, 8
				1, 81, 81, 81, 81, 81, 103, 176, 245, 245
       67 67 51 51 51 51	
       51 51 51 51 67 B0	
       F5 F5			
 6B80  F5 F5 F5 B0 51 51	DB 245, 245, 245, 176, 81, 81, 81, 81, 176, 176
				, 81, 81, 81, 81, 176, 81, 81, 81, 177, 81
       51 51 B0 B0 51 51	
       51 51 B0 51 51 51	
       B1 51			
 6B94  51 51 B0 51 51 51	DB 81, 81, 176, 81, 81, 81, 176, 81, 81, 81, 81
				, 81, 176, 81, 81, 81, 103, 103, 176, 245
       B0 51 51 51 51 51	
       B0 51 51 51 67 67	
       B0 F5			
 6BA8  F5 F5 B0 51 51 51	DB 245, 245, 176, 81, 81, 81, 81, 81, 176, 176,
				 81, 81, 81, 81, 176, 81, 81, 81, 81, 81
       51 51 B0 B0 51 51	
       51 51 B0 51 51 51	
       51 51			
 6BBC  51 51 51 51 51 51	DB 81, 81, 81, 81, 81, 81, 176, 81, 81, 81, 81,
				 176, 176, 81, 81, 81, 81, 103, 176, 245
       B0 51 51 51 51 B0	
       B0 51 51 51 51 67	
       B0 F5			
 6BD0  F5 F5 B0 51 51 51	DB 245, 245, 176, 81, 81, 81, 81, 81, 81, 176, 
				176, 81, 81, 81, 176, 176, 176, 176, 81, 81
       51 51 51 B0 B0 51	
       51 51 B0 B0 B0 B0	
       51 51			
 6BE4  51 51 51 B0 B0 B0	DB 81, 81, 81, 176, 176, 176, 176, 81, 81, 81, 
Microsoft (R) Macro Assembler Version 5.10                  12/6/19 16:06:45
                                                             Page     1-156


				81, 176, 81, 81, 81, 81, 81, 103, 176, 245
       B0 51 51 51 51 B0	
       51 51 51 51 51 67	
       B0 F5			
 6BF8  F5 B0 51 51 51 51	DB 245, 176, 81, 81, 81, 81, 81, 81, 81, 176, 2
				45, 176, 81, 81, 81, 176, 36, 176, 176, 81
       51 51 51 B0 F5 B0	
       51 51 51 B0 24 B0	
       B0 51			
 6C0C  51 51 B0 B0 24 B0	DB 81, 81, 176, 176, 36, 176, 81, 81, 81, 176, 
				176, 176, 81, 81, 81, 81, 81, 103, 176, 245
       51 51 51 B0 B0 B0	
       51 51 51 51 51 67	
       B0 F5			
 6C20  F5 B0 51 51 51 51	DB 245, 176, 81, 81, 81, 81, 81, 81, 81, 81, 17
				6, 245, 176, 81, 81, 176, 36, 36, 176, 176
       51 51 51 51 B0 F5	
       B0 51 51 B0 24 24	
       B0 B0			
 6C34  51 B0 B0 24 24 B1	DB 81, 176, 176, 36, 36, 177, 81, 81, 176, 245,
				 176, 81, 81, 81, 81, 81, 81, 103, 103, 176
       51 51 B0 F5 B0 51	
       51 51 51 51 51 67	
       67 B0			
 6C48  F5 B0 51 51 51 51	DB 245, 176, 81, 81, 81, 81, 81, 81, 81, 81, 17
				6, 245, 176, 80, 81, 81, 36, 176, 36, 176
       51 51 51 51 B0 F5	
       B0 50 51 51 24 B0	
       24 B0			
 6C5C  51 B0 24 B0 B0 51	DB 81, 176, 36, 176, 176, 81, 81, 81, 176, 245,
				 176, 81, 81, 81, 81, 81, 81, 81, 103, 176
       51 51 B0 F5 B0 51	
       51 51 51 51 51 51	
       67 B0			
 6C70  F5 B0 51 51 51 51	DB 245, 176, 81, 81, 81, 81, 81, 81, 81, 81, 81
				, 176, 245, 176, 81, 81, 81, 176, 81, 81
       51 51 51 51 51 B0	
       F5 B0 51 51 51 B0	
       51 51			
 6C84  51 51 51 B0 51 51	DB 81, 81, 81, 176, 81, 81, 81, 176, 245, 176, 
				176, 81, 81, 81, 81, 81, 81, 81, 103, 176
       51 B0 F5 B0 B0 51	
       51 51 51 51 51 51	
       67 B0			
 6C98  F5 B0 51 51 51 51	DB 245, 176, 81, 81, 81, 81, 81, 81, 176, 81, 8
				1, 81, 176, 245, 176, 81, 81, 176, 176, 81
       51 51 B0 51 51 51	
       B0 F5 B0 51 51 B0	
       B0 51			
 6CAC  51 51 B0 B0 51 51	DB 81, 81, 176, 176, 81, 81, 176, 245, 176, 81,
				 81, 81, 81, 81, 81, 176, 81, 81, 103, 176
       B0 F5 B0 51 51 51	
       51 51 51 B0 51 51	
       67 B0			
Microsoft (R) Macro Assembler Version 5.10                  12/6/19 16:06:45
                                                             Page     1-157


 6CC0  F5 B0 51 51 51 51	DB 245, 176, 81, 81, 81, 81, 81, 81, 176, 176, 
				81, 81, 81, 176, 245, 176, 81, 81, 176, 81
       51 51 B0 B0 51 51	
       51 B0 F5 B0 51 51	
       B0 51			
 6CD4  51 51 B0 51 51 B0	DB 81, 81, 176, 81, 81, 176, 245, 176, 81, 81, 
				81, 81, 81, 81, 81, 176, 81, 81, 103, 176
       F5 B0 51 51 51 51	
       51 51 51 B0 51 51	
       67 B0			
 6CE8  F5 B0 51 51 B0 51	DB 245, 176, 81, 81, 176, 81, 81, 81, 81, 176, 
				176, 81, 81, 176, 245, 245, 176, 81, 176, 176
       51 51 51 B0 B0 51	
       51 B0 F5 F5 B0 51	
       B0 B0			
 6CFC  51 B0 51 51 B0 F5	DB 81, 176, 81, 81, 176, 245, 245, 176, 81, 81,
				 176, 176, 81, 81, 103, 176, 176, 81, 103, 176
       F5 B0 51 51 B0 B0	
       51 51 67 B0 B0 51	
       67 B0			
 6D10  F5 B0 51 51 B0 B0	DB 245, 176, 81, 81, 176, 176, 81, 81, 81, 176,
				 245, 176, 81, 176, 245, 245, 176, 81, 81, 176
       51 51 51 B0 F5 B0	
       51 B0 F5 F5 B0 51	
       51 B0			
 6D24  51 B0 51 B0 F5 F5	DB 81, 176, 81, 176, 245, 245, 245, 176, 81, 17
				6, 245, 176, 81, 81, 103, 176, 176, 81, 103, 17
				6
       F5 B0 51 B0 F5 B0	
       51 51 67 B0 B0 51	
       67 B0			
 6D38  F5 B0 51 51 B0 F5	DB 245, 176, 81, 81, 176, 245, 176, 81, 81, 176
				, 246, 245, 176, 176, 245, 245, 245, 176, 176, 
				81
       B0 51 51 B0 F6 F5	
       B0 B0 F5 F5 F5 B0	
       B0 51			
 6D4C  B0 51 B0 F5 F5 F5	DB 176, 81, 176, 245, 245, 245, 245, 245, 176, 
				245, 245, 176, 81, 103, 103, 176, 176, 81, 103,
				 176
       F5 F5 B0 F5 F5 B0	
       51 67 67 B0 B0 51	
       67 B0			
 6D60  F5 B0 51 51 B0 F5	DB 245, 176, 81, 81, 176, 245, 176, 81, 81, 81,
				 176, 245, 245, 245, 245, 245, 245, 245, 245, 1
				76
       B0 51 51 51 B0 F5	
       F5 F5 F5 F5 F5 F5	
       F5 B0			
 6D74  B0 B0 F5 F5 F5 F5	DB 176, 176, 245, 245, 245, 245, 245, 245, 245,
				 245, 176, 81, 81, 103, 176, 245, 176, 81, 103,
				 176
       F5 F5 F5 F5 B0 51	
       51 67 B0 F5 B0 51	
Microsoft (R) Macro Assembler Version 5.10                  12/6/19 16:06:45
                                                             Page     1-158


       67 B0			
 6D88  F5 F5 B0 51 51 B0	DB 245, 245, 176, 81, 81, 176, 245, 176, 81, 81
				, 176, 245, 245, 245, 245, 245, 245, 245, 245, 
				245
       F5 B0 51 51 B0 F5	
       F5 F5 F5 F5 F5 F5	
       F5 F5			
 6D9C  F5 F5 F5 F5 F5 F5	DB 245, 245, 245, 245, 245, 245, 245, 245, 245,
				 245, 176, 81, 103, 81, 176, 245, 176, 103, 103
				, 176
       F5 F5 F5 F5 B0 51	
       67 51 B0 F5 B0 67	
       67 B0			
 6DB0  F5 F5 B0 51 67 B0	DB 245, 245, 176, 81, 103, 176, 245, 176, 176, 
				81, 176, 245, 245, 245, 245, 245, 245, 245, 245
				, 245
       F5 B0 B0 51 B0 F5	
       F5 F5 F5 F5 F5 F5	
       F5 F5			
 6DC4  F5 F5 F5 F5 F5 F5	DB 245, 245, 245, 245, 245, 245, 245, 245, 245,
				 176, 81, 81, 103, 176, 245, 176, 103, 103, 176
				, 245
       F5 F5 F5 B0 51 51	
       67 B0 F5 B0 67 67	
       B0 F5			
 6DD8  F5 F5 B0 B0 67 B0	DB 245, 245, 176, 176, 103, 176, 245, 245, 176,
				 81, 81, 176, 245, 245, 245, 245, 245, 245, 245
				, 245
       F5 F5 B0 51 51 B0	
       F5 F5 F5 F5 F5 F5	
       F5 F5			
 6DEC  F5 F5 F5 F5 F5 F5	DB 245, 245, 245, 245, 245, 245, 245, 245, 245,
				 176, 81, 81, 176, 245, 245, 176, 176, 176, 245
				, 245
       F5 F5 F5 B0 51 51	
       B0 F5 F5 B0 B0 B0	
       F5 F5			
 6E00  F5 F5 F5 F5 B0 B0	DB 245, 245, 245, 245, 176, 176, 245, 245, 245,
				 176, 176, 176, 245, 245, 245, 245, 245, 245, 2
				45, 245
       F5 F5 F5 B0 B0 B0	
       F5 F5 F5 F5 F5 F5	
       F5 F5			
 6E14  F5 F5 F5 F5 F5 F5	DB 245, 245, 245, 245, 245, 245, 245, 245, 245,
				 176, 176, 176, 245, 245, 245, 245, 245, 245, 2
				45, 245
       F5 F5 F5 B0 B0 B0	
       F5 F5 F5 F5 F5 F5	
       F5 F5			
				
 6E28  F5 F5 F5 F5 F5 F5	GHOST1_2 DB 245, 245, 245, 245, 245, 245, 245, 
				245, 245, 245, 245, 244, 244, 20, 172, 74, 74, 
				74, 74, 74
       F5 F5 F5 F5 F5 F4	
Microsoft (R) Macro Assembler Version 5.10                  12/6/19 16:06:45
                                                             Page     1-159


       F4 14 AC 4A 4A 4A	
       4A 4A			
 6E3C  4A 4A 4A 4A 4A 4A	DB 74, 74, 74, 74, 74, 74, 73, 147, 244, 244, 2
				45, 245, 245, 245, 245, 245, 245, 245, 245, 245
       49 93 F4 F4 F5 F5	
       F5 F5 F5 F5 F5 F5	
       F5 F5			
 6E50  F5 F5 F5 F5 F5 F5	DB 245, 245, 245, 245, 245, 245, 245, 245, 245,
				 245, 244, 172, 74, 74, 75, 75, 75, 98, 98, 98
       F5 F5 F5 F5 F4 AC	
       4A 4A 4B 4B 4B 62	
       62 62			
 6E64  62 63 63 62 4B 4B	DB 98, 99, 99, 98, 75, 75, 75, 74, 74, 24, 20, 
				245, 245, 245, 245, 245, 245, 245, 245, 245
       4B 4A 4A 18 14 F5	
       F5 F5 F5 F5 F5 F5	
       F5 F5			
 6E78  F5 F5 F5 F5 F5 F5	DB 245, 245, 245, 245, 245, 245, 245, 245, 245,
				 245, 148, 74, 75, 98, 99, 99, 99, 99, 99, 99
       F5 F5 F5 F5 94 4A	
       4B 62 63 63 63 63	
       63 63			
 6E8C  63 63 63 63 63 63	DB 99, 99, 99, 99, 99, 99, 99, 98, 98, 75, 24, 
				244, 245, 245, 245, 245, 245, 245, 245, 245
       63 62 62 4B 18 F4	
       F5 F5 F5 F5 F5 F5	
       F5 F5			
 6EA0  F5 F5 F5 F5 F5 F5	DB 245, 245, 245, 245, 245, 245, 245, 245, 244,
				 147, 24, 75, 99, 99, 99, 99, 99, 99, 99, 99
       F5 F5 F4 93 18 4B	
       63 63 63 63 63 63	
       63 63			
 6EB4  63 63 63 63 63 63	DB 99, 99, 99, 99, 99, 99, 99, 99, 99, 98, 74, 
				148, 244, 245, 245, 245, 245, 245, 245, 245
       63 63 63 62 4A 94	
       F4 F5 F5 F5 F5 F5	
       F5 F5			
 6EC8  F5 F5 F5 F5 F5 F5	DB 245, 245, 245, 245, 245, 245, 245, 245, 244,
				 24, 74, 98, 99, 99, 99, 99, 99, 99, 99, 99
       F5 F5 F4 18 4A 62	
       63 63 63 63 63 63	
       63 63			
 6EDC  63 63 63 63 63 63	DB 99, 99, 99, 99, 99, 99, 99, 99, 99, 99, 75, 
				74, 147, 245, 245, 245, 245, 245, 245, 245
       63 63 63 63 4B 4A	
       93 F5 F5 F5 F5 F5	
       F5 F5			
 6EF0  F5 F5 F5 F5 F5 F5	DB 245, 245, 245, 245, 245, 245, 245, 244, 172,
				 74, 75, 99, 99, 99, 99, 99, 99, 99, 99, 99
       F5 F4 AC 4A 4B 63	
       63 63 63 63 63 63	
       63 63			
 6F04  63 63 63 63 63 63	DB 99, 99, 99, 99, 99, 99, 99, 99, 99, 99, 98, 
				75, 24, 147, 245, 245, 245, 245, 245, 245
Microsoft (R) Macro Assembler Version 5.10                  12/6/19 16:06:45
                                                             Page     1-160


       63 63 63 63 62 4B	
       18 93 F5 F5 F5 F5	
       F5 F5			
 6F18  F5 F5 F5 F5 F5 F5	DB 245, 245, 245, 245, 245, 245, 245, 147, 74, 
				75, 98, 99, 99, 99, 99, 99, 99, 99, 99, 99
       F5 93 4A 4B 62 63	
       63 63 63 63 63 63	
       63 63			
 6F2C  63 63 63 63 63 63	DB 99, 99, 99, 99, 99, 99, 99, 99, 99, 99, 99, 
				98, 74, 148, 245, 245, 245, 245, 245, 245
       63 63 63 63 63 62	
       4A 94 F5 F5 F5 F5	
       F5 F5			
 6F40  F5 F5 F5 F5 F5 F5	DB 245, 245, 245, 245, 245, 245, 245, 147, 74, 
				75, 99, 99, 99, 97, 99, 99, 98, 99, 99, 99
       F5 93 4A 4B 63 63	
       63 61 63 63 62 63	
       63 63			
 6F54  63 63 63 63 63 64	DB 99, 99, 99, 99, 99, 100, 100, 99, 99, 99, 99
				, 99, 74, 148, 245, 245, 245, 245, 245, 245
       64 63 63 63 63 63	
       4A 94 F5 F5 F5 F5	
       F5 F5			
 6F68  F5 F5 F5 F5 F5 F5	DB 245, 245, 245, 245, 245, 245, 245, 147, 3, 7
				5, 99, 99, 66, 43, 43, 43, 43, 43, 43, 99
       F5 93 03 4B 63 63	
       42 2B 2B 2B 2B 2B	
       2B 63			
 6F7C  63 63 63 42 2B 2B	DB 99, 99, 99, 66, 43, 43, 43, 43, 43, 66, 99, 
				99, 74, 148, 245, 245, 245, 245, 245, 245
       2B 2B 2B 42 63 63	
       4A 94 F5 F5 F5 F5	
       F5 F5			
 6F90  F5 F5 F5 F5 F5 F5	DB 245, 245, 245, 245, 245, 245, 245, 147, 3, 7
				5, 99, 100, 66, 43, 43, 44, 43, 43, 43, 100
       F5 93 03 4B 63 64	
       42 2B 2B 2C 2B 2B	
       2B 64			
 6FA4  63 63 62 41 2B 2B	DB 99, 99, 98, 65, 43, 43, 44, 43, 43, 43, 98, 
				99, 74, 148, 245, 245, 245, 245, 245, 245
       2C 2B 2B 2B 62 63	
       4A 94 F5 F5 F5 F5	
       F5 F5			
 6FB8  F5 F5 F5 F5 F5 F5	DB 245, 245, 245, 245, 245, 245, 245, 147, 3, 7
				5, 99, 100, 66, 43, 43, 44, 43, 43, 66, 100
       F5 93 03 4B 63 64	
       42 2B 2B 2C 2B 2B	
       42 64			
 6FCC  63 63 62 19 2B 2B	DB 99, 99, 98, 25, 43, 43, 44, 43, 43, 43, 99, 
				99, 74, 148, 245, 245, 245, 245, 245, 245
       2C 2B 2B 2B 63 63	
       4A 94 F5 F5 F5 F5	
       F5 F5			
 6FE0  F5 F5 F5 F5 F5 F5	DB 245, 245, 245, 245, 245, 245, 245, 147, 3, 7
Microsoft (R) Macro Assembler Version 5.10                  12/6/19 16:06:45
                                                             Page     1-161


				5, 99, 99, 70, 43, 43, 42, 43, 43, 43, 99
       F5 93 03 4B 63 63	
       46 2B 2B 2A 2B 2B	
       2B 63			
 6FF4  63 63 63 2B 42 2B	DB 99, 99, 99, 43, 66, 43, 42, 43, 43, 69, 99, 
				99, 74, 148, 245, 245, 245, 245, 245, 245
       2A 2B 2B 45 63 63	
       4A 94 F5 F5 F5 F5	
       F5 F5			
 7008  F5 F5 F5 F5 F5 F5	DB 245, 245, 245, 245, 245, 245, 245, 147, 3, 7
				4, 99, 99, 99, 98, 99, 99, 98, 98, 99, 99
       F5 93 03 4A 63 63	
       63 62 63 63 62 62	
       63 63			
 701C  63 63 63 63 63 63	DB 99, 99, 99, 99, 99, 99, 99, 99, 99, 99, 99, 
				99, 74, 148, 245, 245, 245, 245, 245, 245
       63 63 63 63 63 63	
       4A 94 F5 F5 F5 F5	
       F5 F5			
 7030  F5 F5 F5 F5 F5 F5	DB 245, 245, 245, 245, 245, 245, 245, 147, 3, 7
				4, 99, 99, 99, 99, 99, 99, 99, 99, 74, 74
       F5 93 03 4A 63 63	
       63 63 63 63 63 63	
       4A 4A			
 7044  4A 4A 4B 62 63 63	DB 74, 74, 75, 98, 99, 99, 99, 99, 99, 99, 99, 
				98, 74, 148, 245, 245, 245, 245, 245, 245
       63 63 63 63 63 62	
       4A 94 F5 F5 F5 F5	
       F5 F5			
 7058  F5 F5 F5 F5 F5 F5	DB 245, 245, 245, 245, 245, 245, 245, 147, 3, 7
				4, 98, 99, 99, 98, 74, 74, 3, 3, 3, 3
       F5 93 03 4A 62 63	
       63 62 4A 4A 03 03	
       03 03			
 706C  03 03 03 03 03 4A	DB 3, 3, 3, 3, 3, 74, 74, 75, 98, 99, 99, 75, 3
				, 148, 245, 245, 245, 245, 245, 245
       4A 4B 62 63 63 4B	
       03 94 F5 F5 F5 F5	
       F5 F5			
 7080  F5 F5 F5 F5 F5 F5	DB 245, 245, 245, 245, 245, 245, 146, 148, 3, 7
				4, 99, 99, 99, 98, 75, 3, 3, 3, 3, 3
       92 94 03 4A 63 63	
       63 62 4B 03 03 03	
       03 03			
 7094  03 03 03 03 03 03	DB 3, 3, 3, 3, 3, 3, 74, 75, 98, 99, 99, 99, 75
				, 3, 148, 244, 245, 245, 245, 245
       4A 4B 62 63 63 63	
       4B 03 94 F4 F5 F5	
       F5 F5			
 70A8  F5 F5 F5 F5 F5 F5	DB 245, 245, 245, 245, 245, 245, 148, 3, 3, 99,
				 99, 99, 99, 99, 74, 3, 3, 3, 3, 3
       94 03 03 63 63 63	
       63 63 4A 03 03 03	
       03 03			
Microsoft (R) Macro Assembler Version 5.10                  12/6/19 16:06:45
                                                             Page     1-162


 70BC  03 03 03 03 03 03	DB 3, 3, 3, 3, 3, 3, 74, 99, 99, 99, 99, 99, 99
				, 74, 3, 146, 245, 245, 245, 245
       4A 63 63 63 63 63	
       63 4A 03 92 F5 F5	
       F5 F5			
 70D0  F5 F5 F5 F5 F5 F5	DB 245, 245, 245, 245, 245, 245, 148, 3, 74, 99
				, 99, 99, 99, 99, 74, 3, 3, 3, 3, 3
       94 03 4A 63 63 63	
       63 63 4A 03 03 03	
       03 03			
 70E4  03 03 03 03 03 03	DB 3, 3, 3, 3, 3, 3, 3, 99, 99, 99, 99, 99, 98,
				 74, 3, 148, 245, 245, 245, 245
       03 63 63 63 63 63	
       62 4A 03 94 F5 F5	
       F5 F5			
 70F8  F5 F5 F5 F5 F4 94	DB 245, 245, 245, 245, 244, 148, 3, 73, 99, 99,
				 99, 99, 99, 99, 74, 3, 3, 3, 3, 3
       03 49 63 63 63 63	
       63 63 4A 03 03 03	
       03 03			
 710C  03 03 03 03 03 03	DB 3, 3, 3, 3, 3, 3, 3, 99, 99, 99, 99, 99, 99,
				 99, 75, 3, 147, 245, 245, 245
       03 63 63 63 63 63	
       63 63 4B 03 93 F5	
       F5 F5			
 7120  F5 F5 F5 F5 F4 94	DB 245, 245, 245, 245, 244, 148, 3, 75, 99, 99,
				 99, 99, 99, 99, 98, 3, 3, 3, 3, 3
       03 4B 63 63 63 63	
       63 63 62 03 03 03	
       03 03			
 7134  03 03 03 03 03 03	DB 3, 3, 3, 3, 3, 3, 75, 99, 99, 99, 99, 99, 99
				, 99, 75, 3, 148, 245, 245, 245
       4B 63 63 63 63 63	
       63 63 4B 03 94 F5	
       F5 F5			
 7148  F5 F5 F5 F5 F4 94	DB 245, 245, 245, 245, 244, 148, 3, 98, 99, 99,
				 99, 99, 99, 99, 99, 99, 99, 99, 99, 99
       03 62 63 63 63 63	
       63 63 63 63 63 63	
       63 63			
 715C  63 63 63 63 63 63	DB 99, 99, 99, 99, 99, 99, 99, 99, 99, 99, 99, 
				99, 99, 99, 75, 3, 148, 245, 245, 245
       63 63 63 63 63 63	
       63 63 4B 03 94 F5	
       F5 F5			
 7170  F5 F5 F5 F5 F4 03	DB 245, 245, 245, 245, 244, 3, 3, 99, 99, 99, 9
				9, 99, 99, 99, 99, 99, 99, 99, 99, 99
       03 63 63 63 63 63	
       63 63 63 63 63 63	
       63 63			
 7184  63 63 63 63 63 63	DB 99, 99, 99, 99, 99, 99, 99, 99, 99, 99, 99, 
				99, 99, 99, 98, 73, 3, 244, 245, 245
       63 63 63 63 63 63	
       63 63 62 49 03 F4	
Microsoft (R) Macro Assembler Version 5.10                  12/6/19 16:06:45
                                                             Page     1-163


       F5 F5			
 7198  F5 F5 F5 F4 93 03	DB 245, 245, 245, 244, 147, 3, 74, 99, 99, 99, 
				99, 99, 99, 99, 99, 99, 99, 99, 99, 99
       4A 63 63 63 63 63	
       63 63 63 63 63 63	
       63 63			
 71AC  63 63 63 63 63 63	DB 99, 99, 99, 99, 99, 99, 99, 99, 99, 99, 99, 
				99, 99, 99, 98, 74, 3, 148, 244, 245
       63 63 63 63 63 63	
       63 63 62 4A 03 94	
       F4 F5			
 71C0  F5 F5 F5 92 03 03	DB 245, 245, 245, 146, 3, 3, 74, 99, 99, 98, 98
				, 99, 99, 99, 99, 99, 99, 99, 99, 99
       4A 63 63 62 62 63	
       63 63 63 63 63 63	
       63 63			
 71D4  63 63 63 63 63 63	DB 99, 99, 99, 99, 99, 99, 99, 73, 74, 99, 98, 
				99, 99, 99, 98, 74, 3, 148, 244, 245
       63 49 4A 63 62 63	
       63 63 62 4A 03 94	
       F4 F5			
 71E8  F5 F5 F5 92 03 03	DB 245, 245, 245, 146, 3, 3, 74, 74, 74, 75, 98
				, 99, 99, 99, 99, 99, 99, 99, 99, 99
       4A 4A 4A 4B 62 63	
       63 63 63 63 63 63	
       63 63			
 71FC  63 63 63 63 63 63	DB 99, 99, 99, 99, 99, 99, 99, 74, 3, 99, 99, 9
				9, 99, 99, 98, 74, 3, 148, 244, 245
       63 4A 03 63 63 63	
       63 63 62 4A 03 94	
       F4 F5			
 7210  F5 F5 F5 92 03 03	DB 245, 245, 245, 146, 3, 3, 3, 73, 74, 98, 99,
				 99, 99, 99, 99, 99, 99, 99, 99, 99
       03 49 4A 62 63 63	
       63 63 63 63 63 63	
       63 63			
 7224  63 63 63 63 63 63	DB 99, 99, 99, 99, 99, 99, 99, 75, 3, 98, 99, 9
				9, 99, 99, 99, 74, 74, 3, 244, 245
       63 4B 03 62 63 63	
       63 63 63 4A 4A 03	
       F4 F5			
 7238  F5 F5 F5 92 03 03	DB 245, 245, 245, 146, 3, 3, 3, 75, 99, 99, 99,
				 99, 99, 98, 99, 99, 99, 99, 99, 99
       03 4B 63 63 63 63	
       63 62 63 63 63 63	
       63 63			
 724C  63 63 63 63 63 63	DB 99, 99, 99, 99, 99, 99, 99, 98, 74, 74, 99, 
				99, 98, 99, 99, 99, 74, 74, 244, 245
       63 62 4A 4A 63 63	
       62 63 63 63 4A 4A	
       F4 F5			
 7260  F4 94 94 03 03 03	DB 244, 148, 148, 3, 3, 3, 74, 75, 98, 99, 99, 
				99, 99, 98, 98, 99, 99, 99, 99, 98
       4A 4B 62 63 63 63	
Microsoft (R) Macro Assembler Version 5.10                  12/6/19 16:06:45
                                                             Page     1-164


       63 62 62 63 63 63	
       63 62			
 7274  62 63 63 63 63 63	DB 98, 99, 99, 99, 99, 99, 99, 98, 75, 3, 75, 9
				9, 99, 99, 99, 99, 99, 74, 3, 245
       63 62 4B 03 4B 63	
       63 63 63 63 63 4A	
       03 F5			
 7288  94 03 03 03 4A 4B	DB 148, 3, 3, 3, 74, 75, 75, 98, 99, 99, 99, 99
				, 98, 74, 73, 99, 99, 99, 99, 98
       4B 62 63 63 63 63	
       62 4A 49 63 63 63	
       63 62			
 729C  03 62 63 63 63 63	DB 3, 98, 99, 99, 99, 99, 99, 98, 74, 3, 74, 98
				, 99, 98, 99, 99, 99, 74, 74, 3
       63 62 4A 03 4A 62	
       63 62 63 63 63 4A	
       4A 03			
 72B0  92 94 4A 4B 4B 62	DB 146, 148, 74, 75, 75, 98, 99, 99, 99, 99, 99
				, 99, 75, 3, 75, 99, 99, 99, 99, 98
       63 63 63 63 63 63	
       4B 03 4B 63 63 63	
       63 62			
 72C4  03 62 63 4A 03 63	DB 3, 98, 99, 74, 3, 99, 99, 98, 74, 3, 3, 75, 
				75, 99, 99, 99, 99, 99, 74, 3
       63 62 4A 03 03 4B	
       4B 63 63 63 63 63	
       4A 03			
 72D8  F4 94 03 4A 4A 4B	DB 244, 148, 3, 74, 74, 75, 98, 99, 99, 99, 99,
				 98, 3, 74, 98, 99, 99, 99, 99, 98
       62 63 63 63 63 62	
       03 4A 62 63 63 63	
       63 62			
 72EC  03 62 63 4A 03 63	DB 3, 98, 99, 74, 3, 99, 99, 98, 74, 3, 3, 3, 7
				4, 74, 74, 74, 74, 74, 74, 3
       63 62 4A 03 03 03	
       4A 4A 4A 4A 4A 4A	
       4A 03			
 7300  F5 F5 93 03 03 03	DB 245, 245, 147, 3, 3, 3, 74, 99, 99, 98, 75, 
				3, 3, 75, 98, 98, 99, 99, 99, 98
       4A 63 63 62 4B 03	
       03 4B 62 62 63 63	
       63 62			
 7314  03 62 63 49 03 63	DB 3, 98, 99, 73, 3, 99, 99, 98, 74, 148, 146, 
				148, 3, 3, 3, 147, 148, 147, 3, 3
       63 62 4A 94 92 94	
       03 03 03 93 94 93	
       03 03			
 7328  F5 F5 F5 92 94 03	DB 245, 245, 245, 146, 148, 3, 3, 75, 98, 75, 3
				, 3, 3, 75, 98, 98, 99, 99, 98, 75
       03 4B 62 4B 03 03	
       03 4B 62 62 63 63	
       62 4B			
 733C  03 62 63 49 03 62	DB 3, 98, 99, 73, 3, 98, 99, 98, 74, 74, 148, 2
				44, 148, 148, 245, 245, 245, 245, 245, 245
Microsoft (R) Macro Assembler Version 5.10                  12/6/19 16:06:45
                                                             Page     1-165


       63 62 4A 4A 94 F4	
       94 94 F5 F5 F5 F5	
       F5 F5			
 7350  F5 F5 F5 F5 F5 F4	DB 245, 245, 245, 245, 245, 244, 3, 74, 74, 3, 
				3, 3, 74, 75, 98, 99, 99, 99, 98, 74
       03 4A 4A 03 03 03	
       4A 4B 62 63 63 63	
       62 4A			
 7364  4A 4A 62 03 03 62	DB 74, 74, 98, 3, 3, 98, 99, 98, 74, 3, 148, 24
				4, 245, 245, 245, 245, 245, 245, 245, 245
       63 62 4A 03 94 F4	
       F5 F5 F5 F5 F5 F5	
       F5 F5			
 7378  F5 F5 F5 F5 F5 F5	DB 245, 245, 245, 245, 245, 245, 147, 3, 3, 3, 
				148, 3, 3, 74, 75, 98, 99, 99, 98, 74
       93 03 03 03 94 03	
       03 4A 4B 62 63 63	
       62 4A			
 738C  03 03 4B 03 03 4B	DB 3, 3, 75, 3, 3, 75, 99, 98, 74, 148, 245, 24
				5, 245, 245, 245, 245, 245, 245, 245, 245
       63 62 4A 94 F5 F5	
       F5 F5 F5 F5 F5 F5	
       F5 F5			
 73A0  F5 F5 F5 F5 F5 F5	DB 245, 245, 245, 245, 245, 245, 245, 147, 148,
				 146, 245, 148, 3, 74, 74, 98, 99, 98, 75, 3
       F5 93 94 92 F5 94	
       03 4A 4A 62 63 62	
       4B 03			
 73B4  03 03 4A 03 03 4B	DB 3, 3, 74, 3, 3, 75, 98, 75, 74, 148, 245, 24
				5, 245, 245, 245, 245, 245, 245, 245, 245
       62 4B 4A 94 F5 F5	
       F5 F5 F5 F5 F5 F5	
       F5 F5			
 73C8  F5 F5 F5 F5 F5 F5	DB 245, 245, 245, 245, 245, 245, 245, 245, 245,
				 245, 245, 244, 3, 3, 74, 98, 75, 74, 3, 3
       F5 F5 F5 F5 F5 F4	
       03 03 4A 62 4B 4A	
       03 03			
 73DC  94 03 63 03 03 03	DB 148, 3, 99, 3, 3, 3, 74, 74, 148, 244, 245, 
				245, 245, 245, 245, 245, 245, 245, 245, 245
       4A 4A 94 F4 F5 F5	
       F5 F5 F5 F5 F5 F5	
       F5 F5			
 73F0  F5 F5 F5 F5 F5 F5	DB 245, 245, 245, 245, 245, 245, 245, 245, 245,
				 245, 245, 245, 148, 3, 74, 75, 3, 3, 148, 244
       F5 F5 F5 F5 F5 F5	
       94 03 4A 4B 03 03	
       94 F4			
 7404  93 03 03 03 94 94	DB 147, 3, 3, 3, 148, 148, 3, 148, 244, 245, 24
				5, 245, 245, 245, 245, 245, 245, 245, 245, 245
       03 94 F4 F5 F5 F5	
       F5 F5 F5 F5 F5 F5	
       F5 F5			
 7418  F5 F5 F5 F5 F5 F5	DB 245, 245, 245, 245, 245, 245, 245, 245, 245,
Microsoft (R) Macro Assembler Version 5.10                  12/6/19 16:06:45
                                                             Page     1-166


				 245, 245, 245, 146, 3, 3, 3, 3, 3, 244, 245
       F5 F5 F5 F5 F5 F5	
       92 03 03 03 03 03	
       F4 F5			
 742C  F5 93 03 94 F4 F4	DB 245, 147, 3, 148, 244, 244, 244, 244, 245, 2
				45, 245, 245, 245, 245, 245, 245, 245, 245, 245
				, 245
       F4 F4 F5 F5 F5 F5	
       F5 F5 F5 F5 F5 F5	
       F5 F5			
 7440  F5 F5 F5 F5 F5 F5	DB 245, 245, 245, 245, 245, 245, 245, 245, 245,
				 245, 245, 245, 245, 244, 3, 3, 146, 244, 244, 
				245
       F5 F5 F5 F5 F5 F5	
       F5 F4 03 03 92 F4	
       F4 F5			
 7454  F5 F4 F4 F4 F5 F5	DB 245, 244, 244, 244, 245, 245, 245, 245, 245,
				 245, 245, 245, 245, 245, 245, 245, 245, 245, 2
				45, 245
       F5 F5 F5 F5 F5 F5	
       F5 F5 F5 F5 F5 F5	
       F5 F5			
				
 7468  F5 F5 F5 F5 F5 F5	GHOST2_0 DB 245, 245, 245, 245, 245, 245, 245, 
				245, 245, 245, 245, 245, 245, 246, 245, 245, 24
				5, 245, 245, 245
       F5 F5 F5 F5 F5 F5	
       F5 F6 F5 F5 F5 F5	
       F5 F5			
 747C  F5 F5 F5 F5 F5 F5	DB 245, 245, 245, 245, 245, 245, 245, 245, 245,
				 245, 245, 245, 245, 245, 245, 245, 245, 245, 2
				45, 245
       F5 F5 F5 F5 F5 F5	
       F5 F5 F5 F5 F5 F5	
       F5 F5			
 7490  F5 F5 F5 F5 F5 F5	DB 245, 245, 245, 245, 245, 245, 245, 245, 245,
				 245, 226, 5, 5, 154, 220, 245, 245, 245, 245, 
				245
       F5 F5 F5 F5 E2 05	
       05 9A DC F5 F5 F5	
       F5 F5			
 74A4  F5 F5 F5 F5 F5 F5	DB 245, 245, 245, 245, 245, 245, 245, 245, 245,
				 245, 245, 245, 245, 245, 245, 245, 245, 245, 2
				45, 245
       F5 F5 F5 F5 F5 F5	
       F5 F5 F5 F5 F5 F5	
       F5 F5			
 74B8  F5 F5 F5 F5 F5 F5	DB 245, 245, 245, 245, 245, 245, 245, 245, 130,
				 57, 57, 24, 148, 172, 244, 226, 245, 245, 245,
				 245
       F5 F5 82 39 39 18	
       94 AC F4 E2 F5 F5	
       F5 F5			
 74CC  F5 F5 F5 F5 F5 F5	DB 245, 245, 245, 245, 245, 245, 245, 245, 245,
Microsoft (R) Macro Assembler Version 5.10                  12/6/19 16:06:45
                                                             Page     1-167


				 245, 245, 245, 245, 245, 245, 245, 245, 245, 2
				45, 245
       F5 F5 F5 F5 F5 F5	
       F5 F5 F5 F5 F5 F5	
       F5 F5			
 74E0  F5 F5 F5 F5 F5 F5	DB 245, 245, 245, 245, 245, 245, 226, 57, 25, 7
				8, 80, 57, 23, 173, 203, 245, 245, 245, 245, 24
				5
       E2 39 19 4E 50 39	
       17 AD CB F5 F5 F5	
       F5 F5			
 74F4  F5 F5 F5 F5 F5 F5	DB 245, 245, 245, 245, 245, 245, 245, 245, 245,
				 245, 245, 245, 245, 245, 245, 245, 245, 245, 2
				45, 245
       F5 F5 F5 F5 F5 F5	
       F5 F5 F5 F5 F5 F5	
       F5 F5			
 7508  F5 F5 F5 F5 F5 05	DB 245, 245, 245, 245, 245, 5, 25, 78, 80, 80, 
				57, 24, 23, 150, 200, 245, 245, 245, 245, 245
       19 4E 50 50 39 18	
       17 96 C8 F5 F5 F5	
       F5 F5			
 751C  F5 F5 F5 F5 F5 F5	DB 245, 245, 245, 245, 245, 245, 245, 245, 245,
				 245, 245, 245, 245, 245, 245, 245, 245, 245, 2
				45, 245
       F5 F5 F5 F5 F5 F5	
       F5 F5 F5 F5 F5 F5	
       F5 F5			
 7530  F5 F5 F5 F6 9C 07	DB 245, 245, 245, 246, 156, 7, 80, 80, 80, 80, 
				80, 57, 24, 152, 219, 227, 245, 245, 245, 245
       50 50 50 50 50 39	
       18 98 DB E3 F5 F5	
       F5 F5			
 7544  F5 F5 F5 F5 F5 F5	DB 245, 245, 245, 245, 245, 245, 245, 245, 245,
				 245, 245, 245, 245, 245, 245, 245, 245, 245, 2
				45, 245
       F5 F5 F5 F5 F5 F5	
       F5 F5 F5 F5 F5 F5	
       F5 F5			
 7558  F5 F5 82 19 1C 52	DB 245, 245, 130, 25, 28, 82, 80, 57, 80, 7, 80
				, 27, 173, 23, 173, 225, 245, 245, 245, 245
       50 39 50 07 50 1B	
       AD 17 AD E1 F5 F5	
       F5 F5			
 756C  F5 F5 F5 F5 F5 F5	DB 245, 245, 245, 245, 245, 245, 245, 245, 245,
				 245, 245, 245, 245, 245, 245, 245, 245, 245, 2
				45, 245
       F5 F5 F5 F5 F5 F5	
       F5 F5 F5 F5 F5 F5	
       F5 F5			
 7580  F5 F5 05 91 08 18	DB 245, 245, 5, 145, 8, 24, 80, 80, 25, 24, 80,
				 25, 173, 23, 23, 20, 226, 228, 245, 245
       50 50 19 18 50 19	
       AD 17 17 14 E2 E4	
Microsoft (R) Macro Assembler Version 5.10                  12/6/19 16:06:45
                                                             Page     1-168


       F5 F5			
 7594  F5 F5 F5 F5 F5 F5	DB 245, 245, 245, 245, 245, 245, 245, 245, 245,
				 245, 245, 245, 245, 245, 245, 245, 245, 245, 2
				45, 245
       F5 F5 F5 F5 F5 F5	
       F5 F5 F5 F5 F5 F5	
       F5 F5			
 75A8  F5 F5 9C 00 00 00	DB 245, 245, 156, 0, 0, 0, 246, 174, 173, 7, 80
				, 57, 25, 173, 23, 152, 219, 246, 245, 245
       F6 AE AD 07 50 39	
       19 AD 17 98 DB F6	
       F5 F5			
 75BC  F5 F5 F5 F5 F5 F5	DB 245, 245, 245, 245, 245, 245, 245, 245, 245,
				 245, 245, 245, 245, 245, 245, 245, 245, 245, 2
				45, 245
       F5 F5 F5 F5 F5 F5	
       F5 F5 F5 F5 F5 F5	
       F5 F5			
 75D0  F5 14 82 00 00 11	DB 245, 20, 130, 0, 0, 17, 0, 0, 152, 81, 7, 25
				, 23, 173, 23, 151, 151, 219, 130, 245
       00 00 98 51 07 19	
       17 AD 17 97 97 DB	
       82 F5			
 75E4  F5 F5 F5 F5 F5 F5	DB 245, 245, 245, 245, 245, 245, 245, 245, 245,
				 245, 245, 245, 245, 245, 245, 245, 245, 245, 2
				45, 245
       F5 F5 F5 F5 F5 F5	
       F5 F5 F5 F5 F5 F5	
       F5 F5			
 75F8  F5 9B C3 00 18 12	DB 245, 155, 195, 0, 24, 18, 172, 244, 0, 24, 7
				9, 175, 173, 23, 174, 152, 23, 195, 228, 245
       AC F4 00 18 4F AF	
       AD 17 AE 98 17 C3	
       E4 F5			
 760C  F5 F5 F5 F5 F5 F5	DB 245, 245, 245, 245, 245, 245, 245, 245, 245,
				 245, 245, 245, 245, 245, 245, 245, 245, 245, 2
				45, 245
       F5 F5 F5 F5 F5 F5	
       F5 F5 F5 F5 F5 F5	
       F5 F5			
 7620  F5 05 11 00 19 12	DB 245, 5, 17, 0, 25, 18, 24, 152, 0, 0, 24, 24
				, 173, 23, 173, 23, 149, 203, 246, 245
       18 98 00 00 18 18	
       AD 17 AD 17 95 CB	
       F6 F5			
 7634  F5 F5 F5 F5 F5 F5	DB 245, 245, 245, 245, 245, 245, 245, 245, 245,
				 245, 245, 245, 245, 245, 245, 245, 245, 245, 2
				45, 245
       F5 F5 F5 F5 F5 F5	
       F5 F5 F5 F5 F5 F5	
       F5 F5			
 7648  F5 9C 00 11 00 11	DB 245, 156, 0, 17, 0, 17, 0, 17, 17, 0, 0, 24,
				 23, 23, 23, 174, 244, 246, 204, 245
       00 11 11 00 00 18	
Microsoft (R) Macro Assembler Version 5.10                  12/6/19 16:06:45
                                                             Page     1-169


       17 17 17 AE F4 F6	
       CC F5			
 765C  F5 F5 F5 F5 F5 F5	DB 245, 245, 245, 245, 245, 245, 245, 245, 245,
				 245, 245, 245, 245, 245, 245, 245, 245, 245, 2
				45, 245
       F5 F5 F5 F5 F5 F5	
       F5 F5 F5 F5 F5 F5	
       F5 F5			
 7670  F5 84 00 00 11 11	DB 245, 132, 0, 0, 17, 17, 17, 17, 0, 0, 152, 2
				4, 23, 23, 174, 152, 245, 217, 131, 245
       11 11 00 00 98 18	
       17 17 AE 98 F5 D9	
       83 F5			
 7684  F5 F5 F5 F5 F5 F5	DB 245, 245, 245, 245, 245, 245, 245, 245, 245,
				 245, 245, 245, 245, 245, 245, 245, 245, 245, 2
				45, 245
       F5 F5 F5 F5 F5 F5	
       F5 F5 F5 F5 F5 F5	
       F5 F5			
 7698  F5 84 DC 12 00 11	DB 245, 132, 220, 18, 0, 17, 0, 0, 18, 24, 79, 
				24, 174, 174, 174, 175, 152, 152, 219, 129
       00 00 12 18 4F 18	
       AE AE AE AF 98 98	
       DB 81			
 76AC  F5 F5 F5 F5 F5 F5	DB 245, 245, 245, 245, 245, 245, 245, 245, 245,
				 245, 245, 245, 245, 245, 245, 245, 245, 245, 2
				45, 245
       F5 F5 F5 F5 F5 F5	
       F5 F5 F5 F5 F5 F5	
       F5 F5			
 76C0  F5 F5 05 96 11 00	DB 245, 245, 5, 150, 17, 0, 17, 23, 79, 7, 57, 
				24, 174, 25, 25, 7, 24, 173, 173, 195
       11 17 4F 07 39 18	
       AE 19 19 07 18 AD	
       AD C3			
 76D4  E4 F5 F5 F5 F5 F5	DB 228, 245, 245, 245, 245, 245, 245, 245, 245,
				 245, 245, 245, 245, 245, 245, 245, 245, 245, 2
				45, 245
       F5 F5 F5 F5 F5 F5	
       F5 F5 F5 F5 F5 F5	
       F5 F5			
 76E8  F5 F5 F5 05 18 18	DB 245, 245, 245, 5, 24, 24, 57, 79, 174, 7, 7,
				 23, 7, 80, 80, 80, 80, 23, 23, 173
       39 4F AE 07 07 17	
       07 50 50 50 50 17	
       17 AD			
 76FC  81 F5 F5 F5 F5 F5	DB 129, 245, 245, 245, 245, 245, 245, 245, 245,
				 245, 245, 245, 245, 245, 245, 245, 245, 245, 2
				45, 245
       F5 F5 F5 F5 F5 F5	
       F5 F5 F5 F5 F5 F5	
       F5 F5			
 7710  F5 F5 F5 E4 18 19	DB 245, 245, 245, 228, 24, 25, 23, 150, 25, 7, 
				173, 80, 80, 7, 25, 79, 80, 7, 174, 24
Microsoft (R) Macro Assembler Version 5.10                  12/6/19 16:06:45
                                                             Page     1-170


       17 96 19 07 AD 50	
       50 07 19 4F 50 07	
       AE 18			
 7724  93 84 F5 F5 F5 F5	DB 147, 132, 245, 245, 245, 245, 245, 245, 245,
				 245, 245, 245, 245, 245, 245, 245, 245, 245, 2
				45, 245
       F5 F5 F5 F5 F5 F5	
       F5 F5 F5 F5 F5 F5	
       F5 F5			
 7738  F5 F5 F5 F5 CC 96	DB 245, 245, 245, 245, 204, 150, 25, 27, 27, 17
				3, 57, 80, 27, 24, 25, 80, 80, 80, 25, 173
       19 1B 1B AD 39 50	
       1B 18 19 50 50 50	
       19 AD			
 774C  AE DC F5 F5 F5 F5	DB 174, 220, 245, 245, 245, 245, 245, 245, 245,
				 245, 245, 245, 245, 245, 245, 245, 245, 245, 2
				45, 245
       F5 F5 F5 F5 F5 F5	
       F5 F5 F5 F5 F5 F5	
       F5 F5			
 7760  F5 F5 F5 F5 F5 96	DB 245, 245, 245, 245, 245, 150, 79, 7, 174, 25
				, 80, 80, 80, 23, 25, 57, 79, 25, 25, 23
       4F 07 AE 19 50 50	
       50 17 19 39 4F 19	
       19 17			
 7774  AE F4 82 F5 F5 F5	DB 174, 244, 130, 245, 245, 245, 245, 245, 245,
				 245, 245, 245, 245, 245, 245, 245, 245, 245, 2
				45, 245
       F5 F5 F5 F5 F5 F5	
       F5 F5 F5 F5 F5 F5	
       F5 F5			
 7788  F5 F5 F5 F5 F5 96	DB 245, 245, 245, 245, 245, 150, 174, 24, 7, 80
				, 80, 27, 79, 23, 23, 23, 23, 173, 23, 174
       AE 18 07 50 50 1B	
       4F 17 17 17 17 AD	
       17 AE			
 779C  17 AF DC F5 F5 F5	DB 23, 175, 220, 245, 245, 245, 245, 245, 245, 
				245, 245, 245, 245, 245, 245, 245, 245, 245, 24
				5, 245
       F5 F5 F5 F5 F5 F5	
       F5 F5 F5 F5 F5 F5	
       F5 F5			
 77B0  F5 F5 F5 F5 82 AC	DB 245, 245, 245, 245, 130, 172, 174, 79, 80, 8
				0, 25, 25, 24, 151, 152, 152, 174, 80, 80, 25
       AE 4F 50 50 19 19	
       18 97 98 98 AE 50	
       50 19			
 77C4  AD 17 98 DB 82 F5	DB 173, 23, 152, 219, 130, 245, 245, 245, 245, 
				245, 245, 245, 245, 245, 245, 245, 245, 245, 24
				5, 245
       F5 F5 F5 F5 F5 F5	
       F5 F5 F5 F5 F5 F5	
       F5 F5			
 77D8  F5 F5 F5 F5 99 AE	DB 245, 245, 245, 245, 153, 174, 23, 24, 7, 25,
Microsoft (R) Macro Assembler Version 5.10                  12/6/19 16:06:45
                                                             Page     1-171


				 22, 8, 7, 27, 25, 25, 25, 25, 80, 80
       17 18 07 19 16 08	
       07 1B 19 19 19 19	
       50 50			
 77EC  18 AD AE F4 97 98	DB 24, 173, 174, 244, 151, 152, 151, 151, 20, 1
				8, 18, 18, 18, 18, 18, 245, 245, 245, 244, 245
       97 97 14 12 12 12	
       12 12 12 F5 F5 F5	
       F4 F5			
 7800  F5 F5 F5 E2 AC 07	DB 245, 245, 245, 226, 172, 7, 66, 65, 65, 66, 
				65, 6, 20, 102, 81, 80, 80, 25, 25, 25
       42 41 41 42 41 06	
       14 66 51 50 50 19	
       19 19			
 7814  AD 17 18 80 C3 14	DB 173, 23, 24, 128, 195, 20, 17, 17, 18, 246, 
				24, 24, 24, 23, 151, 18, 18, 18, 18, 223
       11 11 12 F6 18 18	
       18 17 97 12 12 12	
       12 DF			
 7828  F5 F5 F5 84 AC 42	DB 245, 245, 245, 132, 172, 66, 12, 65, 65, 164
				, 64, 64, 208, 25, 80, 80, 24, 174, 174, 174
       0C 41 41 A4 40 40	
       D0 19 50 50 18 AE	
       AE AE			
 783C  AD AF 17 17 80 17	DB 173, 175, 23, 23, 128, 23, 156, 24, 7, 80, 8
				0, 27, 25, 7, 7, 7, 24, 154, 225, 17
       9C 18 07 50 50 1B	
       19 07 07 07 18 9A	
       E1 11			
 7850  F5 F5 83 AE 18 06	DB 245, 245, 131, 174, 24, 6, 164, 164, 140, 20
				, 20, 20, 0, 23, 57, 80, 7, 174, 23, 23
       A4 A4 8C 14 14 14	
       00 17 39 50 07 AE	
       17 17			
 7864  17 98 F6 98 19 18	DB 23, 152, 246, 152, 25, 24, 7, 80, 27, 7, 218
				, 17, 17, 0, 225, 151, 175, 224, 0, 17
       07 50 1B 07 DA 11	
       11 00 E1 97 AF E0	
       00 11			
 7878  F5 F5 94 18 18 A2	DB 245, 245, 148, 24, 24, 162, 138, 140, 6, 157
				, 128, 199, 0, 154, 25, 25, 80, 24, 174, 174
       8A 8C 06 9D 80 C7	
       00 9A 19 19 50 18	
       AE AE			
 788C  18 18 97 AF 07 07	DB 24, 24, 151, 175, 7, 7, 80, 80, 24, 203, 0, 
				18, 17, 17, 0, 17, 18, 18, 226, 245
       50 50 18 CB 00 12	
       11 11 00 11 12 12	
       E2 F5			
 78A0  F5 F5 A9 38 38 38	DB 245, 245, 169, 56, 56, 56, 152, 245, 234, 23
				, 25, 128, 0, 20, 79, 173, 57, 173, 23, 151
       98 F5 EA 17 19 80	
       00 14 4F AD 39 AD	
       17 97			
Microsoft (R) Macro Assembler Version 5.10                  12/6/19 16:06:45
                                                             Page     1-172


 78B4  F6 98 AE 07 07 50	DB 246, 152, 174, 7, 7, 80, 7, 194, 193, 213, 2
				44, 245, 244, 245, 245, 245, 245, 245, 245, 245
       07 C2 C1 D5 F4 F5	
       F4 F5 F5 F5 F5 F5	
       F5 F5			
 78C8  F5 0C 06 16 38 18	DB 245, 12, 6, 22, 56, 24, 25, 175, 222, 23, 24
				, 174, 17, 224, 79, 174, 23, 173, 24, 152
       19 AF DE 17 18 AE	
       11 E0 4F AE 17 AD	
       18 98			
 78DC  11 DF 19 07 18 DC	DB 17, 223, 25, 7, 24, 220, 182, 234, 244, 245,
				 245, 245, 245, 245, 245, 245, 245, 245, 245, 2
				45
       B6 EA F4 F5 F5 F5	
       F5 F5 F5 F5 F5 F5	
       F5 F5			
 78F0  84 42 41 8C F4 18	DB 132, 66, 65, 140, 244, 24, 175, 174, 152, 24
				, 174, 151, 175, 0, 24, 23, 173, 174, 173, 24
       AF AE 98 18 AE 97	
       AF 00 18 17 AD AE	
       AD 18			
 7904  F7 DF DB 6D CC 11	DB 247, 223, 219, 109, 204, 17, 109, 245, 245, 
				245, 245, 245, 245, 245, 245, 245, 245, 245, 24
				5, 245
       6D F5 F5 F5 F5 F5	
       F5 F5 F5 F5 F5 F5	
       F5 F5			
 7918  40 8C 8A 0C 6B 95	DB 64, 140, 138, 12, 107, 149, 172, 152, 7, 23,
				 152, 226, 244, 222, 128, 24, 23, 173, 128, 150
       AC 98 07 17 98 E2	
       F4 DE 80 18 17 AD	
       80 96			
 792C  DB 11 11 14 F4 F4	DB 219, 17, 17, 20, 244, 244, 245, 245, 245, 24
				5, 245, 245, 245, 245, 245, 245, 245, 245, 245,
				 245
       F5 F5 F5 F5 F5 F5	
       F5 F5 F5 F5 F5 F5	
       F5 F5			
 7940  42 D3 B9 8C 84 82	DB 66, 211, 185, 140, 132, 130, 150, 23, 27, 17
				0, 149, 172, 151, 129, 244, 23, 175, 172, 220, 
				108
       96 17 1B AA 95 AC	
       97 81 F4 17 AF AC	
       DC 6C			
 7954  82 F5 F5 F5 F5 F5	DB 130, 245, 245, 245, 245, 245, 245, 245, 245,
				 245, 245, 245, 245, 245, 245, 245, 245, 245, 2
				45, 245
       F5 F5 F5 F5 F5 F5	
       F5 F5 F5 F5 F5 F5	
       F5 F5			
 7968  41 B9 BA 75 84 F5	DB 65, 185, 186, 117, 132, 245, 108, 147, 7, 78
				, 77, 11, 56, 108, 148, 24, 152, 108, 245, 131
       6C 93 07 4E 4D 0B	
       38 6C 94 18 98 6C	
Microsoft (R) Macro Assembler Version 5.10                  12/6/19 16:06:45
                                                             Page     1-173


       F5 83			
 797C  F5 F5 F5 F5 F5 F5	DB 245, 245, 245, 245, 245, 245, 245, 245, 245,
				 245, 245, 245, 245, 245, 245, 245, 245, 245, 2
				45, 245
       F5 F5 F5 F5 F5 F5	
       F5 F5 F5 F5 F5 F5	
       F5 F5			
 7990  8C 72 72 95 6C F5	DB 140, 114, 114, 149, 108, 245, 227, 196, 53, 
				101, 15, 78, 53, 5, 131, 148, 148, 246, 245, 24
				5
       E3 C4 35 65 0F 4E	
       35 05 83 94 94 F6	
       F5 F5			
 79A4  F5 F5 F5 F5 F5 F5	DB 245, 245, 245, 245, 245, 245, 245, 245, 245,
				 245, 245, 245, 245, 245, 245, 245, 245, 245, 2
				45, 245
       F5 F5 F5 F5 F5 F5	
       F5 F5 F5 F5 F5 F5	
       F5 F5			
 79B8  05 A4 93 DB B4 F5	DB 5, 164, 147, 219, 180, 245, 245, 108, 54, 77
				, 15, 101, 11, 156, 132, 130, 150, 226, 245, 24
				5
       F5 6C 36 4D 0F 65	
       0B 9C 84 82 96 E2	
       F5 F5			
 79CC  F5 F5 F5 F5 F5 F5	DB 245, 245, 245, 245, 245, 245, 245, 245, 245,
				 245, 245, 245, 245, 245, 245, 245, 245, 245, 2
				45, 245
       F5 F5 F5 F5 F5 F5	
       F5 F5 F5 F5 F5 F5	
       F5 F5			
 79E0  F5 05 83 84 E3 F5	DB 245, 5, 131, 132, 227, 245, 245, 245, 9, 11,
				 101, 27, 148, 246, 246, 245, 225, 245, 245, 24
				5
       F5 F5 09 0B 65 1B	
       94 F6 F6 F5 E1 F5	
       F5 F5			
 79F4  F5 F5 F5 F5 F5 F5	DB 245, 245, 245, 245, 245, 245, 245, 245, 245,
				 245, 245, 245, 245, 245, 245, 245, 245, 245, 2
				45, 245
       F5 F5 F5 F5 F5 F5	
       F5 F5 F5 F5 F5 F5	
       F5 F5			
 7A08  F5 F5 F5 F5 F5 F5	DB 245, 245, 245, 245, 245, 245, 245, 245, 5, 2
				4, 7, 8, 192, 108, 245, 245, 245, 245, 245, 245
       F5 F5 05 18 07 08	
       C0 6C F5 F5 F5 F5	
       F5 F5			
 7A1C  F5 F5 F5 F5 F5 F5	DB 245, 245, 245, 245, 245, 245, 245, 245, 245,
				 245, 245, 245, 245, 245, 245, 245, 245, 245, 2
				45, 245
       F5 F5 F5 F5 F5 F5	
       F5 F5 F5 F5 F5 F5	
       F5 F5			
Microsoft (R) Macro Assembler Version 5.10                  12/6/19 16:06:45
                                                             Page     1-174


 7A30  F5 F5 F5 F5 F5 F5	DB 245, 245, 245, 245, 245, 245, 245, 245, 245,
				 132, 168, 20, 132, 228, 245, 245, 245, 245, 24
				5, 245
       F5 F5 F5 84 A8 14	
       84 E4 F5 F5 F5 F5	
       F5 F5			
 7A44  F5 F5 F5 F5 F5 F5	DB 245, 245, 245, 245, 245, 245, 245, 245, 245,
				 245, 245, 245, 245, 245, 245, 245, 245, 245, 2
				45, 245
       F5 F5 F5 F5 F5 F5	
       F5 F5 F5 F5 F5 F5	
       F5 F5			
 7A58  F5 F5 F5 F5 F5 F5	DB 245, 245, 245, 245, 245, 245, 245, 245, 245,
				 245, 227, 246, 245, 245, 245, 245, 245, 245, 2
				45, 245
       F5 F5 F5 F5 E3 F6	
       F5 F5 F5 F5 F5 F5	
       F5 F5			
 7A6C  F5 F5 F5 F5 F5 F5	DB 245, 245, 245, 245, 245, 245, 245, 245, 245,
				 245, 245, 245, 245, 245, 245, 245, 245, 245, 2
				45, 245
       F5 F5 F5 F5 F5 F5	
       F5 F5 F5 F5 F5 F5	
       F5 F5			
 7A80  F5 F5 F5 F5 F5 F5	DB 245, 245, 245, 245, 245, 245, 245, 245, 245,
				 245, 245, 245, 245, 245, 245, 245, 245, 245, 2
				45, 245
       F5 F5 F5 F5 F5 F5	
       F5 F5 F5 F5 F5 F5	
       F5 F5			
 7A94  F5 F5 F5 F5 F5 F5	DB 245, 245, 245, 245, 245, 245, 245, 245, 245,
				 245, 245, 245, 245, 245, 245, 245, 245, 245, 2
				45, 245
       F5 F5 F5 F5 F5 F5	
       F5 F5 F5 F5 F5 F5	
       F5 F5			
				
				
 7AA8  F5 F5 F5 F5 F5 F5	GHOST2_1 DB 245, 245, 245, 245, 245, 245, 245, 
				245, 245, 245, 245, 245, 245, 245, 245, 245, 24
				5, 245, 245, 9
       F5 F5 F5 F5 F5 F5	
       F5 F5 F5 F5 F5 F5	
       F5 09			
 7ABC  09 09 F5 F5 F5 F5	DB 9, 9, 245, 245, 245, 245, 245, 245, 245, 245
				, 245, 245, 245, 245, 245, 245, 245, 245, 245, 
				245
       F5 F5 F5 F5 F5 F5	
       F5 F5 F5 F5 F5 F5	
       F5 F5			
 7AD0  F5 F5 F5 F5 F5 F5	DB 245, 245, 245, 245, 245, 245, 245, 245, 245,
				 245, 245, 245, 245, 245, 245, 245, 245, 9, 9, 
				57
       F5 F5 F5 F5 F5 F5	
Microsoft (R) Macro Assembler Version 5.10                  12/6/19 16:06:45
                                                             Page     1-175


       F5 F5 F5 F5 F5 09	
       09 39			
 7AE4  3A 09 09 09 09 09	DB 58, 9, 9, 9, 9, 9, 9, 245, 245, 245, 245, 24
				5, 245, 245, 245, 245, 245, 245, 245, 245
       09 F5 F5 F5 F5 F5	
       F5 F5 F5 F5 F5 F5	
       F5 F5			
 7AF8  F5 F5 F5 F5 F5 F5	DB 245, 245, 245, 245, 245, 245, 245, 245, 245,
				 245, 245, 245, 245, 245, 245, 9, 9, 58, 57, 57
       F5 F5 F5 F5 F5 F5	
       F5 F5 F5 09 09 3A	
       39 39			
 7B0C  09 39 39 39 39 09	DB 9, 57, 57, 57, 57, 9, 245, 245, 245, 245, 24
				5, 245, 245, 245, 245, 245, 245, 245, 245, 245
       F5 F5 F5 F5 F5 F5	
       F5 F5 F5 F5 F5 F5	
       F5 F5			
 7B20  F5 F5 F5 F5 F5 F5	DB 245, 245, 245, 245, 245, 245, 245, 245, 245,
				 245, 245, 245, 245, 245, 128, 58, 57, 57, 57, 
				9
       F5 F5 F5 F5 F5 F5	
       F5 F5 80 3A 39 39	
       39 09			
 7B34  3A 39 39 09 09 09	DB 58, 57, 57, 9, 9, 9, 245, 245, 245, 245, 245
				, 245, 245, 245, 245, 245, 245, 245, 245, 245
       F5 F5 F5 F5 F5 F5	
       F5 F5 F5 F5 F5 F5	
       F5 F5			
 7B48  F5 F5 F5 F5 F5 F5	DB 245, 245, 245, 245, 245, 245, 245, 245, 245,
				 245, 245, 245, 245, 128, 58, 57, 57, 57, 57, 5
				7
       F5 F5 F5 F5 F5 F5	
       F5 80 3A 39 39 39	
       39 39			
 7B5C  39 39 38 39 39 39	DB 57, 57, 56, 57, 57, 57, 9, 9, 245, 245, 245,
				 245, 245, 245, 245, 245, 245, 245, 245, 245
       09 09 F5 F5 F5 F5	
       F5 F5 F5 F5 F5 F5	
       F5 F5			
 7B70  F5 F5 F5 F5 F5 F5	DB 245, 245, 245, 245, 245, 245, 245, 245, 245,
				 245, 245, 245, 128, 128, 57, 57, 57, 57, 129, 
				128
       F5 F5 F5 F5 F5 F5	
       80 80 39 39 39 39	
       81 80			
 7B84  39 39 39 39 39 09	DB 57, 57, 57, 57, 57, 9, 245, 245, 245, 245, 2
				45, 245, 245, 245, 245, 245, 245, 245, 245, 245
       F5 F5 F5 F5 F5 F5	
       F5 F5 F5 F5 F5 F5	
       F5 F5			
 7B98  F5 F5 F5 F5 F5 F5	DB 245, 245, 245, 245, 245, 245, 245, 245, 245,
				 245, 245, 245, 128, 15, 128, 56, 56, 128, 15, 
				128
       F5 F5 F5 F5 F5 F5	
Microsoft (R) Macro Assembler Version 5.10                  12/6/19 16:06:45
                                                             Page     1-176


       80 0F 80 38 38 80	
       0F 80			
 7BAC  39 38 39 09 09 09	DB 57, 56, 57, 9, 9, 9, 9, 9, 9, 245, 245, 245,
				 245, 245, 245, 245, 245, 245, 245, 245
       09 09 09 F5 F5 F5	
       F5 F5 F5 F5 F5 F5	
       F5 F5			
 7BC0  F5 F5 F5 F5 F5 F5	DB 245, 245, 245, 245, 245, 245, 245, 245, 245,
				 245, 245, 128, 9, 15, 15, 128, 128, 15, 15, 12
				8
       F5 F5 F5 F5 F5 80	
       09 0F 0F 80 80 0F	
       0F 80			
 7BD4  39 09 09 39 39 39	DB 57, 9, 9, 57, 57, 57, 58, 9, 245, 245, 245, 
				245, 245, 245, 245, 245, 245, 245, 245, 245
       3A 09 F5 F5 F5 F5	
       F5 F5 F5 F5 F5 F5	
       F5 F5			
 7BE8  F5 F5 F5 F5 F5 F5	DB 245, 245, 245, 245, 245, 245, 245, 245, 245,
				 245, 128, 9, 9, 9, 9, 9, 9, 9, 9, 57
       F5 F5 F5 F5 80 09	
       09 09 09 09 09 09	
       09 39			
 7BFC  09 80 09 39 39 38	DB 9, 128, 9, 57, 57, 56, 9, 245, 245, 245, 245
				, 245, 245, 245, 245, 245, 245, 245, 245, 245
       09 F5 F5 F5 F5 F5	
       F5 F5 F5 F5 F5 F5	
       F5 F5			
 7C10  F5 F5 F5 F5 F5 F5	DB 245, 245, 245, 245, 245, 245, 245, 245, 245,
				 128, 9, 9, 57, 128, 56, 128, 57, 9, 57, 9
       F5 F5 F5 80 09 09	
       39 80 38 80 39 09	
       39 09			
 7C24  80 80 80 39 09 09	DB 128, 128, 128, 57, 9, 9, 245, 245, 245, 245,
				 245, 245, 245, 245, 245, 245, 245, 245, 245, 2
				45
       F5 F5 F5 F5 F5 F5	
       F5 F5 F5 F5 F5 F5	
       F5 F5			
 7C38  F5 F5 F5 F5 F5 F5	DB 245, 245, 245, 245, 245, 245, 245, 245, 245,
				 128, 57, 57, 57, 9, 128, 128, 128, 128, 128, 1
				28
       F5 F5 F5 80 39 39	
       39 09 80 80 80 80	
       80 80			
 7C4C  80 80 80 39 39 52	DB 128, 128, 128, 57, 57, 82, 9, 9, 9, 245, 245
				, 245, 245, 245, 245, 245, 245, 245, 245, 245
       09 09 09 F5 F5 F5	
       F5 F5 F5 F5 F5 F5	
       F5 F5			
 7C60  F5 F5 F5 F5 F5 F5	DB 245, 245, 245, 245, 245, 245, 245, 245, 128,
				 9, 57, 57, 57, 57, 9, 128, 128, 128, 128, 128
       F5 F5 80 09 39 39	
       39 39 09 80 80 80	
Microsoft (R) Macro Assembler Version 5.10                  12/6/19 16:06:45
                                                             Page     1-177


       80 80			
 7C74  80 80 09 39 39 39	DB 128, 128, 9, 57, 57, 57, 82, 82, 82, 9, 9, 9
				, 245, 245, 245, 245, 245, 245, 245, 245
       52 52 52 09 09 09	
       F5 F5 F5 F5 F5 F5	
       F5 F5			
 7C88  F5 F5 F5 F5 F5 F5	DB 245, 245, 245, 245, 245, 245, 245, 245, 128,
				 57, 57, 128, 56, 57, 57, 9, 128, 128, 128, 128
       F5 F5 80 39 39 80	
       38 39 39 09 80 80	
       80 80			
 7C9C  80 80 09 39 38 39	DB 128, 128, 9, 57, 56, 57, 56, 57, 57, 82, 82,
				 82, 9, 9, 245, 245, 245, 245, 245, 245
       38 39 39 52 52 52	
       09 09 F5 F5 F5 F5	
       F5 F5			
 7CB0  F5 F5 F5 F5 F5 F5	DB 245, 245, 245, 245, 245, 245, 245, 128, 9, 5
				7, 128, 130, 57, 57, 57, 56, 9, 128, 129, 128
       F5 80 09 39 80 82	
       39 39 39 38 09 80	
       81 80			
 7CC4  80 09 39 39 39 39	DB 128, 9, 57, 57, 57, 57, 57, 57, 57, 57, 57, 
				57, 82, 82, 9, 245, 245, 245, 245, 245
       39 39 39 39 39 39	
       52 52 09 F5 F5 F5	
       F5 F5			
 7CD8  F5 F5 F5 F5 F5 F5	DB 245, 245, 245, 245, 245, 245, 245, 128, 57, 
				57, 128, 9, 57, 57, 57, 57, 57, 57, 56, 9
       F5 80 39 39 80 09	
       39 39 39 39 39 39	
       38 09			
 7CEC  39 39 39 39 39 39	DB 57, 57, 57, 57, 57, 57, 57, 57, 57, 57, 57, 
				57, 57, 57, 82, 9, 245, 245, 245, 245
       39 39 39 39 39 39	
       39 39 52 09 F5 F5	
       F5 F5			
 7D00  F5 F5 F5 F5 F5 F5	DB 245, 245, 245, 245, 245, 245, 245, 128, 57, 
				128, 130, 57, 57, 57, 57, 57, 57, 57, 57, 57
       F5 80 39 80 82 39	
       39 39 39 39 39 39	
       39 39			
 7D14  39 39 39 39 39 39	DB 57, 57, 57, 57, 57, 57, 57, 57, 57, 9, 57, 5
				7, 57, 9, 57, 82, 9, 245, 245, 245
       39 39 39 09 39 39	
       39 09 39 52 09 F5	
       F5 F5			
 7D28  F5 F5 F5 F5 F5 F5	DB 245, 245, 245, 245, 245, 245, 128, 9, 57, 12
				8, 9, 9, 57, 57, 57, 57, 57, 57, 57, 57
       80 09 39 80 09 09	
       39 39 39 39 39 39	
       39 39			
 7D3C  39 39 39 39 39 39	DB 57, 57, 57, 57, 57, 57, 57, 57, 9, 9, 57, 57
				, 57, 9, 57, 82, 9, 245, 245, 245
       39 39 09 09 39 39	
Microsoft (R) Macro Assembler Version 5.10                  12/6/19 16:06:45
                                                             Page     1-178


       39 09 39 52 09 F5	
       F5 F5			
 7D50  F5 F5 F5 F5 F5 F5	DB 245, 245, 245, 245, 245, 245, 128, 57, 57, 1
				28, 57, 56, 57, 57, 57, 57, 57, 57, 57, 57
       80 39 39 80 39 38	
       39 39 39 39 39 39	
       39 39			
 7D64  39 39 39 39 39 39	DB 57, 57, 57, 57, 57, 57, 57, 57, 128, 57, 57,
				 9, 57, 57, 57, 82, 9, 245, 245, 245
       39 39 80 39 39 09	
       39 39 39 52 09 F5	
       F5 F5			
 7D78  F5 F5 F5 F5 F5 F5	DB 245, 245, 245, 245, 245, 245, 128, 57, 57, 1
				28, 57, 57, 57, 57, 57, 57, 57, 57, 57, 57
       80 39 39 80 39 39	
       39 39 39 39 39 39	
       39 39			
 7D8C  39 39 39 39 39 39	DB 57, 57, 57, 57, 57, 57, 57, 57, 128, 9, 57, 
				57, 57, 57, 57, 57, 82, 9, 245, 245
       39 39 80 09 39 39	
       39 39 39 39 52 09	
       F5 F5			
 7DA0  F5 F5 F5 F5 F5 F5	DB 245, 245, 245, 245, 245, 245, 128, 57, 57, 1
				28, 57, 57, 57, 57, 57, 57, 57, 57, 57, 57
       80 39 39 80 39 39	
       39 39 39 39 39 39	
       39 39			
 7DB4  39 39 39 39 39 39	DB 57, 57, 57, 57, 57, 57, 57, 57, 128, 9, 9, 9
				, 128, 9, 57, 57, 82, 9, 245, 245
       39 39 80 09 09 09	
       80 09 39 39 52 09	
       F5 F5			
 7DC8  F5 F5 F5 F5 F5 F5	DB 245, 245, 245, 245, 245, 245, 128, 57, 57, 1
				28, 57, 57, 57, 56, 57, 57, 57, 57, 57, 57
       80 39 39 80 39 39	
       39 38 39 39 39 39	
       39 39			
 7DDC  39 39 39 39 09 80	DB 57, 57, 57, 57, 9, 128, 128, 9, 9, 128, 9, 1
				28, 82, 82, 9, 57, 82, 9, 245, 245
       80 09 09 80 09 80	
       52 52 09 39 52 09	
       F5 F5			
 7DF0  F5 F5 F5 F5 F5 F5	DB 245, 245, 245, 245, 245, 245, 128, 57, 57, 1
				28, 57, 57, 57, 56, 57, 57, 57, 57, 57, 57
       80 39 39 80 39 39	
       39 38 39 39 39 39	
       39 39			
 7E04  39 39 39 09 80 52	DB 57, 57, 57, 9, 128, 82, 82, 128, 9, 9, 128, 
				82, 57, 57, 57, 57, 82, 9, 245, 245
       52 80 09 09 80 52	
       39 39 39 39 52 09	
       F5 F5			
 7E18  F5 F5 F5 F5 F5 F5	DB 245, 245, 245, 245, 245, 245, 128, 57, 57, 1
				28, 56, 57, 57, 57, 57, 57, 57, 57, 57, 57
Microsoft (R) Macro Assembler Version 5.10                  12/6/19 16:06:45
                                                             Page     1-179


       80 39 39 80 38 39	
       39 39 39 39 39 39	
       39 39			
 7E2C  39 39 80 80 80 80	DB 57, 57, 128, 128, 128, 128, 57, 82, 128, 128
				, 82, 57, 57, 57, 57, 57, 57, 82, 9, 245
       39 52 80 80 52 39	
       39 39 39 39 39 52	
       09 F5			
 7E40  F5 F5 F5 F5 F5 F5	DB 245, 245, 245, 245, 245, 245, 128, 9, 57, 12
				8, 9, 57, 57, 57, 57, 57, 57, 57, 57, 57
       80 09 39 80 09 39	
       39 39 39 39 39 39	
       39 39			
 7E54  39 80 52 52 52 09	DB 57, 128, 82, 82, 82, 9, 57, 57, 82, 82, 57, 
				57, 57, 57, 57, 57, 57, 82, 9, 245
       39 39 52 52 39 39	
       39 39 39 39 39 52	
       09 F5			
 7E68  F5 F5 F5 F5 F5 F5	DB 245, 245, 245, 245, 245, 245, 245, 128, 57, 
				9, 128, 57, 57, 57, 57, 57, 57, 57, 57, 57
       F5 80 39 09 80 39	
       39 39 39 39 39 39	
       39 39			
 7E7C  39 80 52 39 09 39	DB 57, 128, 82, 57, 9, 57, 57, 57, 57, 57, 57, 
				57, 57, 57, 57, 57, 57, 57, 9, 245
       39 39 39 39 39 39	
       39 39 39 39 39 39	
       09 F5			
 7E90  F4 F5 F5 F5 F5 F5	DB 244, 245, 245, 245, 245, 245, 245, 128, 57, 
				57, 128, 9, 57, 57, 57, 57, 57, 57, 57, 57
       F5 80 39 39 80 09	
       39 39 39 39 39 39	
       39 39			
 7EA4  39 09 80 09 09 39	DB 57, 9, 128, 9, 9, 57, 57, 57, 57, 57, 57, 57
				, 57, 57, 9, 9, 128, 128, 245, 245
       39 39 39 39 39 39	
       39 39 09 09 80 80	
       F5 F5			
 7EB8  F5 F5 F5 09 09 F5	DB 245, 245, 245, 9, 9, 245, 245, 9, 57, 57, 9,
				 128, 9, 57, 57, 57, 57, 57, 57, 57
       F5 09 39 39 09 80	
       09 39 39 39 39 39	
       39 39			
 7ECC  39 39 09 80 39 09	DB 57, 57, 9, 128, 57, 9, 57, 57, 57, 57, 57, 9
				, 9, 128, 128, 128, 245, 245, 245, 245
       39 39 39 39 39 09	
       09 80 80 80 F5 F5	
       F5 F5			
 7EE0  F5 F5 09 39 39 09	DB 245, 245, 9, 57, 57, 9, 9, 58, 57, 57, 57, 9
				, 128, 9, 57, 57, 57, 57, 57, 57
       09 3A 39 39 39 09	
       80 09 39 39 39 39	
       39 39			
 7EF4  39 39 09 80 09 09	DB 57, 57, 9, 128, 9, 9, 57, 9, 9, 128, 128, 12
Microsoft (R) Macro Assembler Version 5.10                  12/6/19 16:06:45
                                                             Page     1-180


				8, 128, 245, 245, 245, 245, 245, 245, 245
       39 09 09 80 80 80	
       80 F5 F5 F5 F5 F5	
       F5 F5			
 7F08  F5 09 3A 39 39 39	DB 245, 9, 58, 57, 57, 57, 57, 57, 57, 57, 57, 
				9, 128, 128, 129, 9, 57, 57, 57, 57
       39 39 39 39 39 09	
       80 80 81 09 39 39	
       39 39			
 7F1C  39 39 39 09 80 80	DB 57, 57, 57, 9, 128, 128, 128, 128, 128, 9, 9
				, 130, 129, 245, 245, 245, 245, 245, 245, 245
       80 80 80 09 09 82	
       81 F5 F5 F5 F5 F5	
       F5 F5			
 7F30  09 80 3A 39 09 09	DB 9, 128, 58, 57, 9, 9, 56, 57, 57, 57, 9, 9, 
				128, 245, 128, 128, 129, 9, 9, 56
       38 39 39 39 09 09	
       80 F5 80 80 81 09	
       09 38			
 7F44  39 39 39 39 39 39	DB 57, 57, 57, 57, 57, 57, 57, 56, 9, 130, 128,
				 128, 245, 245, 245, 245, 245, 245, 245, 245
       39 38 09 82 80 80	
       F5 F5 F5 F5 F5 F5	
       F5 F5			
 7F58  09 09 80 09 39 80	DB 9, 9, 128, 9, 57, 128, 57, 57, 9, 9, 128, 12
				8, 245, 245, 245, 245, 128, 128, 128, 131
       39 39 09 09 80 80	
       F5 F5 F5 F5 80 80	
       80 83			
 7F6C  09 39 39 39 39 39	DB 9, 57, 57, 57, 57, 57, 57, 57, 57, 128, 128,
				 245, 245, 245, 245, 245, 245, 245, 245, 245
       39 39 39 80 80 F5	
       F5 F5 F5 F5 F5 F5	
       F5 F5			
 7F80  80 39 80 80 80 09	DB 128, 57, 128, 128, 128, 9, 9, 9, 128, 128, 2
				45, 245, 245, 245, 245, 245, 245, 245, 245, 128
       09 09 80 80 F5 F5	
       F5 F5 F5 F5 F5 F5	
       F5 80			
 7F94  80 82 39 39 39 39	DB 128, 130, 57, 57, 57, 57, 57, 57, 56, 128, 2
				45, 244, 245, 245, 245, 245, 245, 245, 245, 245
       39 39 38 80 F5 F4	
       F5 F5 F5 F5 F5 F5	
       F5 F5			
 7FA8  F5 80 39 09 80 80	DB 245, 128, 57, 9, 128, 128, 9, 128, 245, 245,
				 245, 245, 245, 245, 245, 245, 245, 245, 245, 2
				45
       09 80 F5 F5 F5 F5	
       F5 F5 F5 F5 F5 F5	
       F5 F5			
 7FBC  F5 80 82 39 39 39	DB 245, 128, 130, 57, 57, 57, 57, 57, 56, 128, 
				245, 245, 245, 245, 245, 245, 245, 245, 245, 24
				5
       39 39 38 80 F5 F5	
Microsoft (R) Macro Assembler Version 5.10                  12/6/19 16:06:45
                                                             Page     1-181


       F5 F5 F5 F5 F5 F5	
       F5 F5			
 7FD0  F5 80 80 80 09 80	DB 245, 128, 128, 128, 9, 128, 128, 128, 245, 2
				45, 245, 245, 245, 245, 245, 245, 245, 245, 245
				, 245
       80 80 F5 F5 F5 F5	
       F5 F5 F5 F5 F5 F5	
       F5 F5			
 7FE4  F5 F5 80 83 39 39	DB 245, 245, 128, 131, 57, 57, 57, 57, 57, 128,
				 245, 245, 245, 245, 245, 245, 245, 245, 245, 2
				45
       39 39 39 80 F5 F5	
       F5 F5 F5 F5 F5 F5	
       F5 F5			
 7FF8  F5 F5 80 09 80 09	DB 245, 245, 128, 9, 128, 9, 9, 245, 245, 245, 
				245, 245, 245, 245, 245, 245, 245, 245, 245, 24
				5
       09 F5 F5 F5 F5 F5	
       F5 F5 F5 F5 F5 F5	
       F5 F5			
 800C  F5 F5 F5 80 82 39	DB 245, 245, 245, 128, 130, 57, 57, 57, 57, 129
				, 245, 245, 245, 245, 245, 245, 245, 245, 245, 
				245
       39 39 39 81 F5 F5	
       F5 F5 F5 F5 F5 F5	
       F5 F5			
 8020  F5 F5 F5 80 80 80	DB 245, 245, 245, 128, 128, 128, 245, 245, 245,
				 245, 245, 245, 245, 245, 245, 245, 245, 245, 2
				45, 245
       F5 F5 F5 F5 F5 F5	
       F5 F5 F5 F5 F5 F5	
       F5 F5			
 8034  F5 F5 F5 F5 80 81	DB 245, 245, 245, 245, 128, 129, 56, 57, 57, 56
				, 128, 245, 245, 245, 245, 245, 245, 245, 245, 
				245
       38 39 39 38 80 F5	
       F5 F5 F5 F5 F5 F5	
       F5 F5			
 8048  F5 F5 F5 F5 F5 F5	DB 245, 245, 245, 245, 245, 245, 245, 245, 245,
				 245, 245, 245, 245, 245, 245, 245, 245, 245, 2
				45, 245
       F5 F5 F5 F5 F5 F5	
       F5 F5 F5 F5 F5 F5	
       F5 F5			
 805C  F5 F5 F5 F5 F5 80	DB 245, 245, 245, 245, 245, 128, 153, 56, 57, 5
				7, 129, 129, 245, 245, 245, 245, 245, 245, 245,
				 245
       99 38 39 39 81 81	
       F5 F5 F5 F5 F5 F5	
       F5 F5			
 8070  F5 F5 F5 F5 F5 F5	DB 245, 245, 245, 245, 245, 245, 245, 245, 245,
				 245, 245, 245, 245, 245, 245, 245, 245, 245, 2
				45, 245
       F5 F5 F5 F5 F5 F5	
Microsoft (R) Macro Assembler Version 5.10                  12/6/19 16:06:45
                                                             Page     1-182


       F5 F5 F5 F5 F5 F5	
       F5 F5			
 8084  F5 F5 F5 F5 F5 F5	DB 245, 245, 245, 245, 245, 245, 128, 130, 56, 
				57, 56, 128, 245, 245, 245, 245, 245, 245, 245,
				 245
       80 82 38 39 38 80	
       F5 F5 F5 F5 F5 F5	
       F5 F5			
 8098  F5 F5 F5 F5 F5 F5	DB 245, 245, 245, 245, 245, 245, 245, 245, 245,
				 245, 245, 245, 245, 245, 245, 245, 245, 245, 2
				45, 245
       F5 F5 F5 F5 F5 F5	
       F5 F5 F5 F5 F5 F5	
       F5 F5			
 80AC  F5 F5 F5 F5 F5 F5	DB 245, 245, 245, 245, 245, 245, 245, 128, 129,
				 56, 57, 9, 129, 245, 245, 245, 245, 245, 245, 
				245
       F5 80 81 38 39 09	
       81 F5 F5 F5 F5 F5	
       F5 F5			
 80C0  F5 F5 F5 F5 F5 F5	DB 245, 245, 245, 245, 245, 245, 245, 245, 245,
				 245, 245, 245, 245, 245, 245, 245, 245, 245, 2
				45, 245
       F5 F5 F5 F5 F5 F5	
       F5 F5 F5 F5 F5 F5	
       F5 F5			
 80D4  F5 F5 F5 F5 F5 F5	DB 245, 245, 245, 245, 245, 245, 245, 245, 245,
				 128, 9, 57, 128, 155, 245, 245, 245, 245, 245,
				 245
       F5 F5 F5 80 09 39	
       80 9B F5 F5 F5 F5	
       F5 F5			
				
 80E8  F5 F5 F5 F5 18 07	GHOST2_2 DB 245, 245, 245, 245, 24, 7, 23, 245,
				 245, 245, 245, 245, 245, 245, 245, 245, 245, 2
				45, 245, 245
       17 F5 F5 F5 F5 F5	
       F5 F5 F5 F5 F5 F5	
       F5 F5			
 80FC  F5 F5 F5 F5 F5 F5	DB 245, 245, 245, 245, 245, 245, 245, 245, 245,
				 245, 245, 245, 245, 245, 245, 245, 245, 245, 2
				45, 245
       F5 F5 F5 F5 F5 F5	
       F5 F5 F5 F5 F5 F5	
       F5 F5			
 8110  F5 F5 F5 F4 0F 1E	DB 245, 245, 245, 244, 15, 30, 25, 245, 245, 24
				5, 245, 245, 245, 245, 245, 245, 245, 245, 245,
				 245
       19 F5 F5 F5 F5 F5	
       F5 F5 F5 F5 F5 F5	
       F5 F5			
 8124  F5 F5 F5 F5 F5 F5	DB 245, 245, 245, 245, 245, 245, 245, 245, 245,
				 245, 245, 245, 245, 245, 245, 245, 245, 245, 2
				45, 245
Microsoft (R) Macro Assembler Version 5.10                  12/6/19 16:06:45
                                                             Page     1-183


       F5 F5 F5 F5 F5 F5	
       F5 F5 F5 F5 F5 F5	
       F5 F5			
 8138  F5 F5 F5 9A 0F 1E	DB 245, 245, 245, 154, 15, 30, 28, 245, 245, 24
				5, 245, 245, 245, 245, 245, 245, 245, 245, 245,
				 245
       1C F5 F5 F5 F5 F5	
       F5 F5 F5 F5 F5 F5	
       F5 F5			
 814C  F5 F5 F5 F5 F5 F5	DB 245, 245, 245, 245, 245, 245, 245, 245, 245,
				 245, 245, 245, 245, 245, 245, 245, 245, 245, 2
				45, 245
       F5 F5 F5 F5 F5 F5	
       F5 F5 F5 F5 F5 F5	
       F5 F5			
 8160  F5 F5 F5 07 0F 0F	DB 245, 245, 245, 7, 15, 15, 15, 20, 245, 245, 
				245, 245, 245, 245, 245, 245, 245, 245, 245, 24
				5
       0F 14 F5 F5 F5 F5	
       F5 F5 F5 F5 F5 F5	
       F5 F5			
 8174  08 92 17 F4 F5 F5	DB 8, 146, 23, 244, 245, 245, 245, 245, 245, 24
				5, 245, 245, 245, 245, 22, 8, 245, 245, 245, 24
				5
       F5 F5 F5 F5 F5 F5	
       F5 F5 16 08 F5 F5	
       F5 F5			
 8188  F5 F5 F4 0F 0F 0F	DB 245, 245, 244, 15, 15, 15, 15, 25, 245, 245,
				 245, 245, 245, 245, 245, 245, 245, 245, 244, 2
				3
       0F 19 F5 F5 F5 F5	
       F5 F5 F5 F5 F5 F5	
       F4 17			
 819C  31 0A 31 9A F5 F5	DB 49, 10, 49, 154, 245, 245, 245, 245, 245, 24
				5, 245, 245, 245, 175, 28, 27, 244, 245, 245, 2
				45
       F5 F5 F5 F5 F5 F5	
       F5 AF 1C 1B F4 F5	
       F5 F5			
 81B0  F5 F5 17 0F 0F 0F	DB 245, 245, 23, 15, 15, 15, 15, 30, 244, 245, 
				245, 245, 245, 245, 245, 245, 244, 23, 25, 49
       0F 1E F4 F5 F5 F5	
       F5 F5 F5 F5 F4 17	
       19 31			
 81C4  0A 9B 02 AA F5 F5	DB 10, 155, 2, 170, 245, 245, 245, 245, 245, 24
				5, 245, 245, 245, 8, 30, 15, 23, 245, 245, 245
       F5 F5 F5 F5 F5 F5	
       F5 08 1E 0F 17 F5	
       F5 F5			
 81D8  F5 F5 1C 0F 0F 0F	DB 245, 245, 28, 15, 15, 15, 15, 15, 8, 245, 24
				5, 245, 245, 245, 244, 23, 7, 49, 2, 72
       0F 0F 08 F5 F5 F5	
       F5 F5 F4 17 07 31	
       02 48			
Microsoft (R) Macro Assembler Version 5.10                  12/6/19 16:06:45
                                                             Page     1-184


 81EC  9B B0 0A AC F5 F5	DB 155, 176, 10, 172, 245, 245, 245, 245, 245, 
				245, 245, 245, 245, 245, 7, 15, 30, 8, 245, 245
       F5 F5 F5 F5 F5 F5	
       F5 F5 07 0F 1E 08	
       F5 F5			
 8200  F5 F5 0F 0F 0F 0F	DB 245, 245, 15, 15, 15, 15, 15, 15, 23, 245, 2
				45, 245, 245, 20, 58, 10, 2, 49, 27, 5
       0F 0F 17 F5 F5 F5	
       F5 14 3A 0A 02 31	
       1B 05			
 8214  B0 7A 0A AA F5 F5	DB 176, 122, 10, 170, 245, 245, 245, 245, 245, 
				245, 245, 245, 245, 244, 7, 15, 15, 27, 245, 24
				5
       F5 F5 F5 F5 F5 F5	
       F5 F4 07 0F 0F 1B	
       F5 F5			
 8228  F4 1B 0F 0F 0F 0F	DB 244, 27, 15, 15, 15, 15, 15, 15, 25, 245, 24
				5, 245, 174, 10, 49, 2, 72, 27, 105, 176
       0F 0F 19 F5 F5 F5	
       AE 0A 31 02 48 1B	
       69 B0			
 823C  B0 91 91 F4 F5 F5	DB 176, 145, 145, 244, 245, 245, 245, 245, 245,
				 245, 245, 244, 20, 22, 15, 15, 15, 15, 152, 24
				5
       F5 F5 F5 F5 F5 F4	
       14 16 0F 0F 0F 0F	
       98 F5			
 8250  F5 1C 0F 0F 0F 0F	DB 245, 28, 15, 15, 15, 15, 15, 15, 15, 23, 154
				, 24, 10, 49, 10, 96, 156, 104, 176, 176
       0F 0F 0F 17 9A 18	
       0A 31 0A 60 9C 68	
       B0 B0			
 8264  C5 31 92 F5 F4 F5	DB 197, 49, 146, 245, 244, 245, 245, 245, 244, 
				23, 145, 10, 10, 7, 15, 15, 15, 15, 24, 245
       F5 F5 F4 17 91 0A	
       0A 07 0F 0F 0F 0F	
       18 F5			
 8278  17 0F 0F 0F 0F 0F	DB 23, 15, 15, 15, 15, 15, 15, 15, 15, 15, 28, 
				10, 73, 25, 82, 107, 176, 176, 176, 176
       0F 0F 0F 0F 1C 0A	
       49 19 52 6B B0 B0	
       B0 B0			
 828C  C4 0A F5 17 AC 08	DB 196, 10, 245, 23, 172, 8, 245, 245, 169, 49,
				 10, 10, 10, 97, 15, 15, 15, 15, 28, 245
       F5 F5 A9 31 0A 0A	
       0A 61 0F 0F 0F 0F	
       1C F5			
 82A0  18 0F 0F 1E 3A 1C	DB 24, 15, 15, 30, 58, 28, 15, 15, 15, 7, 146, 
				71, 131, 107, 176, 176, 176, 176, 176, 176
       0F 0F 0F 07 92 47	
       83 6B B0 B0 B0 B0	
       B0 B0			
 82B4  7A 91 F5 02 0A 92	DB 122, 145, 245, 2, 10, 146, 23, 145, 49, 25, 
				130, 128, 222, 15, 15, 15, 15, 15, 15, 174
Microsoft (R) Macro Assembler Version 5.10                  12/6/19 16:06:45
                                                             Page     1-185


       17 91 31 19 82 80	
       DE 0F 0F 0F 0F 0F	
       0F AE			
 82C8  18 0F 19 6A 6A 6A	DB 24, 15, 25, 106, 106, 106, 25, 25, 129, 177,
				 156, 131, 176, 176, 176, 176, 176, 176, 176, 1
				76
       19 19 81 B1 9C 83	
       B0 B0 B0 B0 B0 B0	
       B0 B0			
 82DC  0A 90 90 48 17 0A	DB 10, 144, 144, 72, 23, 10, 10, 10, 27, 106, 1
				51, 156, 106, 130, 15, 15, 15, 15, 15, 27
       0A 0A 1B 6A 97 9C	
       6A 82 0F 0F 0F 0F	
       0F 1B			
 82F0  16 1C 6A 6A 83 6A	DB 22, 28, 106, 106, 131, 106, 106, 105, 106, 2
				8, 59, 176, 176, 176, 176, 176, 176, 176, 176, 
				176
       6A 69 6A 1C 3B B0	
       B0 B0 B0 B0 B0 B0	
       B0 B0			
 8304  49 0A 0A 9C B0 31	DB 73, 10, 10, 156, 176, 49, 10, 27, 107, 146, 
				144, 30, 129, 106, 29, 15, 15, 15, 15, 30
       0A 1B 6B 92 90 1E	
       81 6A 1D 0F 0F 0F	
       0F 1E			
 8318  F4 1C 84 23 0F 1E	DB 244, 28, 132, 35, 15, 30, 131, 129, 15, 30, 
				201, 176, 176, 176, 176, 176, 176, 176, 176, 23
       83 81 0F 1E C9 B0	
       B0 B0 B0 B0 B0 B0	
       B0 17			
 832C  82 17 19 B0 DD 60	DB 130, 23, 25, 176, 221, 96, 24, 176, 145, 144
				, 23, 15, 27, 106, 106, 30, 15, 15, 15, 29
       18 B0 91 90 17 0F	
       1B 6A 6A 1E 0F 0F	
       0F 1D			
 8340  F5 18 0F 0F 0F 0F	DB 245, 24, 15, 15, 15, 15, 27, 107, 28, 7, 176
				, 176, 176, 176, 176, 176, 176, 176, 130, 156
       1B 6B 1C 07 B0 B0	
       B0 B0 B0 B0 B0 B0	
       82 9C			
 8354  6A 9C B0 B0 69 82	DB 106, 156, 176, 176, 105, 130, 176, 49, 49, 8
				, 28, 15, 15, 130, 106, 27, 15, 15, 15, 29
       B0 31 31 08 1C 0F	
       0F 82 6A 1B 0F 0F	
       0F 1D			
 8368  F5 F5 17 1D 1E 1C	DB 245, 245, 23, 29, 30, 28, 15, 57, 7, 127, 17
				6, 176, 176, 176, 176, 176, 176, 176, 105, 105
       0F 39 07 7F B0 B0	
       B0 B0 B0 B0 B0 B0	
       69 69			
 837C  84 B0 B0 B0 B0 B0	DB 132, 176, 176, 176, 176, 176, 198, 49, 24, 2
				0, 30, 15, 15, 82, 106, 106, 24, 82, 15, 30
       C6 31 18 14 1E 0F	
       0F 52 6A 6A 18 52	
Microsoft (R) Macro Assembler Version 5.10                  12/6/19 16:06:45
                                                             Page     1-186


       0F 1E			
 8390  F5 F5 F5 F5 AE 19	DB 245, 245, 245, 245, 174, 25, 81, 97, 28, 179
				, 179, 176, 176, 178, 180, 176, 176, 176, 176, 
				176
       51 61 1C B3 B3 B0	
       B0 B2 B4 B0 B0 B0	
       B0 B0			
 83A4  B0 B0 B0 B0 B0 B0	DB 176, 176, 176, 176, 176, 176, 176, 122, 146,
				 24, 15, 30, 130, 106, 106, 106, 106, 81, 7, 29
       B0 7A 92 18 0F 1E	
       82 6A 6A 6A 6A 51	
       07 1D			
 83B8  F5 F5 F5 F5 F5 F5	DB 245, 245, 245, 245, 245, 245, 155, 10, 73, 1
				09, 40, 176, 178, 40, 111, 104, 176, 176, 176, 
				176
       9B 0A 49 6D 28 B0	
       B2 28 6F 68 B0 B0	
       B0 B0			
 83CC  B1 B1 B0 B0 B0 B0	DB 177, 177, 176, 176, 176, 176, 176, 122, 144,
				 27, 15, 25, 106, 27, 25, 106, 106, 152, 30, 7
       B0 7A 90 1B 0F 19	
       6A 1B 19 6A 6A 98	
       1E 07			
 83E0  F5 F5 F5 F5 F5 F5	DB 245, 245, 245, 245, 245, 245, 245, 24, 10, 2
				5, 111, 177, 181, 4, 105, 176, 176, 176, 176, 1
				76
       F5 18 0A 19 6F B1	
       B5 04 69 B0 B0 B0	
       B0 B0			
 83F4  83 9C B0 B0 B0 B0	DB 131, 156, 176, 176, 176, 176, 176, 176, 144,
				 25, 15, 15, 15, 15, 15, 129, 106, 130, 15, 24
       B0 B0 90 19 0F 0F	
       0F 0F 0F 81 6A 82	
       0F 18			
 8408  F5 F5 F5 F5 F5 F5	DB 245, 245, 245, 245, 245, 245, 245, 154, 72, 
				7, 176, 176, 199, 56, 24, 176, 131, 105, 195, 2
       F5 9A 48 07 B0 B0	
       C7 38 18 B0 83 69	
       C3 02			
 841C  07 18 B0 B0 B0 83	DB 7, 24, 176, 176, 176, 131, 106, 176, 144, 14
				6, 27, 30, 15, 15, 15, 30, 24, 30, 30, 20
       6A B0 90 92 1B 1E	
       0F 0F 0F 1E 18 1E	
       1E 14			
 8430  F5 F5 F5 F5 F5 F5	DB 245, 245, 245, 245, 245, 245, 245, 245, 169,
				 10, 156, 176, 24, 84, 150, 105, 10, 49, 49, 49
       F5 F5 A9 0A 9C B0	
       18 54 96 69 0A 31	
       31 31			
 8444  48 82 B0 81 81 81	DB 72, 130, 176, 129, 129, 129, 106, 176, 144, 
				146, 245, 245, 152, 7, 15, 15, 15, 30, 22, 245
       6A B0 90 92 F5 F5	
       98 07 0F 0F 0F 1E	
       16 F5			
Microsoft (R) Macro Assembler Version 5.10                  12/6/19 16:06:45
                                                             Page     1-187


 8458  F5 F5 F5 F5 F5 F5	DB 245, 245, 245, 245, 245, 245, 245, 245, 245,
				 145, 72, 131, 106, 107, 176, 122, 49, 23, 24, 
				25
       F5 F5 F5 91 48 83	
       6A 6B B0 7A 31 17	
       18 19			
 846C  0A 07 18 81 81 6A	DB 10, 7, 24, 129, 129, 106, 176, 176, 145, 146
				, 245, 245, 245, 244, 23, 24, 23, 20, 245, 245
       B0 B0 91 92 F5 F5	
       F5 F4 17 18 17 14	
       F5 F5			
 8480  F5 F5 F5 F5 F5 F5	DB 245, 245, 245, 245, 245, 245, 245, 245, 245,
				 245, 145, 24, 25, 127, 122, 47, 8, 245, 245, 2
				0
       F5 F5 F5 F5 91 18	
       19 7F 7A 2F 08 F5	
       F5 14			
 8494  91 0A 1B 6A B1 69	DB 145, 10, 27, 106, 177, 105, 176, 176, 145, 1
				46, 245, 245, 245, 245, 245, 245, 245, 245, 245
				, 245
       B0 B0 91 92 F5 F5	
       F5 F5 F5 F5 F5 F5	
       F5 F5			
 84A8  F5 F5 F5 F5 F5 F5	DB 245, 245, 245, 245, 245, 245, 245, 245, 245,
				 245, 245, 243, 144, 144, 2, 144, 144, 146, 172
				, 170
       F5 F5 F5 F5 F5 F3	
       90 90 02 90 90 92	
       AC AA			
 84BC  17 31 0A 18 B0 B0	DB 23, 49, 10, 24, 176, 176, 176, 198, 49, 146,
				 245, 245, 245, 245, 245, 245, 245, 245, 245, 2
				45
       B0 C6 31 92 F5 F5	
       F5 F5 F5 F5 F5 F5	
       F5 F5			
 84D0  F5 F5 F5 F5 F5 F5	DB 245, 245, 245, 245, 245, 245, 245, 245, 245,
				 244, 146, 10, 72, 200, 156, 24, 25, 10, 2, 10
       F5 F5 F5 F4 92 0A	
       48 C8 9C 18 19 0A	
       02 0A			
 84E4  2F 0A 48 80 B0 B0	DB 47, 10, 72, 128, 176, 176, 176, 122, 10, 20,
				 245, 245, 245, 245, 245, 245, 245, 245, 245, 2
				45
       B0 7A 0A 14 F5 F5	
       F5 F5 F5 F5 F5 F5	
       F5 F5			
 84F8  F5 F5 F5 F5 F5 F5	DB 245, 245, 245, 245, 245, 245, 245, 245, 173,
				 49, 49, 24, 130, 176, 176, 176, 106, 130, 129,
				 150
       F5 F5 AD 31 31 18	
       82 B0 B0 B0 6A 82	
       81 96			
 850C  48 19 6A B0 B0 B0	DB 72, 25, 106, 176, 176, 176, 176, 121, 145, 2
				45, 245, 245, 245, 245, 245, 245, 245, 245, 245
Microsoft (R) Macro Assembler Version 5.10                  12/6/19 16:06:45
                                                             Page     1-188


				, 245
       B0 79 91 F5 F5 F5	
       F5 F5 F5 F5 F5 F5	
       F5 F5			
 8520  F5 F5 F5 F5 F5 F5	DB 245, 245, 245, 245, 245, 245, 245, 20, 49, 2
				, 145, 176, 176, 176, 176, 176, 176, 176, 176, 
				176
       F5 14 31 02 91 B0	
       B0 B0 B0 B0 B0 B0	
       B0 B0			
 8534  69 B0 B0 B0 B0 B0	DB 105, 176, 176, 176, 176, 176, 199, 2, 245, 2
				45, 245, 245, 245, 245, 245, 245, 245, 245, 245
				, 245
       C7 02 F5 F5 F5 F5	
       F5 F5 F5 F5 F5 F5	
       F5 F5			
 8548  F5 F5 F5 F5 F5 F5	DB 245, 245, 245, 245, 245, 245, 245, 145, 49, 
				144, 199, 176, 176, 176, 176, 176, 176, 176, 17
				6, 176
       F5 91 31 90 C7 B0	
       B0 B0 B0 B0 B0 B0	
       B0 B0			
 855C  B0 B0 B0 B0 B0 B0	DB 176, 176, 176, 176, 176, 176, 2, 145, 245, 2
				45, 245, 245, 245, 245, 245, 245, 245, 245, 245
				, 245
       02 91 F5 F5 F5 F5	
       F5 F5 F5 F5 F5 F5	
       F5 F5			
 8570  F5 F5 F5 F5 F5 F5	DB 245, 245, 245, 245, 245, 245, 20, 2, 2, 198,
				 176, 176, 176, 197, 196, 176, 176, 176, 176, 1
				76
       14 02 02 C6 B0 B0	
       B0 C5 C4 B0 B0 B0	
       B0 B0			
 8584  B0 B0 B0 B0 B0 C7	DB 176, 176, 176, 176, 176, 199, 144, 245, 245,
				 245, 245, 245, 245, 245, 245, 245, 245, 245, 2
				45, 245
       90 F5 F5 F5 F5 F5	
       F5 F5 F5 F5 F5 F5	
       F5 F5			
 8598  F5 F5 F5 F5 F5 F5	DB 245, 245, 245, 245, 245, 245, 170, 10, 130, 
				176, 176, 199, 2, 49, 49, 2, 122, 176, 176, 176
       AA 0A 82 B0 B0 C7	
       02 31 31 02 7A B0	
       B0 B0			
 85AC  B0 B0 B0 B0 7A 02	DB 176, 176, 176, 176, 122, 2, 145, 245, 245, 2
				45, 245, 245, 245, 245, 245, 245, 245, 245, 245
				, 245
       91 F5 F5 F5 F5 F5	
       F5 F5 F5 F5 F5 F5	
       F5 F5			
 85C0  F5 F5 F5 F5 F5 F5	DB 245, 245, 245, 245, 245, 245, 170, 72, 130, 
				176, 176, 122, 144, 20, 244, 146, 144, 2, 145, 
				2
Microsoft (R) Macro Assembler Version 5.10                  12/6/19 16:06:45
                                                             Page     1-189


       AA 48 82 B0 B0 7A	
       90 14 F4 92 90 02	
       91 02			
 85D4  C6 C6 02 90 31 0A	DB 198, 198, 2, 144, 49, 10, 245, 245, 245, 245
				, 245, 245, 245, 245, 245, 245, 245, 245, 245, 
				245
       F5 F5 F5 F5 F5 F5	
       F5 F5 F5 F5 F5 F5	
       F5 F5			
 85E8  F5 F5 F5 F5 F5 F5	DB 245, 245, 245, 245, 245, 245, 169, 72, 130, 
				176, 176, 49, 170, 244, 171, 8, 245, 20, 146, 1
				44
       A9 48 82 B0 B0 31	
       AA F4 AB 08 F5 14	
       92 90			
 85FC  31 31 0A 0A F5 F5	DB 49, 49, 10, 10, 245, 245, 245, 245, 245, 245
				, 245, 245, 245, 245, 245, 245, 245, 245, 245, 
				245
       F5 F5 F5 F5 F5 F5	
       F5 F5 F5 F5 F5 F5	
       F5 F5			
 8610  F5 F5 F5 F5 F5 F5	DB 245, 245, 245, 245, 245, 245, 146, 72, 131, 
				176, 199, 10, 170, 169, 2, 122, 10, 244, 245, 2
				45
       92 48 83 B0 C7 0A	
       AA A9 02 7A 0A F4	
       F5 F5			
 8624  F5 F5 F5 F5 F5 F5	DB 245, 245, 245, 245, 245, 245, 245, 245, 245,
				 245, 245, 245, 245, 245, 245, 245, 245, 245, 2
				45, 245
       F5 F5 F5 F5 F5 F5	
       F5 F5 F5 F5 F5 F5	
       F5 F5			
 8638  F5 F5 F5 F5 F5 F5	DB 245, 245, 245, 245, 245, 245, 20, 49, 25, 10
				5, 176, 122, 49, 10, 145, 220, 197, 144, 245, 2
				45
       14 31 19 69 B0 7A	
       31 0A 91 DC C5 90	
       F5 F5			
 864C  F5 F5 F5 F5 F5 F5	DB 245, 245, 245, 245, 245, 245, 245, 245, 245,
				 245, 245, 245, 245, 245, 245, 245, 245, 245, 2
				45, 245
       F5 F5 F5 F5 F5 F5	
       F5 F5 F5 F5 F5 F5	
       F5 F5			
 8660  F5 F5 F5 F5 F5 F5	DB 245, 245, 245, 245, 245, 245, 245, 244, 10, 
				7, 176, 176, 122, 145, 10, 145, 176, 145, 245, 
				245
       F5 F4 0A 07 B0 B0	
       7A 91 0A 91 B0 91	
       F5 F5			
 8674  F5 F5 F5 F5 F5 F5	DB 245, 245, 245, 245, 245, 245, 245, 245, 245,
				 245, 245, 245, 245, 245, 245, 245, 245, 245, 2
				45, 245
Microsoft (R) Macro Assembler Version 5.10                  12/6/19 16:06:45
                                                             Page     1-190


       F5 F5 F5 F5 F5 F5	
       F5 F5 F5 F5 F5 F5	
       F5 F5			
 8688  F5 F5 F5 F5 F5 F5	DB 245, 245, 245, 245, 245, 245, 245, 245, 145,
				 10, 25, 105, 176, 176, 220, 176, 176, 2, 245, 
				245
       F5 F5 91 0A 19 69	
       B0 B0 DC B0 B0 02	
       F5 F5			
 869C  F5 F5 F5 F5 F5 F5	DB 245, 245, 245, 245, 245, 245, 245, 245, 245,
				 245, 245, 245, 245, 245, 245, 245, 245, 245, 2
				45, 245
       F5 F5 F5 F5 F5 F5	
       F5 F5 F5 F5 F5 F5	
       F5 F5			
 86B0  F5 F5 F5 F5 F5 F5	DB 245, 245, 245, 245, 245, 245, 245, 245, 245,
				 145, 2, 72, 24, 129, 105, 196, 2, 144, 245, 24
				5
       F5 F5 F5 91 02 48	
       18 81 69 C4 02 90	
       F5 F5			
 86C4  F5 F5 F5 F5 F5 F5	DB 245, 245, 245, 245, 245, 245, 245, 245, 245,
				 245, 245, 245, 245, 245, 245, 245, 245, 245, 2
				45, 245
       F5 F5 F5 F5 F5 F5	
       F5 F5 F5 F5 F5 F5	
       F5 F5			
 86D8  F5 F5 F5 F5 F5 F5	DB 245, 245, 245, 245, 245, 245, 245, 245, 245,
				 245, 245, 244, 144, 10, 2, 2, 146, 245, 245, 2
				45
       F5 F5 F5 F5 F5 F4	
       90 0A 02 02 92 F5	
       F5 F5			
 86EC  F5 F5 F5 F5 F5 F5	DB 245, 245, 245, 245, 245, 245, 245, 245, 245,
				 245, 245, 245, 245, 245, 245, 245, 245, 245, 2
				45, 245
       F5 F5 F5 F5 F5 F5	
       F5 F5 F5 F5 F5 F5	
       F5 F5			
 8700  F5 F5 F5 F5 F5 F5	DB 245, 245, 245, 245, 245, 245, 245, 245, 245,
				 245, 245, 245, 245, 245, 245, 245, 245, 245, 2
				45, 245
       F5 F5 F5 F5 F5 F5	
       F5 F5 F5 F5 F5 F5	
       F5 F5			
 8714  F5 F5 F5 F5 F5 F5	DB 245, 245, 245, 245, 245, 245, 245, 245, 245,
				 245, 245, 245, 245, 245, 245, 245, 245, 245, 2
				45, 245
       F5 F5 F5 F5 F5 F5	
       F5 F5 F5 F5 F5 F5	
       F5 F5			
				
 8728  F5 F5 F5 F5 F5 F5	GHOST3_0 DB 245, 245, 245, 245, 245, 245, 15, 1
				5, 15, 15, 15, 15, 15, 15, 15, 15, 15, 15, 15, 
Microsoft (R) Macro Assembler Version 5.10                  12/6/19 16:06:45
                                                             Page     1-191


				15
       0F 0F 0F 0F 0F 0F	
       0F 0F 0F 0F 0F 0F	
       0F 0F			
 873C  0F 0F 0F F5 F5 F5	DB 15, 15, 15, 245, 245, 245, 245, 245, 245, 24
				5, 245, 245, 245, 245, 245, 245, 245, 245, 245,
				 245
       F5 F5 F5 F5 F5 F5	
       F5 F5 F5 F5 F5 F5	
       F5 F5			
 8750  F5 F5 F5 F5 0F 0F	DB 245, 245, 245, 245, 15, 15, 15, 15, 15, 15, 
				15, 15, 15, 15, 15, 15, 15, 15, 15, 15
       0F 0F 0F 0F 0F 0F	
       0F 0F 0F 0F 0F 0F	
       0F 0F			
 8764  0F 0F 0F 0F 0F F5	DB 15, 15, 15, 15, 15, 245, 245, 245, 245, 245,
				 245, 245, 245, 245, 245, 245, 245, 245, 245, 2
				45
       F5 F5 F5 F5 F5 F5	
       F5 F5 F5 F5 F5 F5	
       F5 F5			
 8778  F5 F5 F5 0F 0F 0F	DB 245, 245, 245, 15, 15, 15, 15, 15, 15, 15, 1
				5, 15, 15, 15, 15, 15, 15, 15, 15, 15
       0F 0F 0F 0F 0F 0F	
       0F 0F 0F 0F 0F 0F	
       0F 0F			
 878C  0F 0F 0F 0F 0F 0F	DB 15, 15, 15, 15, 15, 15, 15, 15, 245, 245, 24
				5, 245, 245, 245, 245, 245, 245, 245, 245, 245
       0F 0F F5 F5 F5 F5	
       F5 F5 F5 F5 F5 F5	
       F5 F5			
 87A0  F5 F5 0F 0F 0F 0F	DB 245, 245, 15, 15, 15, 15, 15, 15, 15, 15, 15
				, 15, 15, 15, 102, 102, 15, 15, 15, 15
       0F 0F 0F 0F 0F 0F	
       0F 0F 66 66 0F 0F	
       0F 0F			
 87B4  0F 0F 0F 0F 0F 0F	DB 15, 15, 15, 15, 15, 15, 15, 15, 15, 245, 245
				, 245, 245, 245, 245, 245, 245, 245, 245, 245
       0F 0F 0F F5 F5 F5	
       F5 F5 F5 F5 F5 F5	
       F5 F5			
 87C8  F5 0F 0F 0F 66 66	DB 245, 15, 15, 15, 102, 102, 102, 15, 15, 15, 
				15, 15, 102, 102, 15, 15, 15, 15, 15, 15
       66 0F 0F 0F 0F 0F	
       66 66 0F 0F 0F 0F	
       0F 0F			
 87DC  0F 0F 0F 0F 0F 0F	DB 15, 15, 15, 15, 15, 15, 102, 102, 102, 15, 2
				45, 245, 245, 245, 245, 245, 245, 245, 245, 245
       66 66 66 0F F5 F5	
       F5 F5 F5 F5 F5 F5	
       F5 F5			
 87F0  F5 0F 0F 0F 66 66	DB 245, 15, 15, 15, 102, 102, 15, 15, 15, 15, 1
				5, 102, 15, 15, 15, 15, 15, 15, 15, 15
       0F 0F 0F 0F 0F 66	
Microsoft (R) Macro Assembler Version 5.10                  12/6/19 16:06:45
                                                             Page     1-192


       0F 0F 0F 0F 0F 0F	
       0F 0F			
 8804  0F 0F 0F 0F 0F 0F	DB 15, 15, 15, 15, 15, 15, 15, 15, 15, 4, 4, 24
				5, 245, 245, 245, 245, 245, 245, 245, 245
       0F 0F 0F 04 04 F5	
       F5 F5 F5 F5 F5 F5	
       F5 F5			
 8818  0F 0F 0F 66 F5 66	DB 15, 15, 15, 102, 245, 102, 15, 15, 15, 15, 1
				5, 15, 15, 15, 4, 4, 4, 4, 4, 15
       0F 0F 0F 0F 0F 0F	
       0F 0F 04 04 04 04	
       04 0F			
 882C  0F 0F 0F 0F 0F 0F	DB 15, 15, 15, 15, 15, 15, 15, 15, 15, 4, 40, 2
				45, 245, 245, 245, 245, 245, 245, 245, 245
       0F 0F 0F 04 28 F5	
       F5 F5 F5 F5 F5 F5	
       F5 F5			
 8840  0F 0F F5 F5 0F 0F	DB 15, 15, 245, 245, 15, 15, 15, 15, 15, 15, 15
				, 15, 4, 40, 4, 4, 4, 4, 4, 40
       0F 0F 0F 0F 0F 0F	
       04 28 04 04 04 04	
       04 28			
 8854  04 0F 0F 0F 0F 0F	DB 4, 15, 15, 15, 15, 15, 15, 15, 15, 4, 40, 40
				, 4, 245, 245, 245, 245, 245, 245, 245
       0F 0F 0F 04 28 28	
       04 F5 F5 F5 F5 F5	
       F5 F5			
 8868  F5 F5 F5 F5 0F 0F	DB 245, 245, 245, 245, 15, 15, 15, 15, 15, 15, 
				15, 4, 40, 4, 40, 40, 40, 40, 40, 4
       0F 0F 0F 0F 0F 04	
       28 04 28 28 28 28	
       28 04			
 887C  28 0F 0F 0F 0F 0F	DB 40, 15, 15, 15, 15, 15, 15, 15, 15, 4, 40, 4
				0, 4, 4, 245, 245, 245, 245, 245, 245
       0F 0F 0F 04 28 28	
       04 04 F5 F5 F5 F5	
       F5 F5			
 8890  F5 F5 F5 F5 0F 0F	DB 245, 245, 245, 245, 15, 15, 15, 15, 15, 15, 
				15, 40, 4, 40, 4, 4, 4, 4, 40, 4
       0F 0F 0F 0F 0F 28	
       04 28 04 04 04 04	
       28 04			
 88A4  28 0F 0F 0F 0F 0F	DB 40, 15, 15, 15, 15, 15, 15, 15, 15, 4, 40, 4
				0, 4, 4, 245, 245, 245, 245, 245, 245
       0F 0F 0F 04 28 28	
       04 04 F5 F5 F5 F5	
       F5 F5			
 88B8  F5 F5 F5 F5 0F 0F	DB 245, 245, 245, 245, 15, 15, 15, 15, 15, 15, 
				15, 40, 4, 40, 4, 40, 40, 40, 4, 4
       0F 0F 0F 0F 0F 28	
       04 28 04 28 28 28	
       04 04			
 88CC  28 0F 0F 0F 0F 0F	DB 40, 15, 15, 15, 15, 15, 15, 15, 15, 15, 4, 4
				, 40, 40, 245, 245, 245, 245, 245, 245
Microsoft (R) Macro Assembler Version 5.10                  12/6/19 16:06:45
                                                             Page     1-193


       0F 0F 0F 0F 04 04	
       28 28 F5 F5 F5 F5	
       F5 F5			
 88E0  F5 F5 F5 66 0F 0F	DB 245, 245, 245, 102, 15, 15, 15, 15, 15, 15, 
				15, 40, 4, 40, 40, 4, 4, 4, 4, 4
       0F 0F 0F 0F 0F 28	
       04 28 28 04 04 04	
       04 04			
 88F4  28 0F 0F 0F 0F 0F	DB 40, 15, 15, 15, 15, 15, 15, 15, 15, 15, 15, 
				40, 4, 4, 245, 245, 245, 245, 245, 245
       0F 0F 0F 0F 0F 28	
       04 04 F5 F5 F5 F5	
       F5 F5			
 8908  F5 F5 F5 0F 0F 0F	DB 245, 245, 245, 15, 15, 15, 15, 15, 15, 15, 1
				5, 15, 4, 40, 4, 4, 4, 4, 4, 40
       0F 0F 0F 0F 0F 0F	
       04 28 04 04 04 04	
       04 28			
 891C  04 0F 0F 0F 0F 0F	DB 4, 15, 15, 15, 15, 15, 15, 15, 15, 15, 15, 1
				5, 4, 4, 4, 245, 245, 245, 245, 245
       0F 0F 0F 0F 0F 0F	
       04 04 04 F5 F5 F5	
       F5 F5			
 8930  F5 F5 66 0F 0F 0F	DB 245, 245, 102, 15, 15, 15, 15, 15, 15, 15, 1
				5, 15, 15, 4, 40, 40, 40, 40, 40, 4
       0F 0F 0F 0F 0F 0F	
       0F 04 28 28 28 28	
       28 04			
 8944  0F 0F 0F 0F 0F 0F	DB 15, 15, 15, 15, 15, 15, 15, 15, 15, 15, 15, 
				15, 15, 15, 15, 15, 245, 245, 245, 245
       0F 0F 0F 0F 0F 0F	
       0F 0F 0F 0F F5 F5	
       F5 F5			
 8958  F5 F5 66 0F 0F 0F	DB 245, 245, 102, 15, 15, 15, 15, 15, 15, 15, 1
				5, 15, 15, 15, 4, 4, 4, 4, 4, 15
       0F 0F 0F 0F 0F 0F	
       0F 0F 04 04 04 04	
       04 0F			
 896C  0F 0F 0F 0F 0F 0F	DB 15, 15, 15, 15, 15, 15, 15, 15, 15, 15, 15, 
				15, 15, 15, 15, 15, 245, 245, 245, 245
       0F 0F 0F 0F 0F 0F	
       0F 0F 0F 0F F5 F5	
       F5 F5			
 8980  F5 F5 66 0F 66 66	DB 245, 245, 102, 15, 102, 102, 15, 15, 15, 15,
				 15, 15, 15, 15, 15, 15, 15, 15, 15, 15
       0F 0F 0F 0F 0F 0F	
       0F 0F 0F 0F 0F 0F	
       0F 0F			
 8994  0F 0F 0F 0F 0F 0F	DB 15, 15, 15, 15, 15, 15, 15, 15, 15, 15, 15, 
				15, 15, 15, 15, 15, 245, 245, 245, 245
       0F 0F 0F 0F 0F 0F	
       0F 0F 0F 0F F5 F5	
       F5 F5			
 89A8  F5 F5 66 66 0F 0F	DB 245, 245, 102, 102, 15, 15, 102, 15, 15, 15,
Microsoft (R) Macro Assembler Version 5.10                  12/6/19 16:06:45
                                                             Page     1-194


				 15, 15, 15, 15, 15, 15, 15, 15, 15, 15
       66 0F 0F 0F 0F 0F	
       0F 0F 0F 0F 0F 0F	
       0F 0F			
 89BC  0F 0F 0F 0F 0F 0F	DB 15, 15, 15, 15, 15, 15, 15, 15, 4, 15, 15, 1
				5, 15, 15, 15, 15, 245, 245, 245, 245
       0F 0F 04 0F 0F 0F	
       0F 0F 0F 0F F5 F5	
       F5 F5			
 89D0  F5 F5 66 66 0F 0F	DB 245, 245, 102, 102, 15, 15, 15, 15, 102, 15,
				 15, 15, 15, 15, 15, 15, 40, 15, 15, 40
       0F 0F 66 0F 0F 0F	
       0F 0F 0F 0F 28 0F	
       0F 28			
 89E4  0F 28 0F 0F 0F 04	DB 15, 40, 15, 15, 15, 4, 4, 4, 4, 15, 15, 15, 
				15, 15, 15, 15, 245, 245, 245, 245
       04 04 04 0F 0F 0F	
       0F 0F 0F 0F F5 F5	
       F5 F5			
 89F8  F5 F5 4E 66 0F 0F	DB 245, 245, 78, 102, 15, 15, 15, 15, 102, 15, 
				15, 15, 15, 15, 15, 15, 40, 15, 15, 40
       0F 0F 66 0F 0F 0F	
       0F 0F 0F 0F 28 0F	
       0F 28			
 8A0C  0F 28 0F 0F 04 04	DB 15, 40, 15, 15, 4, 4, 4, 4, 4, 15, 15, 4, 4,
				 15, 15, 15, 245, 245, 245, 245
       04 04 04 0F 0F 04	
       04 0F 0F 0F F5 F5	
       F5 F5			
 8A20  F5 F5 4E 0F 0F 0F	DB 245, 245, 78, 15, 15, 15, 15, 15, 15, 15, 15
				, 15, 15, 15, 15, 15, 40, 40, 15, 40
       0F 0F 0F 0F 0F 0F	
       0F 0F 0F 0F 28 28	
       0F 28			
 8A34  28 28 0F 0F 04 04	DB 40, 40, 15, 15, 4, 4, 4, 4, 4, 15, 4, 4, 4, 
				4, 15, 15, 245, 245, 245, 245
       04 04 04 0F 04 04	
       04 04 0F 0F F5 F5	
       F5 F5			
 8A48  F5 4E 4E 0F 0F 0F	DB 245, 78, 78, 15, 15, 15, 15, 15, 15, 15, 15,
				 15, 15, 15, 40, 15, 40, 40, 15, 40
       0F 0F 0F 0F 0F 0F	
       0F 0F 28 0F 28 28	
       0F 28			
 8A5C  28 28 0F 0F 04 04	DB 40, 40, 15, 15, 4, 4, 4, 4, 4, 15, 4, 4, 4, 
				4, 15, 15, 15, 245, 245, 245
       04 04 04 0F 04 04	
       04 04 0F 0F 0F F5	
       F5 F5			
 8A70  4E 4E 4E 0F 0F 0F	DB 78, 78, 78, 15, 15, 15, 15, 15, 15, 15, 15, 
				15, 15, 15, 40, 15, 40, 40, 15, 40
       0F 0F 0F 0F 0F 0F	
       0F 0F 28 0F 28 28	
       0F 28			
Microsoft (R) Macro Assembler Version 5.10                  12/6/19 16:06:45
                                                             Page     1-195


 8A84  28 28 28 0F 28 04	DB 40, 40, 40, 15, 40, 4, 4, 245, 4, 15, 4, 245
				, 4, 4, 15, 15, 15, 15, 245, 245
       04 F5 04 0F 04 F5	
       04 04 0F 0F 0F 0F	
       F5 F5			
 8A98  4E 4E 4E 66 0F 0F	DB 78, 78, 78, 102, 15, 15, 15, 15, 15, 15, 15,
				 15, 15, 15, 40, 15, 40, 40, 15, 40
       0F 0F 0F 0F 0F 0F	
       0F 0F 28 0F 28 28	
       0F 28			
 8AAC  28 28 28 0F 28 28	DB 40, 40, 40, 15, 40, 40, 4, 245, 4, 15, 4, 24
				5, 4, 4, 15, 102, 15, 15, 15, 245
       04 F5 04 0F 04 F5	
       04 04 0F 66 0F 0F	
       0F F5			
 8AC0  4E 4E 66 4E 0F 0F	DB 78, 78, 102, 78, 15, 15, 15, 15, 15, 15, 15,
				 15, 15, 15, 40, 15, 40, 40, 15, 40
       0F 0F 0F 0F 0F 0F	
       0F 0F 28 0F 28 28	
       0F 28			
 8AD4  28 28 0F 0F 28 28	DB 40, 40, 15, 15, 40, 40, 40, 4, 4, 15, 4, 245
				, 4, 4, 15, 102, 15, 15, 15, 15
       28 04 04 0F 04 F5	
       04 04 0F 66 0F 0F	
       0F 0F			
 8AE8  4E 4E 66 66 66 0F	DB 78, 78, 102, 102, 102, 15, 15, 15, 102, 15, 
				15, 15, 15, 15, 40, 15, 40, 15, 15, 40
       0F 0F 66 0F 0F 0F	
       0F 0F 28 0F 28 0F	
       0F 28			
 8AFC  28 28 0F 0F 0F 0F	DB 40, 40, 15, 15, 15, 15, 40, 4, 4, 15, 15, 4,
				 4, 4, 15, 102, 15, 15, 15, 15
       28 04 04 0F 0F 04	
       04 04 0F 66 0F 0F	
       0F 0F			
 8B10  4E 4F 66 66 4E 66	DB 78, 79, 102, 102, 78, 102, 102, 102, 102, 15
				, 15, 15, 15, 15, 15, 15, 15, 15, 15, 15
       66 66 66 0F 0F 0F	
       0F 0F 0F 0F 0F 0F	
       0F 0F			
 8B24  0F 0F 0F 0F 0F 0F	DB 15, 15, 15, 15, 15, 15, 40, 4, 4, 15, 15, 4,
				 4, 15, 15, 102, 15, 15, 15, 15
       28 04 04 0F 0F 04	
       04 0F 0F 66 0F 0F	
       0F 0F			
 8B38  4E 4E 66 66 66 4E	DB 78, 78, 102, 102, 102, 78, 78, 78, 15, 15, 1
				5, 15, 15, 15, 15, 15, 15, 15, 15, 15
       4E 4E 0F 0F 0F 0F	
       0F 0F 0F 0F 0F 0F	
       0F 0F			
 8B4C  0F 0F 0F 0F 0F 0F	DB 15, 15, 15, 15, 15, 15, 15, 15, 15, 15, 15, 
				4, 15, 15, 15, 78, 102, 15, 15, 15
       0F 0F 0F 0F 0F 04	
       0F 0F 0F 4E 66 0F	
Microsoft (R) Macro Assembler Version 5.10                  12/6/19 16:06:45
                                                             Page     1-196


       0F 0F			
 8B60  4E 4E 66 66 66 0F	DB 78, 78, 102, 102, 102, 15, 15, 15, 15, 15, 1
				5, 15, 15, 15, 15, 15, 15, 15, 15, 15
       0F 0F 0F 0F 0F 0F	
       0F 0F 0F 0F 0F 0F	
       0F 0F			
 8B74  0F 0F 0F 0F 0F 0F	DB 15, 15, 15, 15, 15, 15, 15, 15, 15, 15, 15, 
				15, 15, 15, 102, 245, 78, 102, 102, 102
       0F 0F 0F 0F 0F 0F	
       0F 0F 66 F5 4E 66	
       66 66			
 8B88  4E 4E 4E 66 66 66	DB 78, 78, 78, 102, 102, 102, 15, 15, 15, 15, 1
				5, 15, 15, 15, 15, 15, 15, 15, 15, 15
       0F 0F 0F 0F 0F 0F	
       0F 0F 0F 0F 0F 0F	
       0F 0F			
 8B9C  0F 0F 0F 0F 0F 0F	DB 15, 15, 15, 15, 15, 15, 15, 15, 15, 15, 15, 
				15, 15, 102, 245, 245, 245, 245, 245, 245
       0F 0F 0F 0F 0F 0F	
       0F 66 F5 F5 F5 F5	
       F5 F5			
 8BB0  F5 F5 4E 66 66 66	DB 245, 245, 78, 102, 102, 102, 15, 15, 15, 15,
				 15, 15, 102, 15, 15, 15, 15, 15, 15, 15
       0F 0F 0F 0F 0F 0F	
       66 0F 0F 0F 0F 0F	
       0F 0F			
 8BC4  0F 0F 0F 0F 0F 0F	DB 15, 15, 15, 15, 15, 15, 15, 15, 15, 15, 15, 
				15, 15, 102, 245, 245, 245, 245, 245, 245
       0F 0F 0F 0F 0F 0F	
       0F 66 F5 F5 F5 F5	
       F5 F5			
 8BD8  F5 F5 4E 4E 66 66	DB 245, 245, 78, 78, 102, 102, 15, 15, 15, 15, 
				15, 15, 102, 15, 15, 15, 15, 15, 15, 15
       0F 0F 0F 0F 0F 0F	
       66 0F 0F 0F 0F 0F	
       0F 0F			
 8BEC  0F 0F 0F 0F 0F 0F	DB 15, 15, 15, 15, 15, 15, 15, 15, 15, 15, 15, 
				15, 102, 102, 245, 245, 245, 245, 245, 245
       0F 0F 0F 0F 0F 0F	
       66 66 F5 F5 F5 F5	
       F5 F5			
 8C00  F5 F5 F5 4E 66 66	DB 245, 245, 245, 78, 102, 102, 102, 15, 15, 15
				, 15, 15, 102, 102, 15, 15, 15, 15, 15, 15
       66 0F 0F 0F 0F 0F	
       66 66 0F 0F 0F 0F	
       0F 0F			
 8C14  0F 0F 0F 0F 0F 0F	DB 15, 15, 15, 15, 15, 15, 15, 15, 15, 15, 15, 
				102, 102, 78, 245, 245, 245, 245, 245, 245
       0F 0F 0F 0F 0F 66	
       66 4E F5 F5 F5 F5	
       F5 F5			
 8C28  F5 F5 F5 F5 4E 66	DB 245, 245, 245, 245, 78, 102, 102, 102, 102, 
				15, 15, 102, 78, 78, 15, 15, 15, 15, 15, 102
       66 66 66 0F 0F 66	
Microsoft (R) Macro Assembler Version 5.10                  12/6/19 16:06:45
                                                             Page     1-197


       4E 4E 0F 0F 0F 0F	
       0F 66			
 8C3C  66 0F 0F 0F 0F 0F	DB 102, 15, 15, 15, 15, 15, 15, 15, 15, 15, 102
				, 102, 78, 245, 245, 245, 245, 245, 245, 245
       0F 0F 0F 0F 66 66	
       4E F5 F5 F5 F5 F5	
       F5 F5			
 8C50  F5 F5 F5 F5 4E 4E	DB 245, 245, 245, 245, 78, 78, 102, 102, 102, 1
				5, 15, 102, 245, 245, 102, 102, 102, 15, 102, 1
				02
       66 66 66 0F 0F 66	
       F5 F5 66 66 66 0F	
       66 66			
 8C64  4E 0F 0F 0F 0F 0F	DB 78, 15, 15, 15, 15, 15, 15, 15, 15, 102, 102
				, 78, 245, 245, 245, 245, 245, 245, 245, 245
       0F 0F 0F 66 66 4E	
       F5 F5 F5 F5 F5 F5	
       F5 F5			
 8C78  F5 F5 F5 F5 F5 4E	DB 245, 245, 245, 245, 245, 78, 102, 102, 102, 
				102, 102, 102, 245, 245, 102, 102, 102, 102, 24
				5, 78
       66 66 66 66 66 66	
       F5 F5 66 66 66 66	
       F5 4E			
 8C8C  4E 66 0F 0F 0F 0F	DB 78, 102, 15, 15, 15, 15, 102, 102, 102, 102,
				 102, 245, 245, 245, 245, 245, 245, 245, 245, 2
				45
       66 66 66 66 66 F5	
       F5 F5 F5 F5 F5 F5	
       F5 F5			
 8CA0  F5 F5 F5 F5 F5 F5	DB 245, 245, 245, 245, 245, 245, 78, 102, 102, 
				102, 102, 102, 245, 245, 78, 245, 102, 245, 245
				, 245
       4E 66 66 66 66 66	
       F5 F5 4E F5 66 F5	
       F5 F5			
 8CB4  4E 66 0F 0F 0F 0F	DB 78, 102, 15, 15, 15, 15, 102, 102, 102, 102,
				 78, 245, 245, 245, 245, 245, 245, 245, 245, 24
				5
       66 66 66 66 4E F5	
       F5 F5 F5 F5 F5 F5	
       F5 F5			
 8CC8  F5 F5 F5 F5 F5 F5	DB 245, 245, 245, 245, 245, 245, 78, 78, 102, 1
				02, 102, 102, 245, 245, 245, 245, 78, 245, 245,
				 245
       4E 4E 66 66 66 66	
       F5 F5 F5 F5 4E F5	
       F5 F5			
 8CDC  F5 66 0F 0F 0F 66	DB 245, 102, 15, 15, 15, 102, 102, 78, 102, 78,
				 245, 245, 245, 245, 245, 245, 245, 245, 245, 2
				45
       66 4E 66 4E F5 F5	
       F5 F5 F5 F5 F5 F5	
       F5 F5			
Microsoft (R) Macro Assembler Version 5.10                  12/6/19 16:06:45
                                                             Page     1-198


 8CF0  F5 F5 F5 F5 F5 F5	DB 245, 245, 245, 245, 245, 245, 245, 245, 245,
				 78, 102, 102, 103, 245, 245, 245, 245, 245, 24
				5, 245
       F5 F5 F5 4E 66 66	
       67 F5 F5 F5 F5 F5	
       F5 F5			
 8D04  F5 66 66 66 66 66	DB 245, 102, 102, 102, 102, 102, 245, 245, 245,
				 245, 245, 245, 245, 245, 245, 245, 245, 245, 2
				45, 245
       F5 F5 F5 F5 F5 F5	
       F5 F5 F5 F5 F5 F5	
       F5 F5			
 8D18  F5 F5 F5 F5 F5 F5	DB 245, 245, 245, 245, 245, 245, 245, 245, 245,
				 245, 245, 245, 245, 245, 245, 245, 245, 245, 2
				45, 245
       F5 F5 F5 F5 F5 F5	
       F5 F5 F5 F5 F5 F5	
       F5 F5			
 8D2C  F5 66 66 66 66 4E	DB 245, 102, 102, 102, 102, 78, 245, 245, 245, 
				245, 245, 245, 245, 245, 245, 245, 245, 245, 24
				5, 245
       F5 F5 F5 F5 F5 F5	
       F5 F5 F5 F5 F5 F5	
       F5 F5			
 8D40  F5 F5 F5 F5 F5 F5	DB 245, 245, 245, 245, 245, 245, 245, 245, 245,
				 245, 245, 245, 245, 245, 245, 245, 245, 245, 2
				45, 245
       F5 F5 F5 F5 F5 F5	
       F5 F5 F5 F5 F5 F5	
       F5 F5			
 8D54  F5 4E 66 66 F5 F5	DB 245, 78, 102, 102, 245, 245, 245, 245, 245, 
				245, 245, 245, 245, 245, 245, 245, 245, 245, 24
				5, 245
       F5 F5 F5 F5 F5 F5	
       F5 F5 F5 F5 F5 F5	
       F5 F5			
				
 8D68  F5 F5 F5 F5 F5 F5	GHOST3_1 DB 245, 245, 245, 245, 245, 245, 245, 
				245, 245, 245, 245, 245, 245, 245, 245, 245, 24
				5, 245, 245, 245
       F5 F5 F5 F5 F5 F5	
       F5 F5 F5 F5 F5 F5	
       F5 F5			
 8D7C  F5 F5 F5 F5 F5 F4	DB 245, 245, 245, 245, 245, 244, 28, 15, 15, 15
				, 174, 174, 174, 174, 174, 174, 174, 245, 245, 
				15
       1C 0F 0F 0F AE AE	
       AE AE AE AE AE F5	
       F5 0F			
 8D90  F5 F5 F5 F5 F5 F5	DB 245, 245, 245, 245, 245, 245, 245, 245, 245,
				 245, 245, 245, 245, 245, 245, 245, 245, 245, 2
				45, 245
       F5 F5 F5 F5 F5 F5	
       F5 F5 F5 F5 F5 F5	
Microsoft (R) Macro Assembler Version 5.10                  12/6/19 16:06:45
                                                             Page     1-199


       F5 F5			
 8DA4  F5 F5 F5 F5 F5 F5	DB 245, 245, 245, 245, 245, 245, 7, 174, 174, 1
				74, 30, 30, 30, 30, 30, 30, 30, 174, 245, 20
       07 AE AE AE 1E 1E	
       1E 1E 1E 1E 1E AE	
       F5 14			
 8DB8  F5 F5 F5 F5 F5 F5	DB 245, 245, 245, 245, 245, 245, 245, 245, 245,
				 245, 245, 245, 245, 245, 245, 245, 245, 245, 2
				45, 245
       F5 F5 F5 F5 F5 F5	
       F5 F5 F5 F5 F5 F5	
       F5 F5			
 8DCC  F5 F5 F5 F5 F5 AE	DB 245, 245, 245, 245, 245, 174, 174, 30, 30, 3
				0, 29, 27, 27, 27, 27, 120, 27, 29, 174, 20
       AE 1E 1E 1E 1D 1B	
       1B 1B 1B 78 1B 1D	
       AE 14			
 8DE0  F5 F5 F5 F5 F5 F5	DB 245, 245, 245, 245, 245, 245, 245, 245, 245,
				 245, 245, 245, 245, 245, 245, 245, 245, 245, 2
				45, 245
       F5 F5 F5 F5 F5 F5	
       F5 F5 F5 F5 F5 F5	
       F5 F5			
 8DF4  F5 F5 F5 F5 AE 1E	DB 245, 245, 245, 245, 174, 30, 30, 29, 27, 120
				, 120, 27, 120, 120, 27, 27, 27, 27, 29, 105
       1E 1D 1B 78 78 1B	
       78 78 1B 1B 1B 1B	
       1D 69			
 8E08  F5 F5 F5 F5 F5 F5	DB 245, 245, 245, 245, 245, 245, 245, 245, 245,
				 245, 245, 245, 245, 245, 245, 245, 245, 245, 2
				45, 245
       F5 F5 F5 F5 F5 F5	
       F5 F5 F5 F5 F5 F5	
       F5 F5			
 8E1C  F5 F5 F5 AE 1E 1D	DB 245, 245, 245, 174, 30, 29, 27, 27, 27, 120,
				 27, 27, 27, 27, 27, 39, 27, 27, 24, 105
       1B 1B 1B 78 1B 1B	
       1B 1B 1B 27 1B 1B	
       18 69			
 8E30  F5 F5 F5 F5 F5 F5	DB 245, 245, 245, 245, 245, 245, 245, 245, 245,
				 245, 245, 245, 174, 174, 174, 174, 174, 245, 2
				45, 245
       F5 F5 F5 F5 F5 F5	
       AE AE AE AE AE F5	
       F5 F5			
 8E44  F5 F5 AE 1E 1B 1B	DB 245, 245, 174, 30, 27, 27, 27, 27, 27, 27, 2
				7, 27, 27, 27, 27, 24, 39, 27, 39, 105
       1B 1B 1B 1B 1B 1B	
       1B 1B 1B 18 27 1B	
       27 69			
 8E58  F5 F5 F5 F5 F5 F5	DB 245, 245, 245, 245, 245, 245, 245, 245, 245,
				 245, 245, 174, 30, 30, 30, 30, 30, 174, 174, 1
				74
       F5 F5 F5 F5 F5 AE	
Microsoft (R) Macro Assembler Version 5.10                  12/6/19 16:06:45
                                                             Page     1-200


       1E 1E 1E 1E 1E AE	
       AE AE			
 8E6C  AE AE 1E 1B 1B 1B	DB 174, 174, 30, 27, 27, 27, 27, 27, 27, 27, 27
				, 27, 27, 27, 27, 27, 27, 27, 27, 105
       1B 1B 1B 1B 1B 1B	
       1B 1B 1B 1B 1B 1B	
       1B 69			
 8E80  F5 F5 F5 F5 F5 F5	DB 245, 245, 245, 245, 245, 245, 245, 245, 245,
				 245, 174, 30, 27, 27, 27, 27, 27, 30, 30, 30
       F5 F5 F5 F5 AE 1E	
       1B 1B 1B 1B 1B 1E	
       1E 1E			
 8E94  1E 1E AE AE AE AE	DB 30, 30, 174, 174, 174, 174, 27, 27, 27, 27, 
				27, 174, 105, 105, 24, 174, 105, 174, 27, 105
       1B 1B 1B 1B 1B AE	
       69 69 18 AE 69 AE	
       1B 69			
 8EA8  F5 F5 F5 F5 F5 F5	DB 245, 245, 245, 245, 245, 245, 245, 245, 245,
				 174, 30, 27, 27, 27, 27, 27, 27, 27, 27, 27
       F5 F5 F5 AE 1E 1B	
       1B 1B 1B 1B 1B 1B	
       1B 1B			
 8EBC  1B 1B 1E 1E 1E 1D	DB 27, 27, 30, 30, 30, 29, 27, 27, 27, 27, 105,
				 105, 105, 105, 105, 105, 27, 27, 105, 245
       1B 1B 1B 1B 69 69	
       69 69 69 69 1B 1B	
       69 F5			
 8ED0  F5 F5 F5 F5 F5 F5	DB 245, 245, 245, 245, 245, 245, 245, 245, 174,
				 30, 27, 27, 27, 27, 27, 27, 27, 27, 27, 27
       F5 F5 AE 1E 1B 1B	
       1B 1B 1B 1B 1B 1B	
       1B 1B			
 8EE4  1B 1B 1B 1B 1B 1B	DB 27, 27, 27, 27, 27, 27, 27, 27, 27, 105, 105
				, 105, 105, 105, 105, 24, 27, 105, 245, 245
       1B 1B 1B 69 69 69	
       69 69 69 18 1B 69	
       F5 F5			
 8EF8  F5 F5 F5 F5 F5 F5	DB 245, 245, 245, 245, 245, 245, 174, 174, 30, 
				27, 27, 27, 27, 105, 105, 105, 105, 27, 27, 27
       AE AE 1E 1B 1B 1B	
       1B 69 69 69 69 1B	
       1B 1B			
 8F0C  1B 1B 1B 1B 1B 1B	DB 27, 27, 27, 27, 27, 27, 27, 27, 174, 105, 10
				5, 105, 105, 105, 105, 27, 24, 105, 245, 245
       1B 1B AE 69 69 69	
       69 69 69 1B 18 69	
       F5 F5			
 8F20  F5 F5 F5 F5 F5 AE	DB 245, 245, 245, 245, 245, 174, 30, 30, 27, 27
				, 27, 105, 105, 245, 245, 245, 245, 105, 105, 1
				05
       1E 1E 1B 1B 1B 69	
       69 F5 F5 F5 F5 69	
       69 69			
 8F34  69 1B 1B 1B 1B 1B	DB 105, 27, 27, 27, 27, 27, 27, 27, 105, 105, 1
Microsoft (R) Macro Assembler Version 5.10                  12/6/19 16:06:45
                                                             Page     1-201


				05, 105, 105, 105, 27, 27, 105, 245, 245, 245
       1B 1B 69 69 69 69	
       69 69 1B 1B 69 F5	
       F5 F5			
 8F48  F5 F5 F5 F5 AE 1E	DB 245, 245, 245, 245, 174, 30, 27, 27, 27, 27,
				 105, 245, 245, 245, 245, 245, 245, 174, 30, 27
       1B 1B 1B 1B 69 F5	
       F5 F5 F5 F5 F5 AE	
       1E 1B			
 8F5C  1B 69 69 69 1B 1B	DB 27, 105, 105, 105, 27, 27, 27, 174, 105, 105
				, 105, 105, 105, 105, 27, 27, 105, 245, 245, 24
				5
       1B AE 69 69 69 69	
       69 69 1B 1B 69 F5	
       F5 F5			
 8F70  F5 F5 F5 AE 1E 1B	DB 245, 245, 245, 174, 30, 27, 27, 27, 27, 105,
				 245, 245, 245, 245, 245, 245, 245, 174, 30, 27
       1B 1B 1B 69 F5 F5	
       F5 F5 F5 F5 F5 AE	
       1E 1B			
 8F84  1B 1B 1B 1B 1B 1B	DB 27, 27, 27, 27, 27, 27, 27, 105, 105, 105, 1
				05, 105, 105, 105, 27, 174, 105, 245, 245, 245
       1B 69 69 69 69 69	
       69 69 1B AE 69 F5	
       F5 F5			
 8F98  F5 F5 AE 1E 1B 1B	DB 245, 245, 174, 30, 27, 27, 27, 27, 105, 245,
				 245, 245, 245, 245, 245, 245, 245, 174, 29, 27
       1B 1B 69 F5 F5 F5	
       F5 F5 F5 F5 F5 AE	
       1D 1B			
 8FAC  1B 1B 1B 1B 1B 1B	DB 27, 27, 27, 27, 27, 27, 27, 105, 105, 105, 1
				05, 105, 105, 105, 27, 105, 245, 245, 245, 245
       1B 69 69 69 69 69	
       69 69 1B 69 F5 F5	
       F5 F5			
 8FC0  F5 AE 1E 1B 1B 1B	DB 245, 174, 30, 27, 27, 27, 105, 105, 245, 245
				, 245, 245, 245, 245, 245, 245, 174, 30, 27, 27
       69 69 F5 F5 F5 F5	
       F5 F5 F5 F5 AE 1E	
       1B 1B			
 8FD4  1B 1B 1B 1B 1B 1B	DB 27, 27, 27, 27, 27, 27, 27, 105, 105, 105, 1
				05, 105, 105, 105, 27, 105, 245, 245, 245, 245
       1B 69 69 69 69 69	
       69 69 1B 69 F5 F5	
       F5 F5			
 8FE8  AE 1E 1B 1B 1B 1B	DB 174, 30, 27, 27, 27, 27, 27, 27, 105, 245, 2
				45, 245, 245, 245, 245, 245, 174, 30, 27, 27
       1B 1B 69 F5 F5 F5	
       F5 F5 F5 F5 AE 1E	
       1B 1B			
 8FFC  1B 1B 1B 1B 1B 1B	DB 27, 27, 27, 27, 27, 27, 27, 174, 105, 24, 10
				5, 27, 105, 105, 27, 105, 245, 245, 245, 245
       1B AE 69 18 69 1B	
       69 69 1B 69 F5 F5	
Microsoft (R) Macro Assembler Version 5.10                  12/6/19 16:06:45
                                                             Page     1-202


       F5 F5			
 9010  AE 1B 1B 1B 1B 1B	DB 174, 27, 27, 27, 27, 27, 27, 27, 27, 105, 24
				5, 245, 245, 245, 245, 245, 174, 29, 27, 27
       1B 1B 1B 69 F5 F5	
       F5 F5 F5 F5 AE 1D	
       1B 1B			
 9024  1B 1B 1B 1B 1B 1B	DB 27, 27, 27, 27, 27, 27, 27, 27, 105, 24, 174
				, 27, 24, 24, 27, 105, 245, 245, 245, 245
       1B 1B 69 18 AE 1B	
       18 18 1B 69 F5 F5	
       F5 F5			
 9038  F5 AE 1B 1B 1B 1B	DB 245, 174, 27, 27, 27, 27, 27, 27, 27, 105, 2
				45, 245, 245, 245, 245, 245, 174, 27, 27, 27
       1B 1B 1B 69 F5 F5	
       F5 F5 F5 F5 AE 1B	
       1B 1B			
 904C  1B 1B 1B 1B 1B 1B	DB 27, 27, 27, 27, 27, 27, 27, 27, 27, 27, 27, 
				27, 27, 27, 27, 105, 245, 245, 245, 245
       1B 1B 1B 1B 1B 1B	
       1B 1B 1B 69 F5 F5	
       F5 F5			
 9060  F5 F5 AE 1B 1B 1B	DB 245, 245, 174, 27, 27, 27, 27, 27, 105, 245,
				 245, 245, 245, 245, 245, 174, 30, 27, 27, 27
       1B 1B 69 F5 F5 F5	
       F5 F5 F5 AE 1E 1B	
       1B 1B			
 9074  1B 1B 1B 1B 1B 1B	DB 27, 27, 27, 27, 27, 27, 27, 27, 27, 27, 27, 
				27, 27, 27, 27, 105, 245, 245, 245, 245
       1B 1B 1B 1B 1B 1B	
       1B 1B 1B 69 F5 F5	
       F5 F5			
 9088  F5 F5 F5 69 69 69	DB 245, 245, 245, 105, 105, 105, 105, 105, 245,
				 245, 245, 245, 245, 245, 245, 174, 30, 27, 27,
				 27
       69 69 F5 F5 F5 F5	
       F5 F5 F5 AE 1E 1B	
       1B 1B			
 909C  1B 1B 1B 1B 1B 1B	DB 27, 27, 27, 27, 27, 27, 27, 27, 27, 27, 27, 
				27, 27, 27, 174, 105, 245, 245, 245, 245
       1B 1B 1B 1B 1B 1B	
       1B 1B AE 69 F5 F5	
       F5 F5			
 90B0  F5 F5 F5 F5 F5 F5	DB 245, 245, 245, 245, 245, 245, 245, 245, 245,
				 245, 245, 245, 245, 245, 245, 174, 27, 27, 27,
				 27
       F5 F5 F5 F5 F5 F5	
       F5 F5 F5 AE 1B 1B	
       1B 1B			
 90C4  1B 1B 1B 1B 1B 1B	DB 27, 27, 27, 27, 27, 27, 27, 27, 27, 27, 27, 
				27, 27, 27, 105, 245, 245, 245, 245, 245
       1B 1B 1B 1B 1B 1B	
       1B 1B 69 F5 F5 F5	
       F5 F5			
 90D8  F5 F5 F5 F5 F5 F5	DB 245, 245, 245, 245, 245, 245, 245, 245, 245,
Microsoft (R) Macro Assembler Version 5.10                  12/6/19 16:06:45
                                                             Page     1-203


				 245, 245, 245, 245, 245, 245, 174, 27, 27, 27,
				 27
       F5 F5 F5 F5 F5 F5	
       F5 F5 F5 AE 1B 1B	
       1B 1B			
 90EC  1B 1B 1B 1B 1B 1B	DB 27, 27, 27, 27, 27, 27, 27, 27, 27, 27, 27, 
				27, 27, 27, 105, 245, 245, 245, 245, 245
       1B 1B 1B 1B 1B 1B	
       1B 1B 69 F5 F5 F5	
       F5 F5			
 9100  F5 F5 F5 F5 F5 F5	DB 245, 245, 245, 245, 245, 245, 245, 245, 245,
				 245, 245, 245, 245, 245, 245, 174, 27, 27, 27,
				 27
       F5 F5 F5 F5 F5 F5	
       F5 F5 F5 AE 1B 1B	
       1B 1B			
 9114  1B 1B 1B 1B 1B 1B	DB 27, 27, 27, 27, 27, 27, 27, 27, 27, 27, 27, 
				27, 27, 27, 105, 245, 245, 245, 245, 245
       1B 1B 1B 1B 1B 1B	
       1B 1B 69 F5 F5 F5	
       F5 F5			
 9128  F5 F5 F5 F5 F5 F5	DB 245, 245, 245, 245, 245, 245, 245, 245, 245,
				 245, 245, 245, 245, 245, 245, 174, 27, 27, 27,
				 27
       F5 F5 F5 F5 F5 F5	
       F5 F5 F5 AE 1B 1B	
       1B 1B			
 913C  1B 1B 1B 1B 1B 1B	DB 27, 27, 27, 27, 27, 27, 27, 27, 27, 27, 27, 
				27, 27, 27, 105, 245, 245, 245, 245, 245
       1B 1B 1B 1B 1B 1B	
       1B 1B 69 F5 F5 F5	
       F5 F5			
 9150  F5 F5 F5 F5 F5 F5	DB 245, 245, 245, 245, 245, 245, 245, 245, 245,
				 245, 245, 245, 245, 245, 174, 30, 27, 27, 27, 
				27
       F5 F5 F5 F5 F5 F5	
       F5 F5 AE 1E 1B 1B	
       1B 1B			
 9164  1B 1B 1B 1B 1B 1B	DB 27, 27, 27, 27, 27, 27, 27, 27, 27, 27, 27, 
				27, 27, 27, 105, 245, 245, 245, 245, 245
       1B 1B 1B 1B 1B 1B	
       1B 1B 69 F5 F5 F5	
       F5 F5			
 9178  F5 F5 F5 F5 F5 F5	DB 245, 245, 245, 245, 245, 245, 245, 245, 245,
				 245, 245, 245, 245, 245, 174, 30, 27, 27, 27, 
				27
       F5 F5 F5 F5 F5 F5	
       F5 F5 AE 1E 1B 1B	
       1B 1B			
 918C  1B 1B 1B 1B 1B 1B	DB 27, 27, 27, 27, 27, 27, 27, 27, 27, 27, 27, 
				27, 27, 27, 105, 245, 245, 245, 245, 245
       1B 1B 1B 1B 1B 1B	
       1B 1B 69 F5 F5 F5	
       F5 F5			
Microsoft (R) Macro Assembler Version 5.10                  12/6/19 16:06:45
                                                             Page     1-204


 91A0  F5 F5 F5 F5 F5 F5	DB 245, 245, 245, 245, 245, 245, 245, 245, 245,
				 245, 245, 245, 245, 245, 174, 30, 27, 27, 27, 
				27
       F5 F5 F5 F5 F5 F5	
       F5 F5 AE 1E 1B 1B	
       1B 1B			
 91B4  1B 1B 1B 1B 1B 1B	DB 27, 27, 27, 27, 27, 27, 27, 27, 27, 27, 27, 
				27, 27, 27, 105, 245, 245, 245, 245, 245
       1B 1B 1B 1B 1B 1B	
       1B 1B 69 F5 F5 F5	
       F5 F5			
 91C8  F5 F5 F5 F5 F5 F5	DB 245, 245, 245, 245, 245, 245, 245, 245, 245,
				 245, 245, 245, 245, 245, 174, 30, 27, 27, 27, 
				27
       F5 F5 F5 F5 F5 F5	
       F5 F5 AE 1E 1B 1B	
       1B 1B			
 91DC  1B 1B 1B 1B 1B 1B	DB 27, 27, 27, 27, 27, 27, 27, 27, 27, 27, 27, 
				27, 27, 24, 105, 245, 245, 245, 245, 245
       1B 1B 1B 1B 1B 1B	
       1B 18 69 F5 F5 F5	
       F5 F5			
 91F0  F5 F5 F5 F5 F5 F5	DB 245, 245, 245, 245, 245, 245, 245, 245, 245,
				 245, 245, 245, 245, 174, 30, 29, 27, 27, 27, 2
				7
       F5 F5 F5 F5 F5 F5	
       F5 AE 1E 1D 1B 1B	
       1B 1B			
 9204  1B 1B 1B 1B 1B 1B	DB 27, 27, 27, 27, 27, 27, 27, 27, 27, 27, 27, 
				27, 27, 174, 105, 245, 245, 245, 245, 245
       1B 1B 1B 1B 1B 1B	
       1B AE 69 F5 F5 F5	
       F5 F5			
 9218  F5 F5 F5 F5 F5 F5	DB 245, 245, 245, 245, 245, 245, 245, 245, 245,
				 245, 245, 245, 245, 174, 30, 27, 27, 27, 27, 2
				7
       F5 F5 F5 F5 F5 F5	
       F5 AE 1E 1B 1B 1B	
       1B 1B			
 922C  1B 1B 1B 1B 1B 1B	DB 27, 27, 27, 27, 27, 27, 27, 27, 27, 27, 27, 
				27, 24, 105, 245, 245, 245, 245, 245, 245
       1B 1B 1B 1B 1B 1B	
       18 69 F5 F5 F5 F5	
       F5 F5			
 9240  F5 F5 F5 F5 F5 F5	DB 245, 245, 245, 245, 245, 245, 245, 245, 245,
				 245, 174, 174, 174, 30, 27, 27, 27, 27, 27, 27
       F5 F5 F5 F5 AE AE	
       AE 1E 1B 1B 1B 1B	
       1B 1B			
 9254  1B 1B 1B 1B 1B 1B	DB 27, 27, 27, 27, 27, 27, 27, 27, 27, 27, 27, 
				27, 24, 105, 245, 245, 245, 245, 245, 245
       1B 1B 1B 1B 1B 1B	
       18 69 F5 F5 F5 F5	
       F5 F5			
Microsoft (R) Macro Assembler Version 5.10                  12/6/19 16:06:45
                                                             Page     1-205


 9268  F5 AE AE AE AE AE	DB 245, 174, 174, 174, 174, 174, 174, 174, 174,
				 174, 30, 30, 30, 27, 27, 27, 27, 27, 27, 27
       AE AE AE AE 1E 1E	
       1E 1B 1B 1B 1B 1B	
       1B 1B			
 927C  1B 1B 1B 1B 1B 1B	DB 27, 27, 27, 27, 27, 27, 27, 27, 27, 27, 27, 
				24, 24, 105, 245, 245, 245, 245, 245, 245
       1B 1B 1B 1B 1B 18	
       18 69 F5 F5 F5 F5	
       F5 F5			
 9290  F5 F5 F5 69 69 1B	DB 245, 245, 245, 105, 105, 27, 29, 29, 30, 30,
				 29, 27, 27, 27, 27, 27, 27, 27, 27, 27
       1D 1D 1E 1E 1D 1B	
       1B 1B 1B 1B 1B 1B	
       1B 1B			
 92A4  1B 1B 1B 1B 1B 1B	DB 27, 27, 27, 27, 27, 27, 27, 27, 27, 27, 27, 
				174, 105, 105, 245, 245, 245, 245, 245, 245
       1B 1B 1B 1B 1B AE	
       69 69 F5 F5 F5 F5	
       F5 F5			
 92B8  F5 F5 F5 F5 F4 69	DB 245, 245, 245, 245, 244, 105, 105, 105, 24, 
				27, 27, 27, 27, 27, 27, 27, 27, 27, 27, 27
       69 69 18 1B 1B 1B	
       1B 1B 1B 1B 1B 1B	
       1B 1B			
 92CC  1B 1B 1B 1B 1B 1B	DB 27, 27, 27, 27, 27, 27, 27, 27, 27, 27, 24, 
				105, 245, 245, 245, 245, 245, 245, 245, 245
       1B 1B 1B 1B 18 69	
       F5 F5 F5 F5 F5 F5	
       F5 F5			
 92E0  F5 F5 F5 F5 F5 F5	DB 245, 245, 245, 245, 245, 245, 244, 244, 105,
				 105, 105, 24, 27, 27, 27, 27, 27, 27, 27, 27
       F4 F4 69 69 69 18	
       1B 1B 1B 1B 1B 1B	
       1B 1B			
 92F4  1B 1B 1B 1B 1B 1B	DB 27, 27, 27, 27, 27, 27, 27, 27, 27, 27, 174,
				 105, 245, 245, 245, 245, 245, 245, 245, 245
       1B 1B 1B 1B AE 69	
       F5 F5 F5 F5 F5 F5	
       F5 F5			
 9308  F5 F5 F5 F5 F5 F5	DB 245, 245, 245, 245, 245, 245, 245, 245, 245,
				 245, 244, 105, 105, 24, 27, 27, 27, 27, 27, 27
       F5 F5 F5 F5 F4 69	
       69 18 1B 1B 1B 1B	
       1B 1B			
 931C  1B 1B 1B 1B 1B 1B	DB 27, 27, 27, 27, 27, 27, 27, 27, 27, 174, 105
				, 245, 245, 245, 245, 245, 245, 245, 245, 245
       1B 1B 1B AE 69 F5	
       F5 F5 F5 F5 F5 F5	
       F5 F5			
 9330  F5 F5 F5 F5 F5 F5	DB 245, 245, 245, 245, 245, 245, 245, 245, 245,
				 245, 245, 245, 244, 105, 105, 174, 24, 27, 27,
				 27
       F5 F5 F5 F5 F5 F5	
Microsoft (R) Macro Assembler Version 5.10                  12/6/19 16:06:45
                                                             Page     1-206


       F4 69 69 AE 18 1B	
       1B 1B			
 9344  1B 1B 1B 1B 1B 1B	DB 27, 27, 27, 27, 27, 27, 27, 24, 174, 105, 24
				5, 245, 245, 245, 245, 245, 245, 245, 245, 245
       1B 18 AE 69 F5 F5	
       F5 F5 F5 F5 F5 F5	
       F5 F5			
 9358  F5 F5 F5 F5 F5 F5	DB 245, 245, 245, 245, 245, 245, 245, 245, 245,
				 245, 245, 245, 245, 245, 244, 105, 105, 105, 1
				74, 24
       F5 F5 F5 F5 F5 F5	
       F5 F5 F4 69 69 69	
       AE 18			
 936C  18 1B 1B 1B 1B 18	DB 24, 27, 27, 27, 27, 24, 174, 105, 105, 245, 
				245, 245, 245, 245, 245, 245, 245, 245, 245, 24
				5
       AE 69 69 F5 F5 F5	
       F5 F5 F5 F5 F5 F5	
       F5 F5			
 9380  F5 F5 F5 F5 F5 F5	DB 245, 245, 245, 245, 245, 245, 245, 245, 245,
				 245, 245, 245, 245, 245, 245, 245, 245, 20, 10
				5, 105
       F5 F5 F5 F5 F5 F5	
       F5 F5 F5 F5 F5 14	
       69 69			
 9394  69 69 69 69 69 69	DB 105, 105, 105, 105, 105, 105, 105, 245, 245,
				 245, 245, 245, 245, 245, 245, 245, 245, 245, 2
				45, 245
       69 F5 F5 F5 F5 F5	
       F5 F5 F5 F5 F5 F5	
       F5 F5			
				
 93A8  F5 F5 F5 F5 F5 F5	GHOST3_2 DB 245, 245, 245, 245, 245, 245, 245, 
				245, 245, 245, 245, 245, 245, 245, 245, 245, 24
				5, 245, 245, 245
       F5 F5 F5 F5 F5 F5	
       F5 F5 F5 F5 F5 F5	
       F5 F5			
 93BC  F5 F5 F5 F5 F5 F5	DB 245, 245, 245, 245, 245, 245, 245, 245, 245,
				 245, 245, 245, 245, 245, 245, 245, 245, 245, 2
				45, 245
       F5 F5 F5 F5 F5 F5	
       F5 F5 F5 F5 F5 F5	
       F5 F5			
 93D0  F5 F5 F5 F5 F5 F5	DB 245, 245, 245, 245, 245, 245, 245, 245, 245,
				 245, 245, 245, 245, 245, 245, 245, 245, 175, 1
				54, 23
       F5 F5 F5 F5 F5 F5	
       F5 F5 F5 F5 F5 AF	
       9A 17			
 93E4  1B 07 18 F5 F5 F5	DB 27, 7, 24, 245, 245, 245, 245, 245, 245, 245
				, 245, 245, 245, 245, 245, 245, 245, 245, 245, 
				245
       F5 F5 F5 F5 F5 F5	
Microsoft (R) Macro Assembler Version 5.10                  12/6/19 16:06:45
                                                             Page     1-207


       F5 F5 F5 F5 F5 F5	
       F5 F5			
 93F8  F5 F5 F5 F5 F5 F5	DB 245, 245, 245, 245, 245, 245, 245, 245, 245,
				 245, 245, 245, 245, 245, 245, 20, 23, 23, 156,
				 27
       F5 F5 F5 F5 F5 F5	
       F5 F5 F5 14 17 17	
       9C 1B			
 940C  1D 1D 1B 19 17 F5	DB 29, 29, 27, 25, 23, 245, 245, 245, 245, 245,
				 245, 245, 245, 245, 245, 245, 245, 245, 245, 2
				45
       F5 F5 F5 F5 F5 F5	
       F5 F5 F5 F5 F5 F5	
       F5 F5			
 9420  F5 F5 F5 F5 F5 F5	DB 245, 245, 245, 245, 245, 245, 245, 245, 245,
				 245, 245, 245, 245, 245, 243, 174, 24, 174, 24
				, 27
       F5 F5 F5 F5 F5 F5	
       F5 F5 F3 AE 18 AE	
       18 1B			
 9434  1D 1D 1E 1D 19 18	DB 29, 29, 30, 29, 25, 24, 245, 245, 245, 245, 
				245, 245, 245, 245, 245, 245, 245, 245, 245, 24
				5
       F5 F5 F5 F5 F5 F5	
       F5 F5 F5 F5 F5 F5	
       F5 F5			
 9448  F5 F5 F5 F5 F5 F5	DB 245, 245, 245, 245, 245, 245, 245, 245, 245,
				 245, 245, 245, 245, 175, 152, 25, 174, 24, 7, 
				27
       F5 F5 F5 F5 F5 F5	
       F5 AF 98 19 AE 18	
       07 1B			
 945C  1C 1D 1D 1E 1E 1C	DB 28, 29, 29, 30, 30, 28, 24, 24, 245, 245, 24
				5, 245, 245, 245, 245, 245, 245, 245, 245, 245
       18 18 F5 F5 F5 F5	
       F5 F5 F5 F5 F5 F5	
       F5 F5			
 9470  F5 F5 F5 F5 F5 F5	DB 245, 245, 245, 245, 245, 245, 245, 245, 245,
				 245, 245, 245, 245, 245, 153, 23, 23, 29, 24, 
				8
       F5 F5 F5 F5 F5 F5	
       F5 F5 99 17 17 1D	
       18 08			
 9484  19 1B 1E 1E 1D 1D	DB 25, 27, 30, 30, 29, 29, 29, 103, 173, 245, 2
				45, 245, 245, 245, 245, 245, 245, 245, 245, 245
       1D 67 AD F5 F5 F5	
       F5 F5 F5 F5 F5 F5	
       F5 F5			
 9498  F5 F5 F5 F5 F5 F5	DB 245, 245, 245, 245, 245, 245, 245, 245, 245,
				 245, 245, 245, 245, 245, 245, 20, 7, 15, 23, 0
       F5 F5 F5 F5 F5 F5	
       F5 F5 F5 14 07 0F	
       17 00			
 94AC  17 1C 1E 1E 1E 1D	DB 23, 28, 30, 30, 30, 29, 29, 29, 25, 152, 245
Microsoft (R) Macro Assembler Version 5.10                  12/6/19 16:06:45
                                                             Page     1-208


				, 245, 245, 245, 245, 245, 245, 245, 245, 245
       1D 1D 19 98 F5 F5	
       F5 F5 F5 F5 F5 F5	
       F5 F5			
 94C0  F5 F5 F5 F5 F5 F5	DB 245, 245, 245, 245, 245, 245, 245, 245, 245,
				 245, 245, 245, 245, 245, 245, 22, 27, 7, 24, 8
       F5 F5 F5 F5 F5 F5	
       F5 F5 F5 16 1B 07	
       18 08			
 94D4  19 07 1B 1B 1D 1D	DB 25, 7, 27, 27, 29, 29, 29, 27, 174, 152, 245
				, 245, 245, 245, 245, 245, 245, 245, 245, 245
       1D 1B AE 98 F5 F5	
       F5 F5 F5 F5 F5 F5	
       F5 F5			
 94E8  F5 F5 F5 F5 F5 F5	DB 245, 245, 245, 245, 245, 245, 245, 245, 245,
				 245, 245, 245, 245, 245, 165, 22, 27, 22, 20, 
				23
       F5 F5 F5 F5 F5 F5	
       F5 F5 A5 16 1B 16	
       14 17			
 94FC  07 18 1B 18 07 19	DB 7, 24, 27, 24, 7, 25, 7, 173, 154, 25, 23, 2
				45, 245, 245, 245, 245, 245, 245, 245, 245
       07 AD 9A 19 17 F5	
       F5 F5 F5 F5 F5 F5	
       F5 F5			
 9510  F5 F5 F5 F5 F5 F5	DB 245, 245, 245, 245, 245, 245, 245, 245, 245,
				 245, 245, 245, 245, 245, 165, 23, 24, 244, 17,
				 246
       F5 F5 F5 F5 F5 F5	
       F5 F5 A5 17 18 F4	
       11 F6			
 9524  17 1C 1B 13 17 16	DB 23, 28, 27, 19, 23, 22, 19, 20, 8, 25, 24, 2
				45, 245, 245, 245, 245, 245, 245, 245, 245
       13 14 08 19 18 F5	
       F5 F5 F5 F5 F5 F5	
       F5 F5			
 9538  F5 F5 F5 F5 F5 F5	DB 245, 245, 245, 245, 245, 245, 245, 245, 245,
				 245, 245, 244, 20, 8, 163, 25, 24, 17, 18, 17
       F5 F5 F5 F5 F5 F4	
       14 08 A3 19 18 11	
       12 11			
 954C  18 0F 08 00 14 E6	DB 24, 15, 8, 0, 20, 230, 22, 7, 207, 135, 160,
				 8, 245, 245, 245, 245, 245, 245, 245, 245
       16 07 CF 87 A0 08	
       F5 F5 F5 F5 F5 F5	
       F5 F5			
 9560  F5 F5 F5 F5 F5 F5	DB 245, 245, 245, 245, 245, 245, 245, 245, 245,
				 245, 155, 160, 158, 22, 169, 24, 7, 23, 243, 8
       F5 F5 F5 F5 9B A0	
       9E 16 A9 18 07 17	
       F3 08			
 9574  18 07 07 E8 00 E8	DB 24, 7, 7, 232, 0, 232, 27, 22, 182, 135, 156
				, 133, 245, 245, 245, 245, 245, 245, 245, 245
       1B 16 B6 87 9C 85	
Microsoft (R) Macro Assembler Version 5.10                  12/6/19 16:06:45
                                                             Page     1-209


       F5 F5 F5 F5 F5 F5	
       F5 F5			
 9588  F5 F5 F5 F5 F5 F5	DB 245, 245, 245, 245, 245, 245, 245, 245, 156,
				 63, 63, 24, 63, 134, 146, 23, 25, 28, 29, 27
       F5 F5 9C 3F 3F 18	
       3F 86 92 17 19 1C	
       1D 1B			
 959C  17 E8 17 13 11 11	DB 23, 232, 23, 19, 17, 17, 0, 0, 135, 132, 64,
				 24, 156, 134, 245, 245, 245, 245, 245, 245
       00 00 87 84 40 18	
       9C 86 F5 F5 F5 F5	
       F5 F5			
 95B0  F5 F5 F5 F5 9A 9E	DB 245, 245, 245, 245, 154, 158, 156, 63, 5, 5,
				 62, 5, 5, 133, 158, 22, 25, 27, 25, 134
       9C 3F 05 05 3E 05	
       05 85 9E 16 19 1B	
       19 86			
 95C4  13 00 00 00 11 11	DB 19, 0, 0, 0, 17, 17, 0, 183, 133, 63, 12, 13
				2, 135, 132, 156, 245, 245, 245, 245, 245
       00 B7 85 3F 0C 84	
       87 84 9C F5 F5 F5	
       F5 F5			
 95D8  F5 F5 F5 9F 9C 84	DB 245, 245, 245, 159, 156, 132, 132, 132, 63, 
				63, 63, 63, 63, 64, 229, 22, 23, 25, 8, 183
       84 84 3F 3F 3F 3F	
       3F 40 E5 16 17 19	
       08 B7			
 95EC  00 00 11 12 11 11	DB 0, 0, 17, 18, 17, 17, 208, 182, 156, 12, 12,
				 63, 133, 110, 110, 136, 136, 245, 245, 245
       D0 B6 9C 0C 0C 3F	
       85 6E 6E 88 88 F5	
       F5 F5			
 9600  F5 A0 88 6E 86 6E	DB 245, 160, 136, 110, 134, 110, 5, 63, 12, 132
				, 63, 63, 12, 134, 228, 20, 19, 20, 7, 24
       05 3F 0C 84 3F 3F	
       0C 86 E4 14 13 14	
       07 18			
 9614  B7 00 11 11 11 11	DB 183, 0, 17, 17, 17, 17, 110, 157, 133, 156, 
				133, 134, 132, 110, 134, 157, 136, 137, 245, 24
				5
       6E 9D 85 9C 85 86	
       84 6E 86 9D 88 89	
       F5 F5			
 9628  A0 D0 89 18 88 87	DB 160, 208, 137, 24, 136, 135, 132, 109, 109, 
				63, 12, 134, 133, 134, 222, 8, 22, 0, 25, 23
       84 6D 6D 3F 0C 86	
       85 86 DE 08 16 00	
       19 17			
 963C  88 12 00 B7 00 CF	DB 136, 18, 0, 183, 0, 207, 110, 23, 7, 134, 13
				4, 111, 133, 133, 136, 245, 245, 245, 245, 245
       6E 17 07 86 86 6F	
       85 85 88 F5 F5 F5	
       F5 F5			
 9650  F5 F5 F5 A0 71 A1	DB 245, 245, 245, 160, 113, 161, 158, 110, 134,
Microsoft (R) Macro Assembler Version 5.10                  12/6/19 16:06:45
                                                             Page     1-210


				 133, 110, 110, 24, 28, 221, 20, 7, 8, 170, 27
       9E 6E 86 85 6E 6E	
       18 1C DD 14 07 08	
       AA 1B			
 9664  17 87 D0 11 B7 87	DB 23, 135, 208, 17, 183, 135, 134, 25, 24, 153
				, 158, 136, 245, 245, 245, 245, 245, 245, 245, 
				245
       86 19 18 99 9E 88	
       F5 F5 F5 F5 F5 F5	
       F5 F5			
 9678  F5 F5 F5 F5 14 AE	DB 245, 245, 245, 245, 20, 174, 138, 208, 138, 
				158, 208, 229, 28, 30, 24, 244, 7, 25, 22, 156
       8A D0 8A 9E D0 E5	
       1C 1E 18 F4 07 19	
       16 9C			
 968C  17 B7 86 11 9E 9E	DB 23, 183, 134, 17, 158, 158, 154, 7, 20, 24, 
				153, 245, 245, 245, 245, 245, 245, 245, 245, 24
				5
       9A 07 14 18 99 F5	
       F5 F5 F5 F5 F5 F5	
       F5 F5			
 96A0  F5 F5 F5 F5 F5 F5	DB 245, 245, 245, 245, 245, 245, 245, 245, 245,
				 8, 138, 155, 28, 28, 29, 158, 7, 24, 7, 24
       F5 F5 F5 08 8A 9B	
       1C 1C 1D 9E 07 18	
       07 18			
 96B4  9D 14 CF 12 AD AC	DB 157, 20, 207, 18, 173, 172, 172, 25, 22, 173
				, 173, 237, 245, 245, 245, 245, 245, 245, 245, 
				245
       AC 19 16 AD AD ED	
       F5 F5 F5 F5 F5 F5	
       F5 F5			
 96C8  F5 F5 F5 F5 F5 F5	DB 245, 245, 245, 245, 245, 245, 245, 245, 245,
				 245, 8, 25, 28, 29, 27, 24, 24, 7, 27, 27
       F5 F5 F5 F5 08 19	
       1C 1D 1B 18 18 07	
       1B 1B			
 96DC  1B 1B 08 16 19 18	DB 27, 27, 8, 22, 25, 24, 24, 7, 174, 175, 24, 
				175, 20, 245, 245, 245, 245, 245, 245, 245
       18 07 AE AF 18 AF	
       14 F5 F5 F5 F5 F5	
       F5 F5			
 96F0  F5 F5 F5 F5 F5 F5	DB 245, 245, 245, 245, 245, 245, 245, 245, 245,
				 245, 159, 27, 29, 28, 23, 24, 24, 7, 27, 29
       F5 F5 F5 F5 9F 1B	
       1D 1C 17 18 18 07	
       1B 1D			
 9704  1D 1C 16 16 07 1B	DB 29, 28, 22, 22, 7, 27, 28, 7, 24, 7, 27, 25,
				 24, 136, 245, 245, 245, 245, 245, 245
       1C 07 18 07 1B 19	
       18 88 F5 F5 F5 F5	
       F5 F5			
 9718  F5 F5 F5 F5 F5 F5	DB 245, 245, 245, 245, 245, 245, 245, 245, 245,
				 139, 25, 27, 29, 28, 23, 24, 24, 24, 28, 29
Microsoft (R) Macro Assembler Version 5.10                  12/6/19 16:06:45
                                                             Page     1-211


       F5 F5 F5 8B 19 1B	
       1D 1C 17 18 18 18	
       1C 1D			
 972C  1D 1C AE AF 07 1D	DB 29, 28, 174, 175, 7, 29, 28, 27, 24, 174, 25
				, 25, 24, 159, 132, 245, 245, 245, 245, 245
       1C 1B 18 AE 19 19	
       18 9F 84 F5 F5 F5	
       F5 F5			
 9740  F5 F5 F5 F5 F5 F5	DB 245, 245, 245, 245, 245, 245, 245, 245, 245,
				 22, 7, 28, 28, 25, 24, 25, 24, 25, 27, 29
       F5 F5 F5 16 07 1C	
       1C 19 18 19 18 19	
       1B 1D			
 9754  1D 1C 16 17 07 1D	DB 29, 28, 22, 23, 7, 29, 29, 27, 25, 20, 24, 7
				, 20, 156, 156, 156, 155, 245, 245, 245
       1D 1B 19 14 18 07	
       14 9C 9C 9C 9B F5	
       F5 F5			
 9768  F5 F5 F5 F5 F5 F5	DB 245, 245, 245, 245, 245, 245, 245, 245, 245,
				 22, 25, 28, 29, 23, 24, 25, 24, 7, 29, 29
       F5 F5 F5 16 19 1C	
       1D 17 18 19 18 07	
       1D 1D			
 977C  1D 1C AD 17 1B 1D	DB 29, 28, 173, 23, 27, 29, 29, 28, 25, 8, 158,
				 23, 27, 23, 208, 157, 157, 174, 245, 245
       1D 1C 19 08 9E 17	
       1B 17 D0 9D 9D AE	
       F5 F5			
 9790  F5 F5 F5 F5 F5 F5	DB 245, 245, 245, 245, 245, 245, 245, 245, 245,
				 22, 25, 28, 29, 25, 24, 25, 24, 25, 29, 29
       F5 F5 F5 16 19 1C	
       1D 19 18 19 18 19	
       1D 1D			
 97A4  1D 1B AD AC 1B 1D	DB 29, 27, 173, 172, 27, 29, 29, 28, 27, 20, 17
				, 18, 28, 27, 158, 110, 136, 8, 244, 245
       1D 1C 1B 14 11 12	
       1C 1B 9E 6E 88 08	
       F4 F5			
 97B8  F5 F5 F5 F5 F5 F5	DB 245, 245, 245, 245, 245, 245, 245, 245, 245,
				 22, 27, 29, 29, 7, 24, 25, 24, 7, 29, 29
       F5 F5 F5 16 1B 1D	
       1D 07 18 19 18 07	
       1D 1D			
 97CC  1D 1B 16 AD 1B 1D	DB 29, 27, 22, 173, 27, 29, 28, 27, 27, 20, 20,
				 18, 228, 7, 24, 110, 110, 161, 244, 245
       1C 1B 1B 14 14 12	
       E4 07 18 6E 6E A1	
       F4 F5			
 97E0  F5 F5 F5 F5 F5 F5	DB 245, 245, 245, 245, 245, 245, 245, 245, 245,
				 223, 24, 7, 25, 234, 22, 25, 25, 7, 29, 29
       F5 F5 F5 DF 18 07	
       19 EA 16 19 19 07	
       1D 1D			
 97F4  1D 1C AE 17 1B 1D	DB 29, 28, 174, 23, 27, 29, 27, 24, 173, 245, 2
Microsoft (R) Macro Assembler Version 5.10                  12/6/19 16:06:45
                                                             Page     1-212


				45, 245, 186, 20, 24, 157, 110, 136, 137, 245
       1B 18 AD F5 F5 F5	
       BA 14 18 9D 6E 88	
       89 F5			
 9808  F5 F5 F5 F5 F5 F5	DB 245, 245, 245, 245, 245, 245, 245, 245, 245,
				 247, 25, 24, 24, 157, 23, 24, 24, 27, 29, 29
       F5 F5 F5 F7 19 18	
       18 9D 17 18 18 1B	
       1D 1D			
 981C  1D 1B 16 17 1B 1D	DB 29, 27, 22, 23, 27, 29, 28, 22, 22, 245, 245
				, 245, 245, 161, 161, 167, 133, 109, 160, 245
       1C 16 16 F5 F5 F5	
       F5 A1 A1 A7 85 6D	
       A0 F5			
 9830  F5 F5 F5 F5 F5 F5	DB 245, 245, 245, 245, 245, 245, 245, 245, 245,
				 8, 27, 23, 24, 88, 27, 25, 24, 28, 29, 29
       F5 F5 F5 08 1B 17	
       18 58 1B 19 18 1C	
       1D 1D			
 9844  1D 1B 17 18 1B 1B	DB 29, 27, 23, 24, 27, 27, 7, 28, 24, 245, 245,
				 245, 245, 245, 20, 140, 208, 133, 135, 137
       07 1C 18 F5 F5 F5	
       F5 F5 14 8C D0 85	
       87 89			
 9858  F5 F5 F5 F5 F5 F5	DB 245, 245, 245, 245, 245, 245, 245, 245, 245,
				 22, 27, 156, 133, 24, 27, 27, 25, 27, 28, 29
       F5 F5 F5 16 1B 9C	
       85 18 1B 1B 19 1B	
       1C 1D			
 986C  1D 1C 18 18 1D 07	DB 29, 28, 24, 24, 29, 7, 20, 22, 27, 245, 245,
				 245, 245, 245, 245, 243, 138, 135, 206, 138
       14 16 1B F5 F5 F5	
       F5 F5 F5 F3 8A 87	
       CE 8A			
 9880  F5 F5 F5 F5 F5 F5	DB 245, 245, 245, 245, 245, 245, 245, 245, 245,
				 22, 24, 134, 133, 157, 24, 7, 7, 28, 29, 29
       F5 F5 F5 16 18 86	
       85 9D 18 07 07 1C	
       1D 1D			
 9894  1D 1C 17 AC 1D 17	DB 29, 28, 23, 172, 29, 23, 0, 19, 7, 245, 245,
				 245, 245, 245, 245, 245, 245, 245, 160, 138
       00 13 07 F5 F5 F5	
       F5 F5 F5 F5 F5 F5	
       A0 8A			
 98A8  F5 F5 F5 F5 F5 F5	DB 245, 245, 245, 245, 245, 245, 245, 245, 245,
				 22, 161, 205, 110, 159, 23, 25, 24, 28, 29, 28
       F5 F5 F5 16 A1 CD	
       6E 9F 17 19 18 1C	
       1D 1C			
 98BC  19 07 17 AE 1C 17	DB 25, 7, 23, 174, 28, 23, 0, 18, 25, 245, 245,
				 245, 245, 245, 245, 245, 245, 244, 245, 244
       00 12 19 F5 F5 F5	
       F5 F5 F5 F5 F5 F4	
       F5 F4			
Microsoft (R) Macro Assembler Version 5.10                  12/6/19 16:06:45
                                                             Page     1-213


 98D0  F5 F5 F5 F5 F5 F5	DB 245, 245, 245, 245, 245, 245, 245, 245, 245,
				 23, 135, 110, 160, 141, 23, 25, 24, 28, 29, 7
       F5 F5 F5 17 87 6E	
       A0 8D 17 19 18 1C	
       1D 07			
 98E4  11 16 07 17 1C 19	DB 17, 22, 7, 23, 28, 25, 217, 18, 24, 245, 245
				, 245, 245, 245, 245, 245, 245, 245, 244, 245
       D9 12 18 F5 F5 F5	
       F5 F5 F5 F5 F5 F5	
       F4 F5			
 98F8  F5 F5 F5 F5 F5 F5	DB 245, 245, 245, 245, 245, 245, 245, 245, 245,
				 20, 228, 110, 157, 8, 23, 24, 24, 28, 28, 27
       F5 F5 F5 14 E4 6E	
       9D 08 17 18 18 1C	
       1C 1B			
 990C  11 16 07 18 18 19	DB 17, 22, 7, 24, 24, 25, 24, 24, 7, 245, 245, 
				245, 245, 245, 245, 245, 245, 245, 244, 245
       18 18 07 F5 F5 F5	
       F5 F5 F5 F5 F5 F5	
       F4 F5			
 9920  F5 F5 F5 F5 F5 F5	DB 245, 245, 245, 245, 245, 245, 245, 245, 174,
				 18, 181, 132, 159, 173, 154, 25, 23, 102, 28, 
				27
       F5 F5 AE 12 B5 84	
       9F AD 9A 19 17 66	
       1C 1B			
 9934  11 17 07 19 17 18	DB 17, 23, 7, 25, 23, 24, 28, 23, 174, 245, 245
				, 245, 245, 245, 245, 245, 245, 245, 245, 245
       1C 17 AE F5 F5 F5	
       F5 F5 F5 F5 F5 F5	
       F5 F5			
 9948  F5 F5 F5 F5 F5 F5	DB 245, 245, 245, 245, 245, 245, 245, 245, 8, 1
				60, 110, 159, 8, 173, 159, 23, 22, 28, 28, 28
       F5 F5 08 A0 6E 9F	
       08 AD 9F 17 16 1C	
       1C 1C			
 995C  17 08 18 19 1B 1C	DB 23, 8, 24, 25, 27, 28, 24, 18, 245, 245, 245
				, 245, 245, 245, 245, 245, 245, 245, 245, 245
       18 12 F5 F5 F5 F5	
       F5 F5 F5 F5 F5 F5	
       F5 F5			
 9970  F5 F5 F5 F5 F5 F5	DB 245, 245, 245, 245, 245, 245, 245, 245, 245,
				 8, 136, 159, 8, 8, 155, 158, 175, 154, 24, 7
       F5 F5 F5 08 88 9F	
       08 08 9B 9E AF 9A	
       18 07			
 9984  1B 17 16 16 1C 98	DB 27, 23, 22, 22, 28, 152, 8, 245, 245, 245, 2
				45, 245, 245, 245, 245, 245, 245, 245, 245, 245
       08 F5 F5 F5 F5 F5	
       F5 F5 F5 F5 F5 F5	
       F5 F5			
 9998  F5 F5 F5 F5 F5 F5	DB 245, 245, 245, 245, 245, 245, 245, 245, 245,
				 20, 137, 23, 245, 8, 25, 24, 24, 24, 24, 23
       F5 F5 F5 14 89 17	
Microsoft (R) Macro Assembler Version 5.10                  12/6/19 16:06:45
                                                             Page     1-214


       F5 08 19 18 18 18	
       18 17			
 99AC  17 9A 16 17 19 AF	DB 23, 154, 22, 23, 25, 175, 245, 245, 245, 245
				, 245, 245, 245, 245, 245, 245, 245, 245, 245, 
				245
       F5 F5 F5 F5 F5 F5	
       F5 F5 F5 F5 F5 F5	
       F5 F5			
 99C0  F5 F5 F5 F5 F5 F5	DB 245, 245, 245, 245, 245, 245, 245, 245, 245,
				 245, 154, 23, 245, 245, 24, 25, 25, 7, 25, 25
       F5 F5 F5 F5 9A 17	
       F5 F5 18 19 19 07	
       19 19			
 99D4  07 9F 16 18 08 F5	DB 7, 159, 22, 24, 8, 245, 245, 245, 245, 245, 
				245, 245, 245, 245, 245, 245, 245, 245, 245, 24
				5
       F5 F5 F5 F5 F5 F5	
       F5 F5 F5 F5 F5 F5	
       F5 F5			
				
 99E8  F5 F5 F5 F5 F5 F5	PORTAL DB 245, 245, 245, 245, 245, 245, 245, 24
				5, 245, 245, 245, 245, 245, 245, 245, 245, 245,
				 245, 245, 245
       F5 F5 F5 F5 F5 F5	
       F5 F5 F5 F5 F5 F5	
       F5 F5			
 99FC  F5 F5 F5 F5 F5 F5	DB 245, 245, 245, 245, 245, 245, 245, 245, 245,
				 245, 245, 245, 245, 245, 245, 245, 245, 245, 2
				45, 245
       F5 F5 F5 F5 F5 F5	
       F5 F5 F5 F5 F5 F5	
       F5 F5			
 9A10  F5 F5 F5 F5 F5 F5	DB 245, 245, 245, 245, 245, 245, 245, 245, 245,
				 245, 245, 245, 245, 245, 245, 245, 245, 245, 2
				45, 245
       F5 F5 F5 F5 F5 F5	
       F5 F5 F5 F5 F5 F5	
       F5 F5			
 9A24  F5 F5 F5 F5 F5 F5	DB 245, 245, 245, 245, 245, 245, 245, 245, 245,
				 34, 34, 35, 35, 35, 34, 34, 34, 34, 34, 34
       F5 F5 F5 22 22 23	
       23 23 22 22 22 22	
       22 22			
 9A38  22 22 F5 F5 F5 F5	DB 34, 34, 245, 245, 245, 245, 245, 245, 245, 2
				45, 245, 245, 245, 245, 245, 245, 245, 245, 245
				, 245
       F5 F5 F5 F5 F5 F5	
       F5 F5 F5 F5 F5 F5	
       F5 F5			
 9A4C  F5 F5 F5 F5 F5 F5	DB 245, 245, 245, 245, 245, 245, 245, 245, 245,
				 245, 245, 245, 245, 245, 245, 245, 34, 34, 34,
				 34
       F5 F5 F5 F5 F5 F5	
       F5 F5 F5 F5 22 22	
Microsoft (R) Macro Assembler Version 5.10                  12/6/19 16:06:45
                                                             Page     1-215


       22 22			
 9A60  22 22 22 23 23 23	DB 34, 34, 34, 35, 35, 35, 105, 105, 105, 106, 
				34, 34, 34, 245, 245, 245, 245, 245, 245, 245
       69 69 69 6A 22 22	
       22 F5 F5 F5 F5 F5	
       F5 F5			
 9A74  F5 F5 F5 F5 F5 F5	DB 245, 245, 245, 245, 245, 245, 245, 245, 245,
				 245, 245, 245, 245, 245, 245, 245, 245, 245, 2
				45, 245
       F5 F5 F5 F5 F5 F5	
       F5 F5 F5 F5 F5 F5	
       F5 F5			
 9A88  F5 F5 F5 F5 22 22	DB 245, 245, 245, 245, 34, 34, 107, 34, 34, 34,
				 34, 34, 34, 34, 35, 35, 35, 105, 105, 105
       6B 22 22 22 22 22	
       22 22 23 23 23 69	
       69 69			
 9A9C  6A 6B 6B 22 F5 22	DB 106, 107, 107, 34, 245, 34, 245, 245, 245, 2
				45, 245, 245, 245, 245, 245, 245, 245, 245, 245
				, 245
       F5 F5 F5 F5 F5 F5	
       F5 F5 F5 F5 F5 F5	
       F5 F5			
 9AB0  F5 F5 F5 F5 F5 F5	DB 245, 245, 245, 245, 245, 245, 245, 245, 245,
				 245, 245, 245, 245, 34, 245, 34, 107, 107, 34,
				 34
       F5 F5 F5 F5 F5 F5	
       F5 22 F5 22 6B 6B	
       22 22			
 9AC4  22 22 22 22 23 23	DB 34, 34, 34, 34, 35, 35, 34, 34, 105, 106, 10
				6, 107, 107, 107, 34, 35, 34, 245, 245, 245
       22 22 69 6A 6A 6B	
       6B 6B 22 23 22 F5	
       F5 F5			
 9AD8  F5 F5 F5 F5 F5 F5	DB 245, 245, 245, 245, 245, 245, 245, 245, 245,
				 245, 245, 245, 245, 245, 245, 245, 245, 245, 2
				45, 245
       F5 F5 F5 F5 F5 F5	
       F5 F5 F5 F5 F5 F5	
       F5 F5			
 9AEC  F5 F5 22 F5 6A 6A	DB 245, 245, 34, 245, 106, 106, 106, 106, 107, 
				34, 34, 34, 34, 34, 34, 35, 35, 34, 105, 106
       6A 6A 6B 22 22 22	
       22 22 22 23 23 22	
       69 6A			
 9B00  6A 6A 6B 6B 22 23	DB 106, 106, 107, 107, 34, 35, 35, 35, 245, 245
				, 245, 245, 245, 245, 245, 245, 245, 245, 245, 
				245
       23 23 F5 F5 F5 F5	
       F5 F5 F5 F5 F5 F5	
       F5 F5			
 9B14  F5 F5 F5 F5 F5 F5	DB 245, 245, 245, 245, 245, 245, 245, 245, 245,
				 245, 34, 245, 245, 105, 105, 105, 106, 106, 10
				6, 107
Microsoft (R) Macro Assembler Version 5.10                  12/6/19 16:06:45
                                                             Page     1-216


       F5 F5 F5 F5 22 F5	
       F5 69 69 69 6A 6A	
       6A 6B			
 9B28  22 22 22 22 22 23	DB 34, 34, 34, 34, 34, 35, 35, 105, 105, 105, 1
				06, 106, 107, 107, 34, 34, 35, 35, 35, 35
       23 69 69 69 6A 6A	
       6B 6B 22 22 23 23	
       23 23			
 9B3C  F5 F5 F5 F5 F5 F5	DB 245, 245, 245, 245, 245, 245, 245, 245, 245,
				 245, 245, 245, 245, 245, 245, 245, 245, 245, 2
				45, 34
       F5 F5 F5 F5 F5 F5	
       F5 F5 F5 F5 F5 F5	
       F5 22			
 9B50  22 69 69 69 69 69	DB 34, 105, 105, 105, 105, 105, 105, 106, 106, 
				106, 107, 107, 34, 34, 34, 35, 35, 34, 105, 105
       69 6A 6A 6A 6B 6B	
       22 22 22 23 23 22	
       69 69			
 9B64  6A 6A 6B 6B 22 22	DB 106, 106, 107, 107, 34, 34, 34, 34, 35, 34, 
				34, 245, 245, 245, 245, 245, 245, 245, 245, 245
       22 22 23 22 22 F5	
       F5 F5 F5 F5 F5 F5	
       F5 F5			
 9B78  F5 F5 F5 F5 F5 F5	DB 245, 245, 245, 245, 245, 245, 245, 245, 35, 
				34, 34, 35, 35, 34, 34, 105, 105, 105, 106, 106
       F5 F5 23 22 22 23	
       23 22 22 69 69 69	
       6A 6A			
 9B8C  6B 22 22 22 22 22	DB 107, 34, 34, 34, 34, 34, 35, 34, 105, 105, 1
				06, 106, 107, 34, 34, 34, 34, 35, 35, 35
       23 22 69 69 6A 6A	
       6B 22 22 22 22 23	
       23 23			
 9BA0  22 22 F5 F5 F5 F5	DB 34, 34, 245, 245, 245, 245, 245, 245, 245, 2
				45, 245, 245, 245, 245, 245, 245, 245, 35, 35, 
				35
       F5 F5 F5 F5 F5 F5	
       F5 F5 F5 F5 F5 23	
       23 23			
 9BB4  23 23 23 23 23 23	DB 35, 35, 35, 35, 35, 35, 105, 105, 105, 106, 
				106, 107, 34, 34, 34, 34, 35, 34, 105, 105
       69 69 69 6A 6A 6B	
       22 22 22 22 23 22	
       69 69			
 9BC8  6A 6B 6B 6B 22 22	DB 106, 107, 107, 107, 34, 34, 34, 34, 35, 35, 
				105, 245, 34, 245, 245, 245, 245, 245, 245, 245
       22 22 23 23 69 F5	
       22 F5 F5 F5 F5 F5	
       F5 F5			
 9BDC  F5 F5 F5 F5 F5 F5	DB 245, 245, 245, 245, 245, 245, 245, 35, 35, 3
				4, 34, 35, 35, 35, 35, 35, 35, 105, 105, 105
       F5 23 23 22 22 23	
       23 23 23 23 23 69	
Microsoft (R) Macro Assembler Version 5.10                  12/6/19 16:06:45
                                                             Page     1-217


       69 69			
 9BF0  6A 6B 6B 6B 22 22	DB 106, 107, 107, 107, 34, 34, 35, 34, 105, 105
				, 106, 106, 107, 34, 34, 34, 34, 35, 35, 35
       23 22 69 69 6A 6A	
       6B 22 22 22 22 23	
       23 23			
 9C04  22 69 22 F5 F5 F5	DB 34, 105, 34, 245, 245, 245, 245, 245, 245, 2
				45, 245, 245, 245, 245, 245, 245, 35, 35, 34, 3
				4
       F5 F5 F5 F5 F5 F5	
       F5 F5 F5 F5 23 23	
       22 22			
 9C18  22 22 22 22 23 23	DB 34, 34, 34, 34, 35, 35, 35, 34, 34, 105, 106
				, 106, 107, 34, 34, 34, 35, 34, 105, 105
       23 22 22 69 6A 6A	
       6B 22 22 22 23 22	
       69 69			
 9C2C  6A 6B 6B 22 22 22	DB 106, 107, 107, 34, 34, 34, 34, 35, 35, 35, 1
				05, 105, 34, 34, 245, 245, 245, 245, 245, 245
       22 23 23 23 69 69	
       22 22 F5 F5 F5 F5	
       F5 F5			
 9C40  F5 F5 F5 F5 F5 22	DB 245, 245, 245, 245, 245, 34, 35, 35, 34, 34,
				 34, 34, 34, 34, 34, 34, 34, 35, 34, 106
       23 23 22 22 22 22	
       22 22 22 22 22 23	
       22 6A			
 9C54  69 6A 6A 6B 22 22	DB 105, 106, 106, 107, 34, 34, 34, 105, 105, 10
				5, 106, 107, 107, 34, 34, 34, 34, 35, 35, 34
       22 69 69 69 6A 6B	
       6B 22 22 22 22 23	
       23 22			
 9C68  69 69 6A F5 22 F5	DB 105, 105, 106, 245, 34, 245, 245, 245, 245, 
				245, 245, 245, 245, 245, 245, 34, 34, 34, 34, 3
				4
       F5 F5 F5 F5 F5 F5	
       F5 F5 F5 22 22 22	
       22 22			
 9C7C  22 22 22 22 22 22	DB 34, 34, 34, 34, 34, 34, 34, 34, 35, 106, 105
				, 106, 106, 107, 34, 34, 34, 34, 105, 106
       22 22 23 6A 69 6A	
       6A 6B 22 22 22 22	
       69 6A			
 9C90  6B 6B 22 22 22 22	DB 107, 107, 34, 34, 34, 34, 35, 35, 35, 35, 10
				5, 105, 106, 106, 34, 245, 245, 245, 245, 245
       23 23 23 23 69 69	
       6A 6A 22 F5 F5 F5	
       F5 F5			
 9CA4  F5 F5 F5 F5 F5 22	DB 245, 245, 245, 245, 245, 34, 107, 107, 107, 
				107, 34, 34, 34, 34, 34, 34, 34, 34, 34, 34
       6B 6B 6B 6B 22 22	
       22 22 22 22 22 22	
       22 22			
 9CB8  22 69 6A 6A 6B 22	DB 34, 105, 106, 106, 107, 34, 34, 105, 106, 10
Microsoft (R) Macro Assembler Version 5.10                  12/6/19 16:06:45
                                                             Page     1-218


				6, 107, 107, 34, 34, 34, 34, 35, 35, 35, 105
       22 69 6A 6A 6B 6B	
       22 22 22 22 23 23	
       23 69			
 9CCC  69 6A 6A 6A 22 22	DB 105, 106, 106, 106, 34, 34, 245, 245, 245, 2
				45, 245, 245, 245, 245, 34, 107, 107, 107, 107,
				 107
       F5 F5 F5 F5 F5 F5	
       F5 F5 22 6B 6B 6B	
       6B 6B			
 9CE0  6B 6B 22 6B 22 6B	DB 107, 107, 34, 107, 34, 107, 34, 34, 34, 34, 
				34, 34, 105, 106, 106, 34, 34, 105, 105, 106
       22 22 22 22 22 22	
       69 6A 6A 22 22 69	
       69 6A			
 9CF4  6B 22 22 22 22 23	DB 107, 34, 34, 34, 34, 35, 35, 35, 105, 105, 1
				05, 106, 106, 107, 34, 34, 245, 245, 245, 245
       23 23 69 69 69 6A	
       6A 6B 22 22 F5 F5	
       F5 F5			
 9D08  F5 F5 F5 22 6B 6A	DB 245, 245, 245, 34, 107, 106, 107, 107, 106, 
				106, 106, 107, 107, 107, 107, 107, 107, 34, 34,
				 34
       6B 6B 6A 6A 6A 6B	
       6B 6B 6B 6B 6B 22	
       22 22			
 9D1C  22 22 69 6A 6A 22	DB 34, 34, 105, 106, 106, 34, 34, 105, 106, 107
				, 107, 34, 34, 34, 35, 35, 34, 105, 105, 105
       22 69 6A 6B 6B 22	
       22 22 23 23 22 69	
       69 69			
 9D30  6A 6A 6B 6B 22 22	DB 106, 106, 107, 107, 34, 34, 245, 245, 245, 2
				45, 245, 245, 245, 34, 34, 106, 106, 106, 106, 
				106
       F5 F5 F5 F5 F5 F5	
       F5 22 22 6A 6A 6A	
       6A 6A			
 9D44  6A 6A 6A 6B 6A 6B	DB 106, 106, 106, 107, 106, 107, 107, 107, 34, 
				34, 34, 34, 34, 105, 106, 34, 105, 105, 107, 10
				7
       6B 6B 22 22 22 22	
       22 69 6A 22 69 69	
       6B 6B			
 9D58  6B 22 22 22 23 6A	DB 107, 34, 34, 34, 35, 106, 105, 105, 105, 106
				, 106, 107, 107, 34, 34, 34, 245, 245, 245, 245
       69 69 69 6A 6A 6B	
       6B 22 22 22 F5 F5	
       F5 F5			
 9D6C  F5 F5 22 22 6A 6A	DB 245, 245, 34, 34, 106, 106, 105, 106, 106, 1
				05, 105, 106, 105, 106, 106, 106, 106, 106, 107
				, 107
       69 6A 6A 69 69 6A	
       69 6A 6A 6A 6A 6A	
       6B 6B			
Microsoft (R) Macro Assembler Version 5.10                  12/6/19 16:06:45
                                                             Page     1-219


 9D80  6B 22 22 6A 69 6B	DB 107, 34, 34, 106, 105, 107, 105, 105, 107, 1
				07, 34, 34, 34, 34, 105, 105, 105, 106, 106, 10
				7
       69 69 6B 6B 22 22	
       22 22 69 69 69 6A	
       6A 6B			
 9D94  6B 6B 22 22 22 22	DB 107, 107, 34, 34, 34, 34, 34, 245, 245, 245,
				 245, 245, 245, 34, 105, 105, 105, 105, 105, 10
				5
       22 F5 F5 F5 F5 F5	
       F5 22 69 69 69 69	
       69 69			
 9DA8  69 69 69 69 69 69	DB 105, 105, 105, 105, 105, 105, 106, 106, 106,
				 107, 107, 107, 34, 106, 105, 106, 105, 107, 10
				7, 34
       6A 6A 6A 6B 6B 6B	
       22 6A 69 6A 69 6B	
       6B 22			
 9DBC  22 22 22 69 69 69	DB 34, 34, 34, 105, 105, 105, 106, 107, 107, 10
				7, 107, 34, 34, 34, 34, 34, 35, 245, 245, 245
       6A 6B 6B 6B 6B 22	
       22 22 22 22 23 F5	
       F5 F5			
 9DD0  F5 F5 F5 F5 69 69	DB 245, 245, 245, 245, 105, 105, 105, 34, 105, 
				105, 34, 34, 105, 34, 105, 105, 105, 105, 106, 
				105
       69 22 69 69 22 22	
       69 22 69 69 69 69	
       6A 69			
 9DE4  6B 6B 6A 6A 69 6A	DB 107, 107, 106, 106, 105, 106, 105, 106, 107,
				 34, 34, 34, 105, 105, 106, 106, 107, 107, 107,
				 34
       69 6A 6B 22 22 22	
       69 69 6A 6A 6B 6B	
       6B 22			
 9DF8  22 22 22 22 22 22	DB 34, 34, 34, 34, 34, 34, 34, 245, 245, 245, 2
				45, 245, 245, 34, 105, 35, 35, 34, 35, 35
       22 F5 F5 F5 F5 F5	
       F5 22 69 23 23 22	
       23 23			
 9E0C  23 23 23 22 22 22	DB 35, 35, 35, 34, 34, 34, 105, 34, 105, 105, 1
				05, 106, 105, 106, 105, 105, 106, 106, 107, 34
       69 22 69 69 69 6A	
       69 6A 69 69 6A 6A	
       6B 22			
 9E20  69 69 6A 6A 6B 6B	DB 105, 105, 106, 106, 107, 107, 107, 107, 34, 
				34, 34, 34, 34, 34, 34, 34, 35, 245, 245, 245
       6B 6B 22 22 22 22	
       22 22 22 22 23 F5	
       F5 F5			
 9E34  F5 F5 22 22 23 23	DB 245, 245, 34, 34, 35, 35, 35, 35, 35, 35, 35
				, 35, 34, 34, 34, 34, 34, 34, 34, 34
       23 23 23 23 23 23	
       22 22 22 22 22 22	
Microsoft (R) Macro Assembler Version 5.10                  12/6/19 16:06:45
                                                             Page     1-220


       22 22			
 9E48  6B 6A 69 69 69 69	DB 107, 106, 105, 105, 105, 105, 106, 105, 105,
				 105, 105, 106, 106, 107, 107, 107, 34, 34, 34,
				 34
       6A 69 69 69 69 6A	
       6A 6B 6B 6B 22 22	
       22 22			
 9E5C  22 22 22 22 23 23	DB 34, 34, 34, 34, 35, 35, 34, 34, 245, 245, 24
				5, 245, 34, 35, 35, 35, 35, 34, 35, 34
       22 22 F5 F5 F5 F5	
       22 23 23 23 23 22	
       23 22			
 9E70  22 22 22 22 22 22	DB 34, 34, 34, 34, 34, 34, 34, 34, 107, 107, 10
				6, 106, 106, 105, 105, 105, 105, 105, 105, 106
       22 22 6B 6B 6A 6A	
       6A 69 69 69 69 69	
       69 6A			
 9E84  6A 6B 6B 6B 22 22	DB 106, 107, 107, 107, 34, 34, 34, 34, 34, 34, 
				34, 34, 34, 35, 35, 35, 35, 245, 245, 245
       22 22 22 22 22 22	
       22 23 23 23 23 F5	
       F5 F5			
 9E98  F5 F5 F5 23 23 23	DB 245, 245, 245, 35, 35, 35, 35, 34, 34, 34, 3
				4, 34, 34, 34, 34, 34, 107, 107, 106, 106
       23 22 22 22 22 22	
       22 22 22 22 6B 6B	
       6A 6A			
 9EAC  6A 69 69 69 69 69	DB 106, 105, 105, 105, 105, 105, 105, 106, 106,
				 107, 34, 34, 34, 34, 34, 34, 34, 34, 34, 34
       69 6A 6A 6B 22 22	
       22 22 22 22 22 22	
       22 22			
 9EC0  22 23 23 23 23 23	DB 34, 35, 35, 35, 35, 35, 34, 245, 245, 245, 2
				45, 245, 245, 35, 35, 35, 35, 34, 34, 34
       22 F5 F5 F5 F5 F5	
       F5 23 23 23 23 22	
       22 22			
 9ED4  22 22 22 22 22 22	DB 34, 34, 34, 34, 34, 34, 107, 107, 106, 106, 
				106, 105, 105, 105, 105, 105, 105, 106, 106, 10
				7
       6B 6B 6A 6A 6A 69	
       69 69 69 69 69 6A	
       6A 6B			
 9EE8  22 22 22 22 22 22	DB 34, 34, 34, 34, 34, 34, 34, 34, 34, 34, 34, 
				35, 35, 35, 35, 35, 34, 245, 245, 245
       22 22 22 22 22 23	
       23 23 23 23 22 F5	
       F5 F5			
 9EFC  F5 F5 F5 23 22 22	DB 245, 245, 245, 35, 34, 34, 34, 34, 34, 34, 3
				4, 34, 34, 34, 107, 107, 106, 106, 106, 105
       22 22 22 22 22 22	
       22 22 6B 6B 6A 6A	
       6A 69			
 9F10  6A 6A 6A 6A 69 69	DB 106, 106, 106, 106, 105, 105, 105, 105, 105,
Microsoft (R) Macro Assembler Version 5.10                  12/6/19 16:06:45
                                                             Page     1-221


				 105, 34, 34, 34, 34, 34, 34, 35, 35, 35, 35
       69 69 69 69 22 22	
       22 22 22 22 23 23	
       23 23			
 9F24  23 23 23 23 23 69	DB 35, 35, 35, 35, 35, 105, 245, 34, 245, 245, 
				245, 245, 35, 35, 34, 34, 34, 34, 34, 34
       F5 22 F5 F5 F5 F5	
       23 23 22 22 22 22	
       22 22			
 9F38  22 6B 6B 6B 6A 6A	DB 34, 107, 107, 107, 106, 106, 106, 105, 105, 
				34, 34, 107, 106, 105, 106, 105, 106, 106, 106,
				 105
       6A 69 69 22 22 6B	
       6A 69 6A 69 6A 6A	
       6A 69			
 9F4C  69 69 22 69 22 22	DB 105, 105, 34, 105, 34, 34, 34, 35, 34, 34, 3
				4, 34, 34, 34, 105, 105, 34, 245, 245, 245
       22 23 22 22 22 22	
       22 22 69 69 22 F5	
       F5 F5			
 9F60  F5 F5 F5 22 22 22	DB 245, 245, 245, 34, 34, 34, 34, 34, 34, 107, 
				34, 107, 107, 106, 106, 106, 105, 34, 34, 34
       22 22 22 6B 22 6B	
       6B 6A 6A 6A 69 22	
       22 22			
 9F74  22 6B 6A 6A 6A 69	DB 34, 107, 106, 106, 106, 105, 106, 106, 107, 
				107, 106, 106, 105, 106, 105, 105, 105, 105, 10
				5, 105
       6A 6A 6B 6B 6A 6A	
       69 6A 69 69 69 69	
       69 69			
 9F88  69 69 69 69 69 69	DB 105, 105, 105, 105, 105, 105, 34, 245, 245, 
				245, 245, 245, 245, 34, 34, 34, 34, 34, 107, 10
				7
       22 F5 F5 F5 F5 F5	
       F5 22 22 22 22 22	
       6B 6B			
 9F9C  6B 6A 6A 6A 69 69	DB 107, 106, 106, 106, 105, 105, 34, 34, 34, 34
				, 107, 107, 107, 105, 107, 105, 106, 34, 107, 1
				07
       22 22 22 22 6B 6B	
       6B 69 6B 69 6A 22	
       6B 6B			
 9FB0  6B 6B 6A 6A 6A 69	DB 107, 107, 106, 106, 106, 105, 105, 105, 105,
				 105, 105, 105, 105, 105, 105, 106, 34, 245, 24
				5, 245
       69 69 69 69 69 69	
       69 69 69 6A 22 F5	
       F5 F5			
 9FC4  F5 F5 F5 22 22 22	DB 245, 245, 245, 34, 34, 34, 34, 34, 107, 107,
				 106, 106, 106, 105, 106, 34, 34, 34, 34, 107
       22 22 6B 6B 6A 6A	
       6A 69 6A 22 22 22	
       22 6B			
Microsoft (R) Macro Assembler Version 5.10                  12/6/19 16:06:45
                                                             Page     1-222


 9FD8  6B 6B 69 22 6B 69	DB 107, 107, 105, 34, 107, 105, 105, 34, 34, 34
				, 107, 107, 107, 106, 106, 106, 106, 105, 106, 
				106
       69 22 22 22 6B 6B	
       6B 6A 6A 6A 6A 69	
       6A 6A			
 9FEC  6A 6A 6A 6A 6A F5	DB 106, 106, 106, 106, 106, 245, 34, 245, 245, 
				245, 245, 245, 245, 245, 34, 34, 34, 107, 106, 
				106
       22 F5 F5 F5 F5 F5	
       F5 F5 22 22 22 6B	
       6A 6A			
 A000  6A 69 69 22 22 23	DB 106, 105, 105, 34, 34, 35, 34, 34, 34, 107, 
				107, 106, 105, 105, 34, 106, 105, 105, 34, 34
       22 22 22 6B 6B 6A	
       69 69 22 6A 69 69	
       22 22			
 A014  22 22 6B 6B 6B 6B	DB 34, 34, 107, 107, 107, 107, 107, 106, 107, 1
				06, 106, 106, 106, 106, 106, 34, 245, 245, 245,
				 245
       6B 6A 6B 6A 6A 6A	
       6A 6A 6A 22 F5 F5	
       F5 F5			
 A028  F5 F5 F5 F5 22 22	DB 245, 245, 245, 245, 34, 34, 107, 106, 106, 1
				06, 105, 105, 35, 34, 35, 34, 34, 34, 34, 107
       6B 6A 6A 6A 69 69	
       23 22 23 22 22 22	
       22 6B			
 A03C  6A 6A 69 22 22 6B	DB 106, 106, 105, 34, 34, 107, 106, 34, 34, 34,
				 34, 34, 34, 34, 107, 107, 107, 107, 107, 107
       6A 22 22 22 22 22	
       22 22 6B 6B 6B 6B	
       6B 6B			
 A050  6B 6B 6B 6B 6B 22	DB 107, 107, 107, 107, 107, 34, 34, 245, 245, 2
				45, 245, 245, 245, 245, 34, 107, 106, 106, 106,
				 105
       22 F5 F5 F5 F5 F5	
       F5 F5 22 6B 6A 6A	
       6A 69			
 A064  69 69 23 23 22 22	DB 105, 105, 35, 35, 34, 34, 34, 34, 107, 106, 
				106, 106, 105, 34, 34, 106, 106, 105, 105, 34
       22 22 6B 6A 6A 6A	
       69 22 22 6A 6A 69	
       69 22			
 A078  22 22 22 22 22 22	DB 34, 34, 34, 34, 34, 34, 107, 34, 107, 107, 1
				07, 107, 107, 107, 107, 34, 245, 245, 245, 245
       6B 22 6B 6B 6B 6B	
       6B 6B 6B 22 F5 F5	
       F5 F5			
 A08C  F5 F5 F5 F5 22 22	DB 245, 245, 245, 245, 34, 34, 106, 106, 105, 1
				05, 105, 35, 35, 35, 34, 34, 34, 107, 107, 107
       6A 6A 69 69 69 23	
       23 23 22 22 22 6B	
       6B 6B			
Microsoft (R) Macro Assembler Version 5.10                  12/6/19 16:06:45
                                                             Page     1-223


 A0A0  6A 69 69 22 22 6B	DB 106, 105, 105, 34, 34, 107, 107, 106, 105, 1
				05, 34, 34, 34, 34, 34, 34, 34, 34, 34, 34
       6B 6A 69 69 22 22	
       22 22 22 22 22 22	
       22 22			
 A0B4  22 22 22 22 22 F5	DB 34, 34, 34, 34, 34, 245, 245, 245, 245, 245,
				 245, 245, 245, 245, 245, 34, 106, 105, 105, 10
				5
       F5 F5 F5 F5 F5 F5	
       F5 F5 F5 22 6A 69	
       69 69			
 A0C8  23 23 23 23 22 22	DB 35, 35, 35, 35, 34, 34, 34, 34, 107, 106, 10
				5, 105, 105, 34, 34, 34, 107, 106, 106, 105
       22 22 6B 6A 69 69	
       69 22 22 22 6B 6A	
       6A 69			
 A0DC  6A 23 23 22 22 22	DB 106, 35, 35, 34, 34, 34, 34, 34, 34, 34, 34,
				 34, 34, 34, 34, 245, 245, 245, 245, 245
       22 22 22 22 22 22	
       22 22 22 F5 F5 F5	
       F5 F5			
 A0F0  F5 F5 F5 F5 F5 22	DB 245, 245, 245, 245, 245, 34, 34, 106, 105, 1
				05, 35, 35, 35, 34, 34, 34, 34, 107, 107, 106
       22 6A 69 69 23 23	
       23 22 22 22 22 6B	
       6B 6A			
 A104  6A 69 22 23 22 22	DB 106, 105, 34, 35, 34, 34, 107, 106, 106, 105
				, 105, 34, 35, 35, 35, 34, 34, 34, 34, 34
       6B 6A 6A 69 69 22	
       23 23 23 22 22 22	
       22 22			
 A118  22 22 23 22 22 F5	DB 34, 34, 35, 34, 34, 245, 245, 245, 245, 245,
				 245, 245, 245, 245, 245, 245, 34, 34, 105, 105
       F5 F5 F5 F5 F5 F5	
       F5 F5 F5 F5 22 22	
       69 69			
 A12C  23 23 23 22 22 22	DB 35, 35, 35, 34, 34, 34, 34, 107, 107, 106, 1
				05, 105, 34, 35, 34, 34, 34, 107, 107, 106
       22 6B 6B 6A 69 69	
       22 23 22 22 22 6B	
       6B 6A			
 A140  69 69 23 23 23 23	DB 105, 105, 35, 35, 35, 35, 34, 35, 34, 34, 34
				, 35, 35, 35, 245, 245, 245, 245, 245, 245
       22 23 22 22 22 23	
       23 23 F5 F5 F5 F5	
       F5 F5			
 A154  F5 F5 F5 F5 F5 F5	DB 245, 245, 245, 245, 245, 245, 245, 34, 105, 
				34, 35, 35, 35, 34, 34, 34, 34, 107, 106, 106
       F5 22 69 22 23 23	
       23 22 22 22 22 6B	
       6A 6A			
 A168  69 69 22 23 22 22	DB 105, 105, 34, 35, 34, 34, 34, 107, 107, 106,
				 105, 105, 105, 35, 35, 35, 35, 35, 35, 35
       22 6B 6B 6A 69 69	
Microsoft (R) Macro Assembler Version 5.10                  12/6/19 16:06:45
                                                             Page     1-224


       69 23 23 23 23 23	
       23 23			
 A17C  23 23 23 F5 F5 F5	DB 35, 35, 35, 245, 245, 245, 245, 245, 245, 24
				5, 245, 245, 245, 245, 245, 245, 245, 34, 34, 3
				4
       F5 F5 F5 F5 F5 F5	
       F5 F5 F5 F5 F5 22	
       22 22			
 A190  23 23 22 22 22 22	DB 35, 35, 34, 34, 34, 34, 34, 107, 106, 106, 1
				05, 105, 34, 35, 34, 34, 34, 34, 107, 107
       22 6B 6A 6A 69 69	
       22 23 22 22 22 22	
       6B 6B			
 A1A4  6A 69 69 69 23 23	DB 106, 105, 105, 105, 35, 35, 35, 35, 35, 35, 
				35, 35, 245, 245, 245, 245, 245, 245, 245, 245
       23 23 23 23 23 23	
       F5 F5 F5 F5 F5 F5	
       F5 F5			
 A1B8  F5 F5 F5 F5 F5 F5	DB 245, 245, 245, 245, 245, 245, 245, 245, 34, 
				34, 35, 35, 34, 34, 34, 34, 107, 107, 106, 106
       F5 F5 22 22 23 23	
       22 22 22 22 6B 6B	
       6A 6A			
 A1CC  69 69 22 23 22 22	DB 105, 105, 34, 35, 34, 34, 34, 34, 107, 107, 
				107, 106, 105, 105, 105, 34, 105, 34, 35, 34
       22 22 6B 6B 6B 6A	
       69 69 69 22 69 22	
       23 22			
 A1E0  22 F5 F5 F5 F5 F5	DB 34, 245, 245, 245, 245, 245, 245, 245, 245, 
				245, 245, 245, 245, 245, 245, 245, 245, 245, 24
				5, 245
       F5 F5 F5 F5 F5 F5	
       F5 F5 F5 F5 F5 F5	
       F5 F5			
 A1F4  23 23 23 22 22 22	DB 35, 35, 35, 34, 34, 34, 107, 107, 106, 106, 
				105, 105, 34, 35, 35, 34, 34, 34, 34, 107
       6B 6B 6A 6A 69 69	
       22 23 23 22 22 22	
       22 6B			
 A208  6A 6A 6A 69 69 69	DB 106, 106, 106, 105, 105, 105, 105, 105, 105,
				 34, 245, 245, 245, 245, 245, 245, 245, 245, 24
				5, 245
       69 69 69 22 F5 F5	
       F5 F5 F5 F5 F5 F5	
       F5 F5			
 A21C  F5 F5 F5 F5 F5 F5	DB 245, 245, 245, 245, 245, 245, 245, 245, 245,
				 245, 245, 35, 35, 35, 34, 34, 107, 107, 106, 1
				06
       F5 F5 F5 F5 F5 23	
       23 23 22 22 6B 6B	
       6A 6A			
 A230  69 69 22 23 23 22	DB 105, 105, 34, 35, 35, 34, 34, 34, 34, 34, 10
				7, 107, 106, 106, 106, 105, 245, 34, 34, 34
       22 22 22 22 6B 6B	
Microsoft (R) Macro Assembler Version 5.10                  12/6/19 16:06:45
                                                             Page     1-225


       6A 6A 6A 69 F5 22	
       22 22			
 A244  F5 F5 F5 F5 F5 F5	DB 245, 245, 245, 245, 245, 245, 245, 245, 245,
				 245, 245, 245, 245, 245, 245, 245, 245, 245, 2
				45, 245
       F5 F5 F5 F5 F5 F5	
       F5 F5 F5 F5 F5 F5	
       F5 F5			
 A258  F5 F5 23 23 23 22	DB 245, 245, 35, 35, 35, 34, 107, 107, 106, 106
				, 105, 105, 105, 35, 35, 34, 34, 34, 34, 34
       6B 6B 6A 6A 69 69	
       69 23 23 22 22 22	
       22 22			
 A26C  22 6B 6B 6A 6A 6A	DB 34, 107, 107, 106, 106, 106, 34, 245, 245, 2
				45, 245, 245, 245, 245, 245, 245, 245, 245, 245
				, 245
       22 F5 F5 F5 F5 F5	
       F5 F5 F5 F5 F5 F5	
       F5 F5			
 A280  F5 F5 F5 F5 F5 F5	DB 245, 245, 245, 245, 245, 245, 245, 245, 245,
				 245, 245, 245, 245, 34, 34, 34, 107, 107, 106,
				 106
       F5 F5 F5 F5 F5 F5	
       F5 22 22 22 6B 6B	
       6A 6A			
 A294  6A 69 22 23 23 23	DB 106, 105, 34, 35, 35, 35, 34, 34, 34, 34, 34
				, 34, 107, 107, 34, 34, 34, 245, 245, 245
       22 22 22 22 22 22	
       6B 6B 22 22 22 F5	
       F5 F5			
 A2A8  F5 F5 F5 F5 F5 F5	DB 245, 245, 245, 245, 245, 245, 245, 245, 245,
				 245, 245, 245, 245, 245, 245, 245, 245, 245, 2
				45, 245
       F5 F5 F5 F5 F5 F5	
       F5 F5 F5 F5 F5 F5	
       F5 F5			
 A2BC  F5 F5 F5 F5 22 F5	DB 245, 245, 245, 245, 34, 245, 34, 107, 107, 1
				06, 106, 105, 105, 105, 35, 35, 34, 34, 34, 34
       22 6B 6B 6A 6A 69	
       69 69 23 23 22 22	
       22 22			
 A2D0  22 22 22 22 F5 22	DB 34, 34, 34, 34, 245, 34, 245, 245, 245, 245,
				 245, 245, 245, 245, 245, 245, 245, 245, 245, 2
				45
       F5 F5 F5 F5 F5 F5	
       F5 F5 F5 F5 F5 F5	
       F5 F5			
 A2E4  F5 F5 F5 F5 F5 F5	DB 245, 245, 245, 245, 245, 245, 245, 245, 245,
				 245, 245, 245, 245, 245, 245, 245, 245, 34, 34
				, 34
       F5 F5 F5 F5 F5 F5	
       F5 F5 F5 F5 F5 22	
       22 22			
 A2F8  22 22 F5 F5 22 23	DB 34, 34, 245, 245, 34, 35, 35, 34, 35, 34, 34
Microsoft (R) Macro Assembler Version 5.10                  12/6/19 16:06:45
                                                             Page     1-226


				, 245, 245, 34, 245, 245, 245, 245, 245, 245
       23 22 23 22 22 F5	
       F5 22 F5 F5 F5 F5	
       F5 F5			
 A30C  F5 F5 F5 F5 F5 F5	DB 245, 245, 245, 245, 245, 245, 245, 245, 245,
				 245, 245, 245, 245, 245, 245, 245, 245, 245, 2
				45, 245
       F5 F5 F5 F5 F5 F5	
       F5 F5 F5 F5 F5 F5	
       F5 F5			
 A320  F5 F5 F5 F5 F5 F5	DB 245, 245, 245, 245, 245, 245, 245, 245, 245,
				 245, 34, 34, 245, 34, 34, 34, 245, 35, 35, 245
       F5 F5 F5 F5 22 22	
       F5 22 22 22 F5 23	
       23 F5			
 A334  F5 F5 F5 F5 F5 F5	DB 245, 245, 245, 245, 245, 245, 245, 245, 245,
				 245, 245, 245, 245, 245, 245, 245, 245, 245, 2
				45, 245
       F5 F5 F5 F5 F5 F5	
       F5 F5 F5 F5 F5 F5	
       F5 F5			
 A348  F5 F5 F5 F5 F5 F5	DB 245, 245, 245, 245, 245, 245, 245, 245, 245,
				 245, 245, 245, 245, 245, 245, 245, 245, 245, 2
				45, 245
       F5 F5 F5 F5 F5 F5	
       F5 F5 F5 F5 F5 F5	
       F5 F5			
 A35C  F5 F5 F5 F5 F5 F5	DB 245, 245, 245, 245, 245, 245, 245, 245, 245,
				 245, 245, 245, 245, 245, 245, 245, 245, 245, 2
				45, 245
       F5 F5 F5 F5 F5 F5	
       F5 F5 F5 F5 F5 F5	
       F5 F5			
 A370  F5 F5 F5 F5 F5 F5	DB 245, 245, 245, 245, 245, 245, 245, 245, 245,
				 245, 245, 245, 245, 245, 245, 245, 245, 245, 2
				45, 245
       F5 F5 F5 F5 F5 F5	
       F5 F5 F5 F5 F5 F5	
       F5 F5			
 A384  F5 F5 F5 F5 F5 F5	DB 245, 245, 245, 245, 245, 245, 245, 245, 245,
				 245, 245, 245, 245, 245, 245, 245, 245, 245, 2
				45, 245
       F5 F5 F5 F5 F5 F5	
       F5 F5 F5 F5 F5 F5	
       F5 F5			
 A398  F5 F5 F5 F5 F5 F5	DB 245, 245, 245, 245, 245, 245, 245, 245, 245,
				 245, 245, 245, 245, 245, 245, 245, 245, 245, 2
				45, 245
       F5 F5 F5 F5 F5 F5	
       F5 F5 F5 F5 F5 F5	
       F5 F5			
				
				
 A3AC  F5 F5 00 04 04 04	Bullet_1_Model DB 245, 245, 0, 4, 4, 4, 4, 0, 2
Microsoft (R) Macro Assembler Version 5.10                  12/6/19 16:06:45
                                                             Page     1-227


				45, 245, 245, 4, 0, 40, 40, 40, 40, 15, 4, 245
       04 00 F5 F5 F5 04	
       00 28 28 28 28 0F	
       04 F5			
 A3C0  00 0F 28 28 28 28	DB 0, 15, 40, 40, 40, 40, 40, 40, 15, 0, 0, 15,
				 0, 15, 15, 15, 15, 15, 15, 0
       28 28 0F 00 00 0F	
       00 0F 0F 0F 0F 0F	
       0F 00			
 A3D4  00 28 00 28 28 28	DB 0, 40, 0, 40, 40, 40, 40, 40, 40, 0, 0, 4, 1
				12, 4, 4, 4, 4, 4, 4, 0
       28 28 28 00 00 04	
       70 04 04 04 04 04	
       04 00			
 A3E8  00 04 70 04 04 04	DB 0, 4, 112, 4, 4, 4, 4, 4, 4, 0, 245, 4, 112,
				 4, 4, 4, 4, 4, 4, 245
       04 04 04 00 F5 04	
       70 04 04 04 04 04	
       04 F5			
 A3FC  F5 B8 04 04 04 04	DB 245, 184, 4, 4, 4, 4, 4, 4, 184, 245, 245, 2
				45, 245, 0, 0, 0, 0, 19, 245, 245
       04 04 B8 F5 F5 F5	
       F5 00 00 00 00 13	
       F5 F5			
				
 A410  F5 F5 11 37 37 01	BULLET_2_MODEL DB 245, 245, 17, 55, 55, 1, 1, 1
				99, 245, 245, 245, 55, 103, 55, 55, 55, 55, 0, 
				55, 245
       01 C7 F5 F5 F5 37	
       67 37 37 37 37 00	
       37 F5			
 A424  00 1C 37 37 37 37	DB 0, 28, 55, 55, 55, 55, 55, 55, 15, 0, 0, 30,
				 30, 29, 30, 29, 30, 55, 29, 0
       37 37 0F 00 00 1E	
       1E 1D 1E 1D 1E 37	
       1D 00			
 A438  00 37 37 37 37 37	DB 0, 55, 55, 55, 55, 55, 55, 1, 55, 199, 17, 5
				5, 55, 55, 55, 55, 55, 1, 55, 199
       37 01 37 C7 11 37	
       37 37 37 37 37 01	
       37 C7			
 A44C  11 37 37 37 37 37	DB 17, 55, 55, 55, 55, 55, 55, 1, 55, 17, 245, 
				55, 55, 55, 55, 55, 55, 55, 55, 245
       37 01 37 11 F5 37	
       37 37 37 37 37 37	
       37 F5			
 A460  F5 11 37 37 37 37	DB 245, 17, 55, 55, 55, 55, 55, 55, 245, 245, 2
				45, 245, 245, 17, 17, 0, 0, 245, 245, 245
       37 37 F5 F5 F5 F5	
       F5 11 11 00 00 F5	
       F5 F5			
				
 A474  F5 F5 F5 F5 F5 F5	RED_HEART DB 245, 245, 245, 245, 245, 245, 245,
				 245, 245, 245, 245, 245, 245, 245, 245, 245, 2
Microsoft (R) Macro Assembler Version 5.10                  12/6/19 16:06:45
                                                             Page     1-228


				45, 245, 245, 245
       F5 F5 F5 F5 F5 F5	
       F5 F5 F5 F5 F5 F5	
       F5 F5			
 A488  F5 F5 F5 F5 F5 F5	DB 245, 245, 245, 245, 245, 245, 245, 245, 245,
				 245, 245, 245, 245, 245, 245, 245, 245, 245, 2
				45, 245
       F5 F5 F5 F5 F5 F5	
       F5 F5 F5 F5 F5 F5	
       F5 F5			
 A49C  F5 F5 F5 F5 F5 F5	DB 245, 245, 245, 245, 245, 245, 245, 245, 245,
				 245, 245, 245, 245, 245, 245, 245, 245, 245, 2
				45, 245
       F5 F5 F5 F5 F5 F5	
       F5 F5 F5 F5 F5 F5	
       F5 F5			
 A4B0  F5 F5 F5 F5 F5 04	DB 245, 245, 245, 245, 245, 4, 4, 4, 245, 245, 
				245, 245, 245, 40, 40, 40, 40, 245, 245, 245
       04 04 F5 F5 F5 F5	
       F5 28 28 28 28 F5	
       F5 F5			
 A4C4  F5 F5 F5 04 28 0C	DB 245, 245, 245, 4, 40, 12, 64, 39, 40, 245, 2
				45, 245, 40, 40, 40, 40, 40, 40, 245, 245
       40 27 28 F5 F5 F5	
       28 28 28 28 28 28	
       F5 F5			
 A4D8  F5 F5 04 28 0C 57	DB 245, 245, 4, 40, 12, 87, 88, 39, 40, 4, 245,
				 40, 40, 40, 40, 40, 40, 40, 245, 245
       58 27 28 04 F5 28	
       28 28 28 28 28 28	
       F5 F5			
 A4EC  F5 F5 04 0C 1E 40	DB 245, 245, 4, 12, 30, 64, 40, 40, 40, 40, 40,
				 40, 40, 40, 40, 40, 40, 40, 245, 245
       28 28 28 28 28 28	
       28 28 28 28 28 28	
       F5 F5			
 A500  F5 F5 04 0C 3F 28	DB 245, 245, 4, 12, 63, 40, 40, 40, 40, 40, 40,
				 40, 40, 40, 40, 40, 40, 40, 245, 245
       28 28 28 28 28 28	
       28 28 28 28 28 28	
       F5 F5			
 A514  F5 F5 F5 28 28 28	DB 245, 245, 245, 40, 40, 40, 40, 40, 40, 40, 4
				0, 40, 40, 40, 40, 40, 40, 245, 245, 245
       28 28 28 28 28 28	
       28 28 28 28 28 F5	
       F5 F5			
 A528  F5 F5 F5 F5 28 28	DB 245, 245, 245, 245, 40, 40, 40, 40, 40, 40, 
				40, 40, 40, 40, 40, 40, 4, 245, 245, 245
       28 28 28 28 28 28	
       28 28 28 28 04 F5	
       F5 F5			
 A53C  F5 F5 F5 F5 F5 28	DB 245, 245, 245, 245, 245, 40, 40, 40, 40, 40,
				 40, 40, 40, 40, 40, 40, 245, 245, 245, 245
       28 28 28 28 28 28	
Microsoft (R) Macro Assembler Version 5.10                  12/6/19 16:06:45
                                                             Page     1-229


       28 28 28 28 F5 F5	
       F5 F5			
 A550  F5 F5 F5 F5 F5 04	DB 245, 245, 245, 245, 245, 4, 40, 40, 40, 40, 
				40, 40, 40, 40, 40, 245, 245, 245, 245, 245
       28 28 28 28 28 28	
       28 28 28 F5 F5 F5	
       F5 F5			
 A564  F5 F5 F5 F5 F5 F5	DB 245, 245, 245, 245, 245, 245, 4, 40, 40, 40,
				 40, 40, 40, 40, 245, 245, 245, 245, 245, 245
       04 28 28 28 28 28	
       28 28 F5 F5 F5 F5	
       F5 F5			
 A578  F5 F5 F5 F5 F5 F5	DB 245, 245, 245, 245, 245, 245, 245, 4, 40, 40
				, 40, 40, 40, 245, 245, 245, 245, 245, 245, 245
       F5 04 28 28 28 28	
       28 F5 F5 F5 F5 F5	
       F5 F5			
 A58C  F5 F5 F5 F5 F5 F5	DB 245, 245, 245, 245, 245, 245, 245, 245, 4, 4
				0, 40, 40, 4, 245, 245, 245, 245, 245, 245, 245
       F5 F5 04 28 28 28	
       04 F5 F5 F5 F5 F5	
       F5 F5			
 A5A0  F5 F5 F5 F5 F5 F5	DB 245, 245, 245, 245, 245, 245, 245, 245, 245,
				 4, 40, 4, 245, 245, 245, 245, 245, 245, 245, 2
				45
       F5 F5 F5 04 28 04	
       F5 F5 F5 F5 F5 F5	
       F5 F5			
 A5B4  F5 F5 F5 F5 F5 F5	DB 245, 245, 245, 245, 245, 245, 245, 245, 245,
				 245, 245, 245, 245, 245, 245, 245, 245, 245, 2
				45, 245
       F5 F5 F5 F5 F5 F5	
       F5 F5 F5 F5 F5 F5	
       F5 F5			
 A5C8  F5 F5 F5 F5 F5 F5	DB 245, 245, 245, 245, 245, 245, 245, 245, 245,
				 245, 245, 245, 245, 245, 245, 245, 245, 245, 2
				45, 245
       F5 F5 F5 F5 F5 F5	
       F5 F5 F5 F5 F5 F5	
       F5 F5			
 A5DC  F5 F5 F5 F5 F5 F5	DB 245, 245, 245, 245, 245, 245, 245, 245, 245,
				 245, 245, 245, 245, 245, 245, 245, 245, 245, 2
				45, 245
       F5 F5 F5 F5 F5 F5	
       F5 F5 F5 F5 F5 F5	
       F5 F5			
 A5F0  F5 F5 F5 F5 F5 F5	DB 245, 245, 245, 245, 245, 245, 245, 245, 245,
				 245, 245, 245, 245, 245, 245, 245, 245, 245, 2
				45, 245
       F5 F5 F5 F5 F5 F5	
       F5 F5 F5 F5 F5 F5	
       F5 F5			
				
 A604  F5 F5 F5 F5 F5 F5	WHITE_HEART DB 245, 245, 245, 245, 245, 245, 24
Microsoft (R) Macro Assembler Version 5.10                  12/6/19 16:06:45
                                                             Page     1-230


				5, 245, 245, 245, 245, 245, 245, 245, 245, 245,
				 245, 245, 245, 245
       F5 F5 F5 F5 F5 F5	
       F5 F5 F5 F5 F5 F5	
       F5 F5			
 A618  F5 F5 F5 F5 F5 F5	DB 245, 245, 245, 245, 245, 245, 245, 245, 245,
				 245, 245, 245, 245, 245, 245, 245, 245, 245, 2
				45, 245
       F5 F5 F5 F5 F5 F5	
       F5 F5 F5 F5 F5 F5	
       F5 F5			
 A62C  F5 F5 F5 F5 F5 F5	DB 245, 245, 245, 245, 245, 245, 245, 245, 245,
				 245, 245, 245, 245, 245, 245, 245, 245, 245, 2
				45, 245
       F5 F5 F5 F5 F5 F5	
       F5 F5 F5 F5 F5 F5	
       F5 F5			
 A640  F5 F5 F5 F5 F5 1C	DB 245, 245, 245, 245, 245, 28, 27, 245, 245, 2
				45, 245, 245, 28, 15, 15, 30, 245, 245, 245, 24
				5
       1B F5 F5 F5 F5 F5	
       1C 0F 0F 1E F5 F5	
       F5 F5			
 A654  F5 F5 F5 1D 0F 0F	DB 245, 245, 245, 29, 15, 15, 15, 15, 30, 245, 
				245, 27, 15, 15, 15, 15, 15, 245, 245, 245
       0F 0F 1E F5 F5 1B	
       0F 0F 0F 0F 0F F5	
       F5 F5			
 A668  F5 F5 1E 0F 0F 0F	DB 245, 245, 30, 15, 15, 15, 15, 15, 15, 29, 27
				, 15, 15, 15, 15, 15, 15, 15, 245, 245
       0F 0F 0F 1D 1B 0F	
       0F 0F 0F 0F 0F 0F	
       F5 F5			
 A67C  F5 F5 0F 0F 0F 0F	DB 245, 245, 15, 15, 15, 15, 15, 15, 15, 15, 15
				, 15, 15, 15, 15, 15, 15, 15, 245, 245
       0F 0F 0F 0F 0F 0F	
       0F 0F 0F 0F 0F 0F	
       F5 F5			
 A690  F5 F5 1D 0F 0F 0F	DB 245, 245, 29, 15, 15, 15, 15, 15, 15, 15, 15
				, 15, 15, 15, 15, 15, 15, 15, 245, 245
       0F 0F 0F 0F 0F 0F	
       0F 0F 0F 0F 0F 0F	
       F5 F5			
 A6A4  F5 F5 F5 0F 0F 0F	DB 245, 245, 245, 15, 15, 15, 15, 15, 15, 15, 1
				5, 15, 15, 15, 15, 15, 15, 15, 245, 245
       0F 0F 0F 0F 0F 0F	
       0F 0F 0F 0F 0F 0F	
       F5 F5			
 A6B8  F5 F5 F5 F5 0F 0F	DB 245, 245, 245, 245, 15, 15, 15, 15, 15, 15, 
				15, 15, 15, 15, 15, 15, 15, 245, 245, 245
       0F 0F 0F 0F 0F 0F	
       0F 0F 0F 0F 0F F5	
       F5 F5			
 A6CC  F5 F5 F5 F5 F5 0F	DB 245, 245, 245, 245, 245, 15, 15, 15, 15, 15,
Microsoft (R) Macro Assembler Version 5.10                  12/6/19 16:06:45
                                                             Page     1-231


				 15, 15, 15, 15, 15, 15, 245, 245, 245, 245
       0F 0F 0F 0F 0F 0F	
       0F 0F 0F 0F F5 F5	
       F5 F5			
 A6E0  F5 F5 F5 F5 F5 07	DB 245, 245, 245, 245, 245, 7, 15, 15, 15, 15, 
				15, 15, 15, 15, 30, 245, 245, 245, 245, 245
       0F 0F 0F 0F 0F 0F	
       0F 0F 1E F5 F5 F5	
       F5 F5			
 A6F4  F5 F5 F5 F5 F5 F5	DB 245, 245, 245, 245, 245, 245, 245, 15, 15, 1
				5, 15, 15, 15, 15, 245, 245, 245, 245, 245, 245
       F5 0F 0F 0F 0F 0F	
       0F 0F F5 F5 F5 F5	
       F5 F5			
 A708  F5 F5 F5 F5 F5 F5	DB 245, 245, 245, 245, 245, 245, 245, 245, 29, 
				15, 15, 15, 30, 245, 245, 245, 245, 245, 245, 2
				45
       F5 F5 1D 0F 0F 0F	
       1E F5 F5 F5 F5 F5	
       F5 F5			
 A71C  F5 F5 F5 F5 F5 F5	DB 245, 245, 245, 245, 245, 245, 245, 245, 245,
				 30, 15, 30, 245, 245, 245, 245, 245, 245, 245,
				 245
       F5 F5 F5 1E 0F 1E	
       F5 F5 F5 F5 F5 F5	
       F5 F5			
 A730  F5 F5 F5 F5 F5 F5	DB 245, 245, 245, 245, 245, 245, 245, 245, 245,
				 245, 27, 245, 245, 245, 245, 245, 245, 245, 24
				5, 245
       F5 F5 F5 F5 1B F5	
       F5 F5 F5 F5 F5 F5	
       F5 F5			
 A744  F5 F5 F5 F5 F5 F5	DB 245, 245, 245, 245, 245, 245, 245, 245, 245,
				 245, 245, 245, 245, 245, 245, 245, 245, 245, 2
				45, 245
       F5 F5 F5 F5 F5 F5	
       F5 F5 F5 F5 F5 F5	
       F5 F5			
 A758  F5 F5 F5 F5 F5 F5	DB 245, 245, 245, 245, 245, 245, 245, 245, 245,
				 245, 245, 245, 245, 245, 245, 245, 245, 245, 2
				45, 245
       F5 F5 F5 F5 F5 F5	
       F5 F5 F5 F5 F5 F5	
       F5 F5			
 A76C  F5 F5 F5 F5 F5 F5	DB 245, 245, 245, 245, 245, 245, 245, 245, 245,
				 245, 245, 245, 245, 245, 245, 245, 245, 245, 2
				45, 245
       F5 F5 F5 F5 F5 F5	
       F5 F5 F5 F5 F5 F5	
       F5 F5			
 A780  F5 F5 F5 F5 F5 F5	DB 245, 245, 245, 245, 245, 245, 245, 245, 245,
				 245, 245, 245, 245, 245, 245, 245, 245, 245, 2
				45, 245
       F5 F5 F5 F5 F5 F5	
Microsoft (R) Macro Assembler Version 5.10                  12/6/19 16:06:45
                                                             Page     1-232


       F5 F5 F5 F5 F5 F5	
       F5 F5			
				
 A794  0028			UPPERBOUND_Y DW 40   ;THOSE BOUNDARY VALUES ARE
				 BASED ON 640*400 VIDEO MODE
 A796  0168			LOWERBOUND_Y DW 360
 A798  0000			LEFTBOUND_X DW 0
 A79A  0280			RIGHTBOUND_X DW 640
				
 A79C  00			BUFFER DB 0                    
 A79D  0032			STARTPOS_X_PLAYER1 DW 50
 A79F  0096			STARTPOS_Y_PLAYER1 DW 150
 A7A1  000A			TANK_HP_1 DW 10
 A7A3  0003			TANK_SPEED_1 DW 3
 A7A5  0001			TANK_DMG_1 DW 1                   ;DMG == DAMAG
				E OR STRENGTH                   
 A7A7  0002			ORIENTATION_PLAYER1 DW 2          ; (0 UP, 1 UP
				RIGHT, 2 RIGHT, 3 DOWNRIGHT, 4 DOWN)
				
 A7A9  0064			BULLET_1_START_POSITION_X DW 100  ;THE END POIN
				T OF TANK 1 CANON SPECIFIED ACCORDING TO THE TA
				NK POS AND ORIENTATION
 A7AB  00AF			BULLET_1_START_POSITION_Y DW 175
				
 A7AD  0226			STARTPOS_X_PLAYER2 DW 550
 A7AF  0096			STARTPOS_Y_PLAYER2 DW 150
 A7B1  000A			TANK_HP_2 DW 10
 A7B3  0003			TANK_SPEED_2 DW 3
 A7B5  0001			TANK_DMG_2 DW 1           ;DMG == DAMAGE OR STR
				ENGTH                     
 A7B7  0002			ORIENTATION_PLAYER2 DW 2  ; (0 UP, 1 UPLEFT, 2 
				LEFT, 3 DOWNLEFT, 4 DOWN)
				
 A7B9  0005			HEARTS_1_START_POSITION_X DW 5
 A7BB  000A			HEARTS_1_START_POSITION_Y DW 10
				
 A7BD  01AE			HEARTS_2_START_POSITION_X DW 430
 A7BF  000A			HEARTS_2_START_POSITION_Y DW 10
				
 A7C1  0226			BULLET_2_START_POSITION_X DW 550  ;THE END POIN
				T OF TANK 2 CANON SPECIFIED ACCORDING TO THE TA
				NK POS AND ORIENTATION
 A7C3  00AF			BULLET_2_START_POSITION_Y DW 175
				
 A7C5  0064			BULLET_1_POSITION_X DW 100 ;THE POSITION OF THE
				 BULLET 1 AT ANY TIME AFTER IT IS FIRED
 A7C7  00AF			BULLET_1_POSITION_Y DW 175
 A7C9  0000			BULLET_1_STATUS DW 0  ;BULLET 1 EXISTS OR NOT 0
				 -> NOT EXISTING
 A7CB  0002			BULLET_1_MOTION_TYPE DW 2 ; (0 UP, 1 UPLEFT, 2 
				LEFT, 3 DOWNLEFT, 4 DOWN)
 A7CD  000A			BULLET_1_SPEED DW 10 ;INITIAL BULLET SPEED WITH
				OUT ANY POWERUPS
 A7CF  0000			BULLET_1_SPEED_POWER_NUM DW 0 ;TO KEEP TRACK HO
Microsoft (R) Macro Assembler Version 5.10                  12/6/19 16:06:45
                                                             Page     1-233


				W MANY TIMES PLAYER1 INCREASE HIS BULLET SPEED 
				
 A7D1  0226			BULLET_2_POSITION_X DW 550 ;THE POSITION OF THE
				 BULLET 2 AT ANY TIME AFTER IT IS FIRED
 A7D3  00AF			BULLET_2_POSITION_Y DW 175
 A7D5  0000			BULLET_2_STATUS DW 0  ;BULLET 2 EXISTS OR NOT 0
				 -> NOT EXISTING
 A7D7  0002			BULLET_2_MOTION_TYPE DW 2 ; (0 UP, 1 UPLEFT, 2 
				LEFT, 3 DOWNLEFT, 4 DOWN)
 A7D9  000A			BULLET_2_SPEED DW 10 ;INITIAL BULLET SPEED WITH
				OUT ANY POWERUPS
 A7DB  0000			BULLET_2_SPEED_POWER_NUM DW 0 ;TO KEEP TRACK HO
				W MANY TIMES PLAYER2 INCREASE HIS BULLET SPEED 
				
 A7DD  0002			BULLET_SPEED_POWERUPS DW 2 ;EVERY SPEED POWERUP
				 THE SPEED WILL INCREASE BY 2 (BUT HAVE LIMIT 3
				 TIMES AT MOST)
				
				
 A7DF  0000			STARTPOS_X_GHOST1 DW ?
 A7E1  0000			STARTPOS_Y_GHOST1 DW ?
 A7E3  0000			EXISTS_GHOST1 DW 0   ; 0 DOESN'T EXIST 1 EXISTS
 A7E5  0000			MOTION_GHOST1 DW 0   ; 0 INC X AND Y, 1 INC Y D
				EC X , 2 INC X DEC Y, 3 DEC X AND Y
 A7E7  0000			POWERUP_GHOST1 DW 0  ; 0 INCREASE HP, 1 INCREAS
				E SPEED, 2 INCREASE DAMAGE 
 A7E9  0000			STARTPOS_X_PORTAL1 DW ? ;LOCATION OF THE GHOST 
				PORTAL
 A7EB  0000			STARTPOS_Y_PORTAL1 DW ? ;LOCATION OF THE GHOST 
				PORTAL
 A7ED  00			TYPE_GHOST1 DB 0     ; TO CHOOSE ONE OF THREE S
				HAPES OF GHOSTS  (0, 1, 2)
				
				
 A7EE  0000			STARTPOS_X_GHOST2 DW ?
 A7F0  0000			STARTPOS_Y_GHOST2 DW ?
 A7F2  0000			EXISTS_GHOST2 DW 0   ; 0 DOESN'T EXIST 1 EXISTS
 A7F4  0001			MOTION_GHOST2 DW 1   ; 0 INC X AND Y, 1 INC Y D
				EC X , 2 INC X DEC Y, 3 DEC X AND Y
 A7F6  0001			POWERUP_GHOST2 DW 1  ; 0 INCREASE HP, 1 INCREAS
				E SPEED, 2 INCREASE DAMAGE
 A7F8  0000			STARTPOS_X_PORTAL2 DW ? ;LOCATION OF THE GHOST 
				PORTAL
 A7FA  0000			STARTPOS_Y_PORTAL2 DW ? ;LOCATION OF THE GHOST 
				PORTAL
 A7FC  00			TYPE_GHOST2 DB 0     ;TO CHOOSE ONE OF THREE SH
				PAES OF GHOSTS  (0, 1, 2)
				
				
 A7FD  0000			STARTPOS_X_GHOST3 DW ?
 A7FF  0000			STARTPOS_Y_GHOST3 DW ?
 A801  0000			EXISTS_GHOST3 DW 0   ; 0 DOESN'T EXIST 1 EXISTS
 A803  0002			MOTION_GHOST3 DW 2   ; 0 INC X AND Y, 1 INC Y D
				EC X , 2 INC X DEC Y, 3 DEC X AND Y
Microsoft (R) Macro Assembler Version 5.10                  12/6/19 16:06:45
                                                             Page     1-234


 A805  0002			POWERUP_GHOST3 DW 2  ; 0 INCREASE HP, 1 INCREAS
				E SPEED, 2 INCREASE DAMAGE
 A807  0000			STARTPOS_X_PORTAL3 DW ? ;LOCATION OF THE GHOST 
				PORTAL
 A809  0000			STARTPOS_Y_PORTAL3 DW ? ;LOCATION OF THE GHOST 
				PORTAL
 A80B  0000			TYPE_GHOST3 DW 0     ;TO CHOOSE ONE OF THREE SH
				PAES OF GHOSTS  (0, 1, 2)
				
				
				
 A80D  0078			TIME DW 120           ; TIMER TERMINATES THE GA
				ME WHEN ZERO
 A80F  0004[			TIME_DECIMAL DB 4 DUP('$')    ;FOR DECIMAL REPR
				ESENTAION OF TIME ON SCREEN
	   24			
			 ]	
				
 A813  6255			RANDSEED DW 25173                ;RANDSEED USED
				 FOR RANDOMIZATION
 A815  00			PREV_SYS_SECOND  DB ?
 A816  0000			LOWER4MACRO DW ?
 A818  0000			UPPER4MACRO DW ?
				
				
 A81A  0032			TANKSIZE DW 50       ; SIZE OF ANY DRAWN TANK
 A81C  0032			PORTAL_SIZE DW 50    ;SIZE OF THE GHOST PORTAL 
 A81E  0028			GHOSTSIZE DW 40      ; SIZE OF ANY GHOST
 A820  000A			BULLETSIZE DW 10     ; SIZE OF A BULLET
 A822  0014			HEARTSIZE DW 20      ;SIZE OF A HEART 
				
 A824  0000			WINNER DW ?          ;THE WINNNER PLAYER NUMBER
				
 A826  50 52 45 53 53 20	MENUITEM1 DB 'PRESS F1 TO START CHATTING$'
       46 31 20 54 4F 20	
       53 54 41 52 54 20	
       43 48 41 54 54 49	
       4E 47 24			
 A841  50 52 45 53 53 20	MENUITEM2 DB 'PRESS F2 TO START THE GAME$'
       46 32 20 54 4F 20	
       53 54 41 52 54 20	
       54 48 45 20 47 41	
       4D 45 24			
 A85C  50 52 45 53 53 20	MENUITEM3 DB 'PRESS ESC TO EXIT THE PROGRAM',10
				,13,'$'
       45 53 43 20 54 4F	
       20 45 58 49 54 20	
       54 48 45 20 50 52	
       4F 47 52 41 4D 0A	
       0D 24			
				
				
				;----------------------------------------------
				-----------------------------------------------
Microsoft (R) Macro Assembler Version 5.10                  12/6/19 16:06:45
                                                             Page     1-235


				------------
				.CODE                                          
				       
 0000				MAIN                PROC FAR        
 0000  B8 ---- R		   MOV     AX,@DATA   
 0003  8E D8			   MOV     DS,AX
 0005  8E C0			   MOV     ES,AX      
				 
 0007  E8 1D27 R		 CALL MAIN_MENU
				 
				;{PUT INITIAL VAULE FOR THE SEED
				   
 000A  B4 00			   MOV   AH, 0
 000C  CD 1A			   INT   1AH
 000E  89 16 A813 R		   MOV   RANDSEED, DX    ; SEED WITH THE SYSTEM
				 TIME
				
				;}
 0012				   MAINLOOP:
				   ;{
 0012  B8 4F02			         MOV    AX, 4F02H     ; THIS TO HANDLE 
				FLICKERING WE REOPEN THE VIDEO MODE EVERYTIME 
 0015  BB 0100			         MOV    BX, 100H
 0018  CD 10			         INT    10H
				
				         PRINTNUM     TIME, TIME_DECIMAL    ;ma
				cro to display time
 001A  C6 06 A80F R 30       1	   mov TIME_DECIMAL, '0' 
 001F  C6 06 A810 R 30       1	   mov TIME_DECIMAL + 1, '0' 
 0024  BB 000A               1	   MOV BX, 10 
 0027  BE A80F R             1	   MOV SI, OFFSET TIME_DECIMAL 
 002A  83 C6 03              1	   ADD SI, 3 
 002D  4E                    1	   DEC SI 
 002E  A1 A80D R             1	   MOV AX, TIME 
 0031                        1	   ??0000: 
 0031  2B D2                 1	      SUB DX, DX 
 0033  F7 F3                 1	      DIV BX 
 0035  80 CA 30              1	      OR DL, 30H 
 0038  88 14                 1	      MOV [SI], DL 
 003A  4E                    1	      DEC SI 
 003B  3D 0000               1	      CMP AX, 0 
 003E  77 F1                 1	      JA ??0000 
 0040  B4 02                 1	   MOV AH, 2 
 0042  B6 01                 1	   MOV DH, 1    ;Y POSITION FOR PRINTING 
 0044  B2 23                 1	   MOV DL, 35    ;X POSITION FOR PRINTING 
 0046  CD 10                 1	   INT 10H 
 0048  B4 09                 1	   MOV AH, 9H      ;PRINT THE NUMBER 
 004A  BA A80F R             1	   MOV DX, OFFSET TIME_DECIMAL 
 004D  CD 21                 1	   INT 21H 
 004F  83 3E A80D R 00		         CMP    TIME, 0                    ;END
				 GAME AT TIME 0
 0054  74 71			         JE     ENDPROGRAM1
 0056  B4 2C			         MOV    AH, 2CH
 0058  CD 21			         INT    21H
Microsoft (R) Macro Assembler Version 5.10                  12/6/19 16:06:45
                                                             Page     1-236


 005A  3A 36 A815 R		         CMP    DH, PREV_SYS_SECOND
 005E  74 1B			         JE     NOTIMECHANGE
 0060  83 2E A80D R 01		         SUB    TIME, 1                    ;DEC
				REASE THE 
 0065  A1 A80D R		         MOV    AX, TIME  ;TO CHECK IF 10 DIVID
				ES TIME THEN A NEW WAVE OF GHOST APPEAR
 0068  40			         INC    AX
 0069  B3 05			         MOV    BL, 5
 006B  F6 F3			         DIV    BL
 006D  80 FC 00			         CMP    AH, 0
 0070  75 09			         JNE    NOGHOSTWAVE
				         ;{ IF IT'S TIME FOR NEW WAVE INITIALIZ
				E THEIR POSITIONS
 0072  E8 060A R		               CALL    RANDOMIZE_GHOST1
 0075  E8 0783 R		               CALL    RANDOMIZE_GHOST2
 0078  E8 0907 R		               CALL    RANDOMIZE_GHOST3
				         ;}
				         
				
 007B				         NOTIMECHANGE:
 007B				               NOGHOSTWAVE:
 007B  88 36 A815 R		                     MOV    PREV_SYS_SECOND, DH
				       ;CURRENT SECOND IS PREVIOUS FOR NEXT TIM
				E
				                     
 007F  E8 0B4C R		                     CALL   MOVE_GHOST1
 0082  E8 0C67 R		                     CALL   MOVE_GHOST2
 0085  E8 0D84 R		                     CALL   MOVE_GHOST3
				
				               ;{CHECK FOR COLLISIONS BETWEEN T
				HE GHOSTS AND TANK 1 IF THE GHOST EXISTS
 0088  83 3E A7E3 R 01		                     CMP EXISTS_GHOST1, 1
 008D  75 03			                     JNE SKIP_GHOST1_CHECK1
 008F  E8 173D R		                        CALL CHECK_HIT_GHOST1_T
				ANK1
 0092				                     SKIP_GHOST1_CHECK1:
				
 0092  83 3E A7F2 R 01		                     CMP EXISTS_GHOST2, 1
 0097  75 03			                     JNE SKIP_GHOST2_CHECK1
 0099  E8 17D3 R		                        CALL CHECK_HIT_GHOST2_T
				ANK1
 009C				                     SKIP_GHOST2_CHECK1:
				
 009C  83 3E A801 R 01		                     CMP EXISTS_GHOST3, 1
 00A1  75 03			                     JNE SKIP_GHOST3_CHECK1
 00A3  E8 1869 R		                        CALL CHECK_HIT_GHOST3_T
				ANK1
 00A6				                     SKIP_GHOST3_CHECK1:
				               ;}
				
				               ;{SIMILAR CHECKS FOR COLLISIONS 
				BETWEEN THE GHOSTS AND TANK 2 IF THE GHOST EXIS
				TS
 00A6  83 3E A7E3 R 01		                     CMP EXISTS_GHOST1, 1
Microsoft (R) Macro Assembler Version 5.10                  12/6/19 16:06:45
                                                             Page     1-237


 00AB  75 03			                     JNE SKIP_GHOST1_CHECK2
 00AD  E8 18FF R		                        CALL CHECK_HIT_GHOST1_T
				ANK2
 00B0				                     SKIP_GHOST1_CHECK2:
				
 00B0  83 3E A7F2 R 01		                     CMP EXISTS_GHOST2, 1
 00B5  75 03			                     JNE SKIP_GHOST2_CHECK2
 00B7  E8 1995 R		                        CALL CHECK_HIT_GHOST2_T
				ANK2
 00BA				                     SKIP_GHOST2_CHECK2:
				
 00BA  83 3E A801 R 01		                     CMP EXISTS_GHOST3, 1
 00BF  75 03			                     JNE SKIP_GHOST3_CHECK3
 00C1  E8 1A2B R		                        CALL CHECK_HIT_GHOST3_T
				ANK2
 00C4				                     SKIP_GHOST3_CHECK3:
				               ;}
				
				               ;{USELESS BLOCK TO HANDLE JUMP O
				UT OF RANGE
 00C4  EB 04 90			                  JMP SKIP1
 00C7  E9 0168 R		                  ENDPROGRAM1: JMP ENDPROGRAM
 00CA				                  SKIP1:
				               ;}
 00CA  E8 0DE0 R		                     CALL   DRAW_PORTALS
 00CD  E8 0406 R		                     CALL   DRAW_TANK1
 00D0  E8 0503 R		                     CALL   DRAW_TANK2
 00D3  E8 1AC1 R							      C
				ALL   DRAW_HEALTH_BAR_1
 00D6  E8 1B43 R						      	CALL   
				DRAW_HEALTH_BAR_2
 00D9  E8 0A8B R		                     CALL   DRAW_GHOST1
 00DC  E8 0BA6 R		                     CALL   DRAW_GHOST2
 00DF  E8 0CC3 R		                     CALL   DRAW_GHOST3
 00E2  E8 0F5F R		                     CALL MOVE_BULLET_1
 00E5  E8 10A0 R		                     CALL MOVE_BULLET_2
				
				               ;{BEFORE CHECKING COLLISION WE M
				UST MAKE SURE THE BULLET EXISTS IN THE FIRST PL
				ACE
				                     ;CHECK HITTING ANY GHOST
 00E8  83 3E A7C9 R 01		                     CMP BULLET_1_STATUS,1
 00ED  75 03			                     JNE SKIP_BUL1_CHECKS1
 00EF  E8 1197 R		                           CALL CHECK_HIT_BUL1_
				GHOST1
 00F2				                     SKIP_BUL1_CHECKS1:
				
 00F2  83 3E A7C9 R 01		                     CMP BULLET_1_STATUS,1
 00F7  75 03			                     JNE SKIP_BUL1_CHECKS2
 00F9  E8 125A R		                           CALL CHECK_HIT_BUL1_
				GHOST2
 00FC				                     SKIP_BUL1_CHECKS2:
				
 00FC  83 3E A7C9 R 01		                     CMP BULLET_1_STATUS,1
Microsoft (R) Macro Assembler Version 5.10                  12/6/19 16:06:45
                                                             Page     1-238


 0101  75 03			                     JNE SKIP_BUL1_CHECKS3
 0103  E8 131D R		                           CALL CHECK_HIT_BUL1_
				GHOST3
 0106				                     SKIP_BUL1_CHECKS3:
				                     ;MAKE SURE IT STILL EXISTS
				 CHECK HITTING THE TANK
 0106  83 3E A7C9 R 01		                     CMP BULLET_1_STATUS,1
 010B  75 03			                     JNE SKIP_BUL1_CHECKS4
 010D  E8 1103 R		                           CALL CHECK_HIT_BUL1_
				TANK2
 0110				                     SKIP_BUL1_CHECKS4:
				               ;}
				
				               ;{SIMILAR CHECKS FOR BULLET 2
				                     ;CHECK HITTING ANY GHOST
 0110  83 3E A7D5 R 01		                     CMP BULLET_2_STATUS,1
 0115  75 03			                     JNE SKIP_BUL2_CHECKS1
 0117  E8 1474 R		                           CALL CHECK_HIT_BUL2_
				GHOST1
 011A				                     SKIP_BUL2_CHECKS1:
				
 011A  83 3E A7D5 R 01		                     CMP BULLET_2_STATUS,1
 011F  75 03			                     JNE SKIP_BUL2_CHECKS2
 0121  E8 1537 R		                           CALL CHECK_HIT_BUL2_
				GHOST2
 0124				                     SKIP_BUL2_CHECKS2:
				
 0124  83 3E A7D5 R 01		                     CMP BULLET_2_STATUS,1
 0129  75 03			                     JNE SKIP_BUL2_CHECKS3
 012B  E8 15FA R		                           CALL CHECK_HIT_BUL2_
				GHOST3
 012E				                     SKIP_BUL2_CHECKS3:
				                     ;MAKE SURE IT STILL EXISTS
				 CHECK HITTING THE TANK
 012E  83 3E A7D5 R 01		                     CMP BULLET_2_STATUS,1
 0133  75 03			                     JNE SKIP_BUL2_CHECKS4
 0135  E8 13E0 R		                           CALL CHECK_HIT_BUL2_
				TANK1
 0138				                     SKIP_BUL2_CHECKS4:
				               ;}
				               
				               ;{CHECK IF THE TWO BULLETS COLLI
				DE
 0138  83 3E A7C9 R 01		                     CMP BULLET_1_STATUS,1
 013D  75 0A			                     JNE SKIP_HITTING_CHECK
 013F  83 3E A7D5 R 01		                     CMP BULLET_2_STATUS,1 
 0144  75 03			                     JNE SKIP_HITTING_CHECK
 0146  E8 16BD R		                        CALL BULLETS_HIT
 0149				                     SKIP_HITTING_CHECK:
				               ;}
				
 0149  E8 0EAE R		                     CALL DRAW_BULLET_1
 014C  E8 0FF3 R		                     CALL DRAW_BULLET_2
				                    
Microsoft (R) Macro Assembler Version 5.10                  12/6/19 16:06:45
                                                             Page     1-239


				
				               ;{ DELAY 0.125 SECOND  WHERE DEL
				AY IN MELLISECOND IS CXDX  CX AND MSB AND DX AS
				 LSB
 014F  B9 0000			                     MOV     CX, 00H
 0152  BA C350			                     MOV     DX, 0C350H
 0155  B4 86			                     MOV     AH, 86H
 0157  CD 15			                     INT     15H
				               ;}
				               
				               ;{ IF(USER PRESS ANY KEY)
 0159  B4 01			                     MOV    AH, 1
 015B  CD 16			                     INT    16H
 015D  75 03			                     JNZ    CHECKKEY
				               ;}
 015F  E9 0012 R		                     JMP    MAINLOOP
 0162				            CHECKKEY:
				               ;{
 0162  E8 0312 R		                     CALL   USERINPUT
 0165  E9 0012 R		                     JMP    MAINLOOP
				               ;}
				
				
 0168				            ENDPROGRAM: 
				               ;{       
 0168  A1 A7B1 R		                    MOV AX, TANK_HP_2
 016B  39 06 A7A1 R		                    CMP TANK_HP_1,AX
 016F  74 14			                    JE DRAW_CASE
 0171  77 09			                    JA PLAYER1_WON
 0173  C7 06 A824 R 0002	                    MOV WINNER,2
 0179  EB 07 90			                    JMP RESULT
				
 017C				                    PLAYER1_WON:
 017C  C7 06 A824 R 0001	                    MOV WINNER,1
				
 0182				                    RESULT:
 0182  E8 1BC8 R		                    CALL PLAYER_LOST
				
 0185				                  DRAW_CASE :
				                  ;(
				                    DRAW 60,60,205,220,04
 0185  50                    1	PUSH AX 
 0186  51                    1	PUSH CX 
 0187  52                    1	PUSH DX 
 0188  53                    1	PUSH BX 
 0189  56                    1	PUSH SI 
 018A  57                    1	PUSH DI 
 018B  BA 00DC               1	    MOV DX,220 ; Y = 250 
 018E  B9 00CD               1	    MOV CX,205 ; X = 400 
 0191  B0 04                 1	    MOV AL,04 
 0193  B4 0C                 1	    MOV AH,0CH 
 0195                        1	    ??0001: 
 0195                        1	        ??0002: 
 0195  CD 10                 1	                INT 10H 
Microsoft (R) Macro Assembler Version 5.10                  12/6/19 16:06:45
                                                             Page     1-240


 0197  83 C1 32              1	                ADD CX, 60 - 10 
 019A  CD 10                 1	                INT 10H 
 019C                        1	         ??0004: 
 019C  83 E9 32              1	         SUB CX,60 - 10 
 019F  42                    1	        INC DX 
 01A0  81 FA 0118            1	        CMP DX,220 + 60 
 01A4  75 EF                 1	        JNZ ??0002 
 01A6  BA 00DC               1	    MOV DX,220 
 01A9  41                    1	    INC CX 
 01AA  81 F9 00D7            1	    CMP CX,205 + 10 
 01AE  75 E5                 1	    JNZ ??0001 
 01B0  B9 00CD               1	    MOV CX,205 
 01B3  BA 00DC               1	    MOV DX,220 
 01B6                        1	    ??0005: 
 01B6                        1	        ??0007: 
 01B6  CD 10                 1	            INT 10H 
 01B8  83 C2 32              1	            ADD DX,60 - 10 
 01BB  CD 10                 1	            INT 10H 
 01BD  83 EA 32              1	            SUB DX, 60 - 10 
 01C0  41                    1	        INC CX 
 01C1  81 F9 0109            1	        CMP CX,205 + 60 
 01C5  75 EF                 1	        JNZ ??0007 
 01C7  B9 00CD               1	    MOV CX,205 
 01CA  42                    1	    INC DX 
 01CB  81 FA 00E6            1	    CMP DX,220 +  10 
 01CF  75 E5                 1	    JNZ ??0005 
 01D1  B9 0109               1	    MOV CX,205 + 60 
 01D4  BA 00DC               1	    MOV DX,220 
 01D7  BE 00DC               1	    MOV SI,220 
 01DA                        1	    ??0009: 
 01DA                        1	        ??000A: 
 01DA  CD 10                 1	            INT 10H 
 01DC  41                    1	            INC CX 
 01DD  42                    1	            INC DX 
 01DE  81 F9 010E            1	            CMP CX,205 + 60 + 5 
 01E2  75 F6                 1	        JNZ ??000A 
 01E4  83 C6 01              1	            ADD SI,1 
 01E7  B9 0109               1	            MOV CX,205 + 60 
 01EA  8B D6                 1	            MOV DX,SI 
 01EC  81 FA 00EA            1	            CMP DX,220 + 14 
 01F0  75 E8                 1	    JNZ ??0009 
 01F2  B9 0109               1	    MOV CX,205 + 60 
 01F5  BA 0118               1	    MOV DX,220 + 60 
 01F8  BE 0118               1	    MOV SI,220 + 60 
 01FB                        1	    ??0006: 
 01FB                        1	        ??0008: 
 01FB  CD 10                 1	            INT 10H 
 01FD  41                    1	            INC CX 
 01FE  4A                    1	            DEC DX 
 01FF  81 F9 010E            1	            CMP CX,205 + 60 + 5 
 0203  75 F6                 1	        JNZ ??0008 
 0205  4E                    1	            DEC SI 
 0206  B9 0109               1	            MOV CX,205 + 60 
 0209  8B D6                 1	            MOV DX,SI 
Microsoft (R) Macro Assembler Version 5.10                  12/6/19 16:06:45
                                                             Page     1-241


 020B  81 FA 010A            1	            CMP DX,220 + 60 -  14 
 020F  75 EA                 1	    JNZ ??0006 
 0211  B9 0109               1	    MOV CX,205 + 60 
 0214  BA 00E6               1	    MOV DX,220 + 10 
 0217                        1	    ??000C: 
 0217                        1	        COLDD: 
 0217  CD 10                 1	                INT 10H 
 0219  42                    1	        INC DX 
 021A  81 FA 010E            1	        CMP DX,220 + 60 - 10 
 021E  75 F7                 1	        JNZ COLDD 
 0220  BA 00E6               1	    MOV DX,220 +10 
 0223  41                    1	    INC CX 
 0224  81 F9 010E            1	    CMP CX,205 + 60 + 5 
 0228  75 ED                 1	    JNZ ??000C 
 022A  B9 0118               1	    MOV CX,205 + 60 + 15 
 022D  BA 00DC               1	    MOV DX, 220 
 0230                        1	    ??000E: 
 0230                        1	        COLRAW: 
 0230  CD 10                 1	            INT 10H 
 0232  83 C1 32              1	            ADD CX,60 - 10 
 0235  81 FA 00F5            1	                    CMP DX,220 +25 
 0239  77 05                 1	                    JA ??000D 
 023B  CD 10                 1	                    INT 10H 
 023D  EB 09 90              1	                    JMP CN 
 0240  81 FA 00FA            1	                    ??000D: CMP DX,220 + 30 
 0244  72 02                 1	                    JB CN 
 0246  CD 10                 1	                    INT 10H 
 0248                        1	        CN: 
 0248  83 C1 14              1	            ADD CX,20 
 024B  CD 10                 1	            INT 10H 
 024D  83 C1 32              1	            ADD CX,60 -10 
 0250  CD 10                 1	            INT 10H 
 0252  83 C1 14              1	            ADD CX,20 
 0255  CD 10                 1	            INT 10H 
 0257  83 C1 1E              1	            ADD CX,60/2 
 025A  83 E9 05              1	            SUB CX,5 
 025D  CD 10                 1	            INT 10H 
 025F  83 E9 1E              1	            SUB CX,60/2 
 0262  83 C1 05              1	            ADD CX,5 
 0265  83 C1 32              1	            ADD CX,60 -10 
 0268  CD 10                 1	            INT 10H 
 026A  81 E9 00BE            1	         SUB CX, 3*60 + 10 
 026E  42                    1	        INC DX 
 026F  81 FA 0118            1	        CMP DX,220 + 60 
 0273  75 BB                 1	        JNZ COLRAW 
 0275  BA 00DC               1	    MOV DX,220 
 0278  41                    1	    INC CX 
 0279  81 F9 0122            1	    CMP CX,205 + 60 + 25 
 027D  75 B1                 1	    JNZ ??000E 
 027F  B9 0118               1	    MOV CX,205 + 60 + 15 
 0282  BA 00DC               1	    MOV DX, 220 
 0285                        1	    ??0010: 
 0285                        1	        ??000F: 
 0285  CD 10                 1	        INT 10H 
Microsoft (R) Macro Assembler Version 5.10                  12/6/19 16:06:45
                                                             Page     1-242


 0287  83 C2 14              1	            ADD DX,20 
 028A  81 F9 014F            1	                CMP CX,205 + 2 * 60 + 10 
 028E  77 05                 1	                JA ??0011 
 0290  CD 10                 1	                INT 10H 
 0292  EB 11 90              1	                JMP ??0012 
 0295  81 FA 00F5            1	                ??0011: CMP DX,220 + 25 
 0299  77 0A                 1	                JA ??0012 
 029B  CD 10                 1	                INT 10H 
 029D  81 FA 00FF            1	                ??0015: CMP DX,220 + 35 
 02A1  72 02                 1	                JB ??0012 
 02A3  CD 10                 1	                INT 10H 
 02A5  83 C2 0A              1	                ??0012: ADD DX,10 
 02A8  81 F9 014F            1	                CMP CX,205 + 2*60 + 10 
 02AC  77 05                 1	                JA ??0016 
 02AE  CD 10                 1	                INT 10H 
 02B0  EB 11 90              1	                JMP ??0013 
 02B3  81 FA 00F5            1	                ??0016: CMP DX,220 + 25 
 02B7  77 02                 1	                JA ??0014 
 02B9  CD 10                 1	                INT 10H 
 02BB  81 FA 00FF            1	                ??0014: CMP DX,220 + 35 
 02BF  72 02                 1	                JB ??0013 
 02C1  CD 10                 1	                INT 10H 
 02C3                        1	            ??0013: 
 02C3  83 EA 1E              1	            SUB DX,30 
 02C6  83 C1 46              1	                ADD CX,60 + 10 
 02C9  CD 10                 1	                INT 10H 
 02CB  83 C2 1E              1	                ADD DX,60/2 
 02CE  CD 10                 1	                INT 10H 
 02D0  83 C2 14              1	                ADD DX,60/2 -10 
 02D3  83 C1 46              1	                ADD CX,60 + 10 
 02D6  CD 10                 1	                INT 10H 
 02D8  81 E9 008C            1	                SUB CX,2*60 + 20 
 02DC  83 EA 32              1	                SUB DX,60 -10 
 02DF  41                    1	        INC CX 
 02E0  81 F9 0154            1	        CMP CX,205 + 2* 60 + 15 
 02E4  75 9F                 1	        JNZ ??000F 
 02E6  B9 0118               1	    MOV CX,205 + 60 + 15 
 02E9  42                    1	    INC DX 
 02EA  81 FA 00E6            1	    CMP DX,220 + 10 
 02EE  75 95                 1	    JNZ ??0010 
 02F0  5F                    1	POP DI 
 02F1  5E                    1	POP SI 
 02F2  5B                    1	POP BX 
 02F3  5A                    1	POP DX 
 02F4  59                    1	POP CX 
 02F5  58                    1	POP AX 
 02F6  B4 4C			                    MOV    AH,4CH
 02F8  CD 21			                    INT    21H
				                  ;)  
				               ;}
 02FA				MAIN                ENDP   
				
				;----------------------------------------------
				--------------------------------------
Microsoft (R) Macro Assembler Version 5.10                  12/6/19 16:06:45
                                                             Page     1-243


				;  _    _   _____  ______  _____    _____  _   
				_  _____   _    _  _______  
				; | |  | | / ____||  ____||  __ \  |_   _|| \ |
				 ||  __ \ | |  | ||__   __| 
				; | |  | || (___  | |__   | |__) |   | |  |  \|
				 || |__) || |  | |   | |    
				; | |  | | \___ \ |  __|  |  _  /    | |  | . `
				 ||  ___/ | |  | |   | |    
				; | |__| | ____) || |____ | | \ \   _| |_ | |\ 
				 || |     | |__| |   | |    
				;  \____/ |_____/ |______||_|  \_\ |_____||_| \
				_||_|      \____/    |_|    
				;----------------------------------------------
				--------------------------------------         
				                                               
				                 
				                                               
				                           
				
				;----------------------------------------------
				--------------------------
				; CLEARS KEYBOARD BUFFER
				;----------------------------------------------
				----------------------------
 02FA				CLEARKEYBOARDBUFFER		PROC	NEAR
 02FA  50				PUSH		AX
 02FB  06				PUSH		ES
 02FC  B8 0000				MOV		AX, 0000H
 02FF  8E C0				MOV		ES, AX
 0301  26: C7 06 041A 041E		MOV		ES:[041AH], 041EH
 0308  26: C7 06 041C 041E		MOV		ES:[041CH], 041EH
								; CLEARS KEYBOA
				RD BUFFER
 030F  07				POP		ES
 0310  58				POP		AX
 0311  C3				RET
 0312				CLEARKEYBOARDBUFFER		ENDP 
				
				;----------------------------------------------
				--------------------------
				; TAKE ACTION BASED ON USER INPUT
				;----------------------------------------------
				----------------------------
 0312				USERINPUT PROC 
				;{    
				      ;{SAVE DATA
 0312  50			         PUSH    AX
 0313  53			         PUSH    BX
 0314  51			         PUSH    CX
 0315  52			         PUSH    DX
				      ;}
				      ;{ TAKE THE USER INPUT FROM THE KEYBOARD 
				BUFFER
 0316  B4 00			         MOV    AH, 0
Microsoft (R) Macro Assembler Version 5.10                  12/6/19 16:06:45
                                                             Page     1-244


 0318  CD 16			         INT    16H      
 031A  E8 02FA R		         CALL   CLEARKEYBOARDBUFFER  
				      ;} 
				   
 031D				      MOVEUP1:
				      ;{
 031D  3C 77			         CMP    AL, 'w' 
 031F  75 17			         JNE    MOVEDOWN1
 0321  8B 0E A79F R		         MOV    CX, STARTPOS_Y_PLAYER1
 0325  8B 1E A794 R		         MOV    BX, UPPERBOUND_Y
 0329  2B CB			         SUB    CX, BX
 032B  83 F9 03			         CMP    CX, 3  ;CURRENT Y DISTANCE TO T
				HE BOUNDARY VS REMAINING DISTANCE TO THE BOUNDA
				RY
 032E  7C 4A			         JL     BACKTOMAINLOOP_1
 0330  83 2E A79F R 03		         SUB    STARTPOS_Y_PLAYER1, 3
 0335  EB 43 90			         JMP    BACKTOMAINLOOP_1     
				      ;}
				      
 0338				      MOVEDOWN1:
				      ;{
 0338  3C 73			         CMP    AL, 's' 
 033A  75 1B			         JNE    ORIENT_UP1
 033C  8B 0E A79F R		         MOV    CX, STARTPOS_Y_PLAYER1
 0340  03 0E A81A R		         ADD    CX, TANKSIZE    ;GET THE Y COOR
				DINATE OF THE LOWEST POINT OF THE TANK
 0344  8B 1E A796 R		         MOV    BX, LOWERBOUND_Y
 0348  2B D9			         SUB    BX, CX
 034A  83 FB 03			         CMP    BX, 3  ;CURRENT Y DISTANCE TO T
				HE BOUNDARY VS REMAINING DISTANCE TO THE BOUNDA
				RY
 034D  7C 2B			         JL     BACKTOMAINLOOP_1
 034F  83 06 A79F R 03		         ADD    STARTPOS_Y_PLAYER1, 3
 0354  EB 24 90			         JMP    BACKTOMAINLOOP_1 
				      ;}
				      
 0357				      ORIENT_UP1:
				      ;{
 0357  3C 71			         CMP    AL, 'q' 
 0359  75 0F			         JNE    ORIENT_DOWN1
 035B  83 3E A7A7 R 00		         CMP    ORIENTATION_PLAYER1, 0
 0360  74 18			         JE     BACKTOMAINLOOP_1
 0362  83 2E A7A7 R 01		         SUB    ORIENTATION_PLAYER1, 1 
 0367  EB 11 90			         JMP    BACKTOMAINLOOP_1
				      ;}
				   
 036A				      ORIENT_DOWN1:
				      ;{
 036A  3C 65			         CMP    AL, 'e' 
 036C  75 0F			         JNE    FIREBULLET1
 036E  83 3E A7A7 R 04		         CMP    ORIENTATION_PLAYER1, 4
 0373  74 05			         JE     BACKTOMAINLOOP_1
 0375  83 06 A7A7 R 01		         ADD    ORIENTATION_PLAYER1, 1 
 037A				         BACKTOMAINLOOP_1:      ;JUST A MIDDLE 
Microsoft (R) Macro Assembler Version 5.10                  12/6/19 16:06:45
                                                             Page     1-245


				JUMP TO USE IT FOR THE PREVIOUS LABELS
 037A  E9 0401 R		         JMP    BACKTOMAINLOOP         
				      ;}
				
 037D				      FIREBULLET1:
				      ;{
 037D  3C 20			         CMP AL, 32 
 037F  75 06			         JNE MOVEUP2
 0381  E8 0E7D R		         CALL FIRE_BULLET_1
 0384  EB 7B 90			         JMP BACKTOMAINLOOP
				      ;}
				
 0387				      MOVEUP2:
				      ;{
 0387  3C 69			         CMP    AL, 'i' 
 0389  75 17			         JNE    MOVEDOWN2
 038B  8B 0E A7AF R		         MOV    CX, STARTPOS_Y_PLAYER2
 038F  8B 1E A794 R		         MOV    BX, UPPERBOUND_Y
 0393  2B CB			         SUB    CX, BX
 0395  83 F9 03			         CMP    CX, 3  ;CURRENT Y DISTANCE TO T
				HE BOUNDARY VS REMAINING DISTANCE TO THE BOUNDA
				RY
 0398  7C 67			         JL     BACKTOMAINLOOP
 039A  83 2E A7AF R 03		         SUB    STARTPOS_Y_PLAYER2, 3
 039F  EB 60 90			         JMP    BACKTOMAINLOOP   
				      ;}
				      
 03A2				      MOVEDOWN2:
				      ;{
 03A2  3C 6B			         CMP    AL, 'k' 
 03A4  75 1B			         JNE    ORIENT_UP2
 03A6  8B 0E A7AF R		         MOV    CX, STARTPOS_Y_PLAYER2
 03AA  03 0E A81A R		         ADD    CX, TANKSIZE    ;GET THE Y COOR
				DINATE OF THE LOWEST POINT OF THE TANK
 03AE  8B 1E A796 R		         MOV    BX, LOWERBOUND_Y
 03B2  2B D9			         SUB    BX, CX
 03B4  83 FB 03			         CMP    BX, 3  ;CURRENT Y DISTANCE TO T
				HE BOUNDARY VS REMAINING DISTANCE TO THE BOUNDA
				RY
 03B7  7C 48			         JL     BACKTOMAINLOOP
 03B9  83 06 A7AF R 03		         ADD    STARTPOS_Y_PLAYER2, 3
 03BE  EB 41 90			         JMP    BACKTOMAINLOOP 
				      ;}
				      
 03C1				      ORIENT_UP2:
				      ;{
 03C1  3C 6F			         CMP    AL, 'o' 
 03C3  75 0F			         JNE    ORIENT_DOWN2
 03C5  83 3E A7B7 R 00		         CMP    ORIENTATION_PLAYER2, 0
 03CA  74 35			         JE     BACKTOMAINLOOP
 03CC  83 2E A7B7 R 01		         SUB    ORIENTATION_PLAYER2, 1 
 03D1  EB 2E 90			         JMP    BACKTOMAINLOOP
				      ;}
				
Microsoft (R) Macro Assembler Version 5.10                  12/6/19 16:06:45
                                                             Page     1-246


 03D4				      ORIENT_DOWN2:
				      ;{
 03D4  3C 75			         CMP    AL, 'u' 
 03D6  75 0F			         JNE    FIRE_BULLET_2
 03D8  83 3E A7B7 R 04		         CMP    ORIENTATION_PLAYER2, 4
 03DD  74 22			         JE     BACKTOMAINLOOP
 03DF  83 06 A7B7 R 01		         ADD    ORIENTATION_PLAYER2, 1 
 03E4  EB 1B 90			         JMP    BACKTOMAINLOOP          
				      ;}
				
 03E7				      FIRE_BULLET_2:
				      ;{
 03E7  3C 0D			         CMP AL , 13
 03E9  75 06			         JNE EXITPROG
 03EB  E8 0FC2 R		         CALL FIRE_BULLET2
 03EE  EB 11 90			         JMP BACKTOMAINLOOP
				      ;}
				
 03F1				      EXITPROG:
				      ;{
 03F1  3C 1B			         CMP    AL,1BH
 03F3  75 0C			         JNE    BACKTOMAINLOOP
 03F5  B8 4F02			         MOV    AX, 4F02H     ; THIS TO HANDLE 
				FLICKERING WE REOPEN THE VIDEO MODE EVERYTIME 
 03F8  BB 0100			         MOV    BX, 100H
 03FB  CD 10			         INT    10H
 03FD  B4 4C			         MOV    AH, 4CH
 03FF  CD 21			         INT    21H
				      ;}
				
				      ;{RETURN STORED DATA
 0401				         BACKTOMAINLOOP:
 0401  5A			         POP DX
 0402  59			         POP CX
 0403  5B			         POP BX
 0404  58			         POP AX
				      ;}   
 0405  C3			RET
 0406				USERINPUT		ENDP 
				;----------------------------------------------
				------------------------------
				;  _______         _   _  _  __
				; |__   __| /\    | \ | || |/ /
				;    | |   /  \   |  \| || ' / 
				;    | |  / /\ \  | . ` ||  <  
				;    | | / ____ \ | |\  || . \ 
				;    |_|/_/    \_\|_| \_||_|\_\
				;----------------------------------------------
				------------------------------                 
				             
				;----------------------------------------------
				----------------------------
				; DRAWS THE FIRST PLAYER'S TANK
				;----------------------------------------------
Microsoft (R) Macro Assembler Version 5.10                  12/6/19 16:06:45
                                                             Page     1-247


				---------------------------
				
 0406				DRAW_TANK1 PROC 
				;{
				    ;{SAVE DATA  
 0406  50			      PUSH   AX
 0407  53			      PUSH   BX
 0408  51			      PUSH    CX
 0409  52			      PUSH   DX
				   ;}
				   
				   ;{;TO STORE THE TANK SIZE TO BE SENT TO THE 
				DRAWING MACRO
 040A  8B 1E A81A R		      MOV    BX, TANKSIZE    
 040E  83 3E A7A7 R 00		      CMP    ORIENTATION_PLAYER1, 0
 0413  75 27			      JNE    UPRIGHT
				   ;}
				
				   ;{ IF(ORIENTATION IS UP)
 0415  BE 30D4 R		      MOV    SI, OFFSET BITMAP_UP_PLAYER1
				      
				      ;SET BULLET 1 STARTING POSITION X,Y
 0418  8B C3			      MOV AX, BX ;GET HALF THE TANK SIZE 
 041A  D1 E8			      SHR AX , 1    
 041C  8B 16 A79D R		      MOV DX, STARTPOS_X_PLAYER1
 0420  03 D0			      ADD DX, AX    ;ADD HALF THE SIZE OF THE T
				ANK TO THE START REACH THE MIDPOINT OF THE UPPE
				R EDGE
 0422  A1 A820 R		      MOV AX ,BULLETSIZE ;DIVIDE BULLET SIZE BY
				 2
 0425  D1 E8			      SHR AX, 1      
 0427  2B D0			      SUB DX, AX    ;SUBTRACT HALF THE BULLET S
				IZE TO GET TO THE BULLETSTART POS STARTPOS_X_PL
				AYER1
 0429  89 16 A7A9 R		      MOV BULLET_1_START_POSITION_X,DX
 042D  8B 0E A79F R		      MOV CX, STARTPOS_Y_PLAYER1
 0431  2B 0E A820 R		      SUB CX, BULLETSIZE   ;BULLET DRAWING STAR
				TING POINT IS ABOVE THE CANON BY BULLET SIZE
 0435  89 0E A7AB R		      MOV BULLET_1_START_POSITION_Y, CX
				
 0439  E9 04D5 R		      JMP    DRAWTANK 
				   ;}
 043C				   UPRIGHT:
				      ;{   
 043C  83 3E A7A7 R 01		         CMP    ORIENTATION_PLAYER1, 1
 0441  75 1C			         JNE    RIGHT
				            ;{ IF(ORIENTATION IS UPRIGHT)
 0443  BE 57E4 R		               MOV    SI, OFFSET BITMAP_UPRIGHT
				_PLAYER1
				
				               ;SET BULLET 1 STARTING POSITION 
				X,Y
 0446  8B 16 A79D R		               MOV DX, STARTPOS_X_PLAYER1
 044A  03 D3			               ADD DX, BX  ;MOVE TO THE TOP RIG
Microsoft (R) Macro Assembler Version 5.10                  12/6/19 16:06:45
                                                             Page     1-248


				HT VERTIX BY ADDING TANK SIZE
 044C  89 16 A7A9 R		               MOV BULLET_1_START_POSITION_X, D
				X
 0450  8B 16 A79F R		               MOV DX, STARTPOS_Y_PLAYER1
 0454  2B 16 A820 R		               SUB DX, BULLETSIZE
 0458  89 16 A7AB R		               MOV BULLET_1_START_POSITION_Y, D
				X ;BULLET DRAWING STARTING POINT IS ABOVE THE C
				ANON BY BULLET SIZE
				
 045C  EB 77 90			               JMP    DRAWTANK  
				            ;}
				      ;}
 045F				   RIGHT:
				   ;{
 045F  83 3E A7A7 R 02		         CMP    ORIENTATION_PLAYER1, 2
 0464  75 2A			         JNE    DOWNRIGHT
				         ;{ IF(ORIENTATION IS RIGHT)
 0466  BE 445C R		            MOV    SI, OFFSET BITMAP_RIGHT_PLAY
				ER1
				
				            ;SET BULLET 1 STARTING POSITION X,Y
 0469  8B 16 A79D R		            MOV DX, STARTPOS_X_PLAYER1
 046D  03 D3			            ADD DX , BX   ;ADD THE TANK SIZE TO
				 REACH THE TOP RIGHT VERTIX
 046F  89 16 A7A9 R		            MOV BULLET_1_START_POSITION_X, DX
 0473  8B C3			            MOV AX , BX ;GET HALF THE TANK SIZE
 0475  D1 E8			            SHR AX, 1 
 0477  8B D0			            MOV DX, AX
 0479  A1 A820 R		            MOV AX, BULLETSIZE
 047C  D1 E8			            SHR AX, 1
 047E  2B D0			            SUB DX, AX  ;SUBTRACT HALF THE BULL
				ETSIZE TO REACH TOP LEFT VERTIX OF THE BULLET
 0480  83 EA 06			            SUB DX, 6   ;A RANDOM NUMBER TO MAK
				E THE BULLET GET OUT OF THE CANON NOT BELOW IT 
 0483  8B 0E A79F R		            MOV CX, STARTPOS_Y_PLAYER1
 0487  03 CA			            ADD CX, DX
 0489  89 0E A7AB R		            MOV BULLET_1_START_POSITION_Y, CX  
				           
				            
 048D  EB 46 90			              JMP DRAWTANK
				         ;}
				   ;}
 0490				   DOWNRIGHT:
				   ;{
 0490  83 3E A7A7 R 03		         CMP    ORIENTATION_PLAYER1, 3
 0495  75 1A			         JNE    DOWN1
				         ;{ IF(ORIENTATION IS DOWNRIGHT)
 0497  BE 4E20 R		            MOV    SI, OFFSET BITMAP_DOWNRIGHT_
				PLAYER1
				
				            ;SET BULLET 1 STARTING POSITION X,Y
 049A  8B 16 A79D R		            MOV DX, STARTPOS_X_PLAYER1
 049E  03 D3			            ADD DX, BX ;ADD TANK SIZE TO REACH 
				THE TOP RIGHT VERTIX OF THE TANK
Microsoft (R) Macro Assembler Version 5.10                  12/6/19 16:06:45
                                                             Page     1-249


 04A0  89 16 A7A9 R		            MOV BULLET_1_START_POSITION_X, DX
 04A4  8B 16 A79F R		            MOV DX, STARTPOS_Y_PLAYER1
 04A8  03 D3			            ADD DX, BX ;ADD THE TANK SIZE IN Y 
				TO GO TO THE BOTTOM LEFT VERTIX
 04AA  89 16 A7AB R		            MOV BULLET_1_START_POSITION_Y, DX
				            
 04AE  EB 25 90			            JMP DRAWTANK  
				         ;}
				   ;}
				
				    
 04B1				   DOWN1:
				   ;{
 04B1  BE 3A98 R		         MOV    SI, OFFSET BITMAP_DOWN_PLAYER1
				
				         ;SET BULLET 1 STARTING POSITION X,Y
 04B4  8B C3			         MOV AX , BX ;GET HALF THE TANK SIZE
 04B6  D1 E8			         SHR AX,1
 04B8  8B D0			         MOV DX, AX
 04BA  A1 A820 R		         MOV AX, BULLETSIZE
 04BD  D1 E8			         SHR AX,1
 04BF  2B D0			         SUB DX, AX  ;SUBTRACT HALF THE BULLETS
				IZE TO REACH TOP LEFT VERTIX OF THE BULLET
 04C1  8B 0E A79D R		         MOV CX, STARTPOS_X_PLAYER1
 04C5  03 CA			         ADD CX, DX
 04C7  89 0E A7A9 R		         MOV BULLET_1_START_POSITION_X, CX
 04CB  8B 16 A79F R		         MOV DX,STARTPOS_Y_PLAYER1
 04CF  03 D3			         ADD DX, BX  ;ADD TANK SIZE TO REACH TH
				E BOTTOM END
 04D1  89 16 A7AB R		         MOV BULLET_1_START_POSITION_Y, DX     
				         
				   ;}
 04D5				   DRAWTANK:
				   ;{
				         DRAW_OBJECT    TANKSIZE, SI, STARTPOS_
				X_PLAYER1, STARTPOS_Y_PLAYER1
 04D5  51                    1	   PUSH CX 
 04D6  53                    1	   PUSH BX 
 04D7  8B F6                 1	   MOV SI, SI  ;TAKE THE RIGHT BITMAP FROM A RE
				GISTER CONTAINING THE OFFSET 
 04D9  8B 16 A79F R          1	   MOV     DX, STARTPOS_Y_PLAYER1     ; Y TO ST
				ART DRAWING AT 
 04DD  8B 2E A81A R          1	   MOV BP, TANKSIZE 
 04E1  8A 3C                 1	   MOV BH, [SI] 
 04E3                        1	   ??0018:;{ FOR(BP = 50; BD > 0; BP--) 
 04E3  8B 0E A79D R          1	      MOV     CX, STARTPOS_X_PLAYER1    ; X TO 
				START 
 04E7  8B 3E A81A R          1	      MOV DI, TANKSIZE 
 04EB                        1	      ??0017:;{ FOR(DX = 50; DX > 0; DX--) 
 04EB  AC                    1	         LODSB              ; FETCH COLOR FOR T
				HIS PIXEL 
 04EC  3A F8                 1	         CMP BH ,AL 
 04EE  74 04                 1	         JE ??0019 
 04F0  B4 0C                 1	         MOV     AH, 0CH    ; AH=0CH IS BIOS.WR
Microsoft (R) Macro Assembler Version 5.10                  12/6/19 16:06:45
                                                             Page     1-250


				ITEPIXEL 
 04F2  CD 10                 1	         INT     10H 
 04F4                        1	         ??0019: 
 04F4  41                    1	         INC     CX         ; NEXT X POSITION 
 04F5  4F                    1	         DEC     DI 
 04F6  75 F3                 1	         JNZ     ??0017 
 04F8  42                    1	      INC     DX         ; NEXT Y POSITION 
 04F9  4D                    1	      DEC     BP 
 04FA  75 E7                 1	      JNZ     ??0018 
 04FC  5B                    1	      POP BX 
 04FD  59                    1	      POP CX 
				   ;}
				   ;{GET DATA STORED
 04FE  5A			      POP DX
 04FF  59			      POP CX
 0500  5B			      POP BX
 0501  58			      POP AX
				   ;}
 0502  C3			RET
				;}
 0503				DRAW_TANK1	ENDP
				
				;----------------------------------------------
				----------------------------
				; DRAWS THE SECOND PLAYER'S TANK
				;----------------------------------------------
				---------------------------
				
 0503				DRAW_TANK2 PROC 
				;{
				   ;{STORE DATA
 0503  50			      PUSH    AX
 0504  53			      PUSH    BX
 0505  51			      PUSH    CX
 0506  52			      PUSH    DX
				   ;}   
 0507  8B 1E A81A R		   MOV    BX, TANKSIZE    ;TO STORE THE TANK SI
				ZE TO BE SENT TO THE DRAWING MACRO
 050B  83 3E A7B7 R 00		   CMP    ORIENTATION_PLAYER2, 0
 0510  75 27			   JNE    UPLEFT
				   ;{ IF(ORIENTATION IS UP)
 0512  BE 1388 R		      MOV    SI, OFFSET BITMAP_UP_PLAYER2 
				
				      ;SET BULLET 2 STARTING POSITION X,Y
 0515  8B C3			      MOV AX, BX ;GET HALF THE TANK SIZE 
 0517  D1 E8			      SHR AX , 1    
 0519  8B 16 A7AD R		      MOV DX, STARTPOS_X_PLAYER2
 051D  03 D0			      ADD DX, AX    ;ADD HALF THE SIZE OF THE T
				ANK TO THE START REACH THE MIDPOINT OF THE UPPE
				R EDGE
 051F  A1 A820 R		      MOV AX ,BULLETSIZE ;DIVIDE BULLET SIZE BY
				 2
 0522  D1 E8			      SHR AX, 1      
 0524  2B D0			      SUB DX, AX    ;SUBTRACT HALF THE BULLET S
Microsoft (R) Macro Assembler Version 5.10                  12/6/19 16:06:45
                                                             Page     1-251


				IZE TO GET TO THE BULLETSTART POS STARTPOS_X_PL
				AYER1
 0526  89 16 A7C1 R		      MOV BULLET_2_START_POSITION_X,DX
 052A  8B 0E A7AF R		      MOV CX, STARTPOS_Y_PLAYER2
 052E  2B 0E A820 R		      SUB CX, BULLETSIZE   ;BULLET DRAWING STAR
				TING POINT IS ABOVE THE CANON BY BULLET SIZE
 0532  89 0E A7C3 R		      MOV BULLET_2_START_POSITION_Y, CX
				      
 0536  E9 05DC R		      JMP    DRAWTANK2
				   ;}
 0539				   UPLEFT: 
				   ;{  
 0539  83 3E A7B7 R 01		      CMP    ORIENTATION_PLAYER2, 1
 053E  75 1E			      JNE    LEFT
				         ;{ IF(ORIENTATION IS UPLEFT)
 0540  BE 09C4 R		            MOV    SI, OFFSET BITMAP_UPLEFT_PLA
				YER2
				
				            ;SET BULLET 2 STARTING POSITION X,Y
 0543  8B 16 A820 R		            MOV DX, BULLETSIZE
 0547  8B 0E A7AD R		            MOV CX, STARTPOS_X_PLAYER2
 054B  2B CA			            SUB CX, DX 
 054D  89 0E A7C1 R		            MOV BULLET_2_START_POSITION_X, CX
 0551  8B 0E A7AF R		            MOV CX, STARTPOS_Y_PLAYER2
 0555  2B CA			            SUB CX , DX 
 0557  89 0E A7C3 R		            MOV BULLET_2_START_POSITION_Y, CX
				            
 055B  EB 7F 90			            JMP    DRAWTANK2  
				         ;}
				   ;}
 055E				   LEFT:
				   ;{
 055E  83 3E A7B7 R 02		      CMP    ORIENTATION_PLAYER2, 2
 0563  75 2E			      JNE    DOWNLEFT
				         ;{ IF(ORIENTATION IS LEFT)
 0565  BE 0000 R		            MOV    SI, OFFSET BITMAP_LEFT_PLAYE
				R2
				
				            ;SET BULLET 2 STARTING POSITION X,Y
 0568  8B 16 A820 R		            MOV DX, BULLETSIZE
 056C  8B 0E A7AD R		            MOV CX, STARTPOS_X_PLAYER2 
 0570  2B CA			            SUB CX, DX                    ;SUBT
				RACT BULLET SIZE TO REACH THE TOP LEFT CORNER O
				F THE BULLET GRID
 0572  89 0E A7C1 R		            MOV BULLET_2_START_POSITION_X, CX
				
 0576  8B C3			            MOV AX , BX ;GET HALF THE TANK SIZE
 0578  D1 E8			            SHR AX, 1 
 057A  8B D0			            MOV DX, AX
 057C  A1 A820 R		            MOV AX, BULLETSIZE
 057F  D1 E8			            SHR AX, 1
 0581  2B D0			            SUB DX, AX  ;SUBTRACT HALF THE BULL
				ETSIZE TO REACH TOP LEFT VERTIX OF THE BULLET
 0583  83 EA 06			            SUB DX, 6   ;A RANDOM NUMBER TO MAK
Microsoft (R) Macro Assembler Version 5.10                  12/6/19 16:06:45
                                                             Page     1-252


				E THE BULLET GET OUT OF THE CANON NOT BELOW IT 
 0586  8B 0E A7AF R		            MOV CX, STARTPOS_Y_PLAYER2
 058A  03 CA			            ADD CX, DX
 058C  89 0E A7C3 R		            MOV BULLET_2_START_POSITION_Y, CX  
				
 0590  EB 4A 90			            JMP    DRAWTANK2  
				         ;}
				   ;}   
 0593				   DOWNLEFT:
				   ;{
 0593  83 3E A7B7 R 03		      CMP    ORIENTATION_PLAYER2, 3
 0598  75 1E			      JNE    DOWN2
				         ;{ IF(ORIENTATION IS DOWNLEFT)
 059A  BE 1D4C R		            MOV    SI, OFFSET BITMAP_DOWNLEFT_P
				LAYER2
				
				            ;SET BULLET 2 STARTING POSITION X,Y
 059D  8B 16 A820 R		            MOV DX, BULLETSIZE
 05A1  8B 0E A7AD R		            MOV CX, STARTPOS_X_PLAYER2
 05A5  2B CA			            SUB CX, DX        ;SUBTRACT BULLET 
				SIZE FROM STATRING POSITION TO REACH TOP LEFT V
				ERTIX OF THE BULLET GRID
 05A7  89 0E A7C1 R		            MOV BULLET_2_START_POSITION_X, CX
 05AB  8B 0E A7AF R		            MOV CX, STARTPOS_Y_PLAYER2
 05AF  03 CB			            ADD CX, BX
 05B1  89 0E A7C3 R		            MOV BULLET_2_START_POSITION_Y, CX
				
 05B5  EB 25 90			            JMP    DRAWTANK2  
				         ;}
				   ;}
 05B8				   DOWN2:
				   ;{
 05B8  BE 2710 R		      MOV    SI, OFFSET BITMAP_DOWN_PLAYER2
				
				      ;SET BULLET 2 STARTING POSITION X,Y
 05BB  8B C3			      MOV AX , BX ;GET HALF THE TANK SIZE
 05BD  D1 E8			      SHR AX,1
 05BF  8B D0			      MOV DX, AX
 05C1  A1 A820 R		      MOV AX, BULLETSIZE
 05C4  D1 E8			      SHR AX,1
 05C6  2B D0			      SUB DX, AX  ;SUBTRACT HALF THE BULLETSIZE
				 TO REACH TOP LEFT VERTIX OF THE BULLET
 05C8  8B 0E A7AD R		      MOV CX, STARTPOS_X_PLAYER2
 05CC  03 CA			      ADD CX, DX
 05CE  89 0E A7C1 R		      MOV BULLET_2_START_POSITION_X, CX
 05D2  8B 16 A7AF R		      MOV DX,STARTPOS_Y_PLAYER2
 05D6  03 D3			      ADD DX, BX  ;ADD TANK SIZE TO REACH THE B
				OTTOM END
 05D8  89 16 A7C3 R		      MOV BULLET_2_START_POSITION_Y, DX
				
				   ;}
 05DC				   DRAWTANK2:
				   ;{
				      DRAW_OBJECT     TANKSIZE, SI, STARTPOS_X_
Microsoft (R) Macro Assembler Version 5.10                  12/6/19 16:06:45
                                                             Page     1-253


				PLAYER2, STARTPOS_Y_PLAYER2
 05DC  51                    1	   PUSH CX 
 05DD  53                    1	   PUSH BX 
 05DE  8B F6                 1	   MOV SI, SI  ;TAKE THE RIGHT BITMAP FROM A RE
				GISTER CONTAINING THE OFFSET 
 05E0  8B 16 A7AF R          1	   MOV     DX, STARTPOS_Y_PLAYER2     ; Y TO ST
				ART DRAWING AT 
 05E4  8B 2E A81A R          1	   MOV BP, TANKSIZE 
 05E8  8A 3C                 1	   MOV BH, [SI] 
 05EA                        1	   ??001B:;{ FOR(BP = 50; BD > 0; BP--) 
 05EA  8B 0E A7AD R          1	      MOV     CX, STARTPOS_X_PLAYER2    ; X TO 
				START 
 05EE  8B 3E A81A R          1	      MOV DI, TANKSIZE 
 05F2                        1	      ??001A:;{ FOR(DX = 50; DX > 0; DX--) 
 05F2  AC                    1	         LODSB              ; FETCH COLOR FOR T
				HIS PIXEL 
 05F3  3A F8                 1	         CMP BH ,AL 
 05F5  74 04                 1	         JE ??001C 
 05F7  B4 0C                 1	         MOV     AH, 0CH    ; AH=0CH IS BIOS.WR
				ITEPIXEL 
 05F9  CD 10                 1	         INT     10H 
 05FB                        1	         ??001C: 
 05FB  41                    1	         INC     CX         ; NEXT X POSITION 
 05FC  4F                    1	         DEC     DI 
 05FD  75 F3                 1	         JNZ     ??001A 
 05FF  42                    1	      INC     DX         ; NEXT Y POSITION 
 0600  4D                    1	      DEC     BP 
 0601  75 E7                 1	      JNZ     ??001B 
 0603  5B                    1	      POP BX 
 0604  59                    1	      POP CX 
				   ;}
				   ;{GET DATA SOTRED
 0605  5A			      POP    DX
 0606  59			      POP    CX
 0607  5B			      POP    BX
 0608  58			      POP    AX
				   ;}
 0609  C3			RET
				;}
 060A				DRAW_TANK2	ENDP
				;----------------------------------------------
				---------------------------------
				;   _____  _    _   ____    _____  _______ 
				;  / ____|| |  | | / __ \  / ____||__   __|
				; | |  __ | |__| || |  | || (___     | |   
				; | | |_ ||  __  || |  | | \___ \    | |   
				; | |__| || |  | || |__| | ____) |   | |   
				;  \_____||_|  |_| \____/ |_____/    |_|   
				;----------------------------------------------
				---------------------------------
				;----------------------------------------------
				----------------------------
				; MAKES RANDOM PLACE FOR THE FIRST GHOST
				;----------------------------------------------
Microsoft (R) Macro Assembler Version 5.10                  12/6/19 16:06:45
                                                             Page     1-254


				---------------------------
 060A				RANDOMIZE_GHOST1 PROC
				;{
				   ;{
 060A  50			      PUSH   AX
 060B  53			      PUSH   BX
 060C  51			      PUSH   CX
 060D  52			      PUSH   DX
				   ;}
 060E  C7 06 A7E3 R 0001	   MOV    EXISTS_GHOST1, 1
				   RANDOMIZE 0, 3, MOTION_GHOST1, RANDSEED
 0614  50                    1	   PUSH     AX 
 0615  53                    1	   PUSH     BX 
 0616  51                    1	   PUSH     CX 
 0617  52                    1	   PUSH     DX 
 0618  B8 6255               1	   MOV     AX, 25173          ; LCG MULTIPLIER 
 061B  F7 26 A813 R          1	   MUL     WORD PTR RANDSEED      ;DX:AX = LCG 
				MULTIPLIER * SEED 
 061F  05 3619               1	   ADD     AX, 13849          ; ADD LCG INCREME
				NT VALUE 
 0622  39 06 A813 R          1	   CMP     RANDSEED, AX 
 0626  75 08                 1	   JNE     ??001D 
 0628  B4 00                 1	   MOV     AH, 0 
 062A  CD 1A                 1	   INT     1AH 
 062C  89 16 A813 R          1	   MOV     RANDSEED, DX    ; SEED WITH THE SYST
				EM TIME 
 0630                        1	   ??001D: 
 0630  A3 A813 R             1	   MOV     RANDSEED, AX          ; UPDATE SEED 
				= RETURN VALUE 
 0633  2B D2                 1	   SUB      DX, DX 
 0635  B9 0003               1	   MOV      CX, 3 
 0638  41                    1	   INC      CX 
 0639  83 E9 00              1	   SUB      CX, 0 
 063C  83 F9 00              1	   CMP CX, 0 
 063F  74 02                 1	   JE ??001E 
 0641  F7 F1                 1	   DIV      CX     ;THIS DIVIDES AX/CX AND THE 
				REMAINDER IS AT DX(NUMBER WITHIN RANGE OF THE S
				UBTRACTION UPPER - LOWER) 
 0643                        1	   ??001E: 
 0643  83 C2 00              1	   ADD      DX, 0 
 0646  89 16 A7E5 R          1	   MOV      MOTION_GHOST1, DX 
 064A  5A                    1	   POP      DX 
 064B  59                    1	   POP      CX 
 064C  5B                    1	   POP      BX 
 064D  58                    1	   POP      AX 
				   RANDOMIZE 0, 2, POWERUP_GHOST1, RANDSEED
 064E  50                    1	   PUSH     AX 
 064F  53                    1	   PUSH     BX 
 0650  51                    1	   PUSH     CX 
 0651  52                    1	   PUSH     DX 
 0652  B8 6255               1	   MOV     AX, 25173          ; LCG MULTIPLIER 
 0655  F7 26 A813 R          1	   MUL     WORD PTR RANDSEED      ;DX:AX = LCG 
				MULTIPLIER * SEED 
 0659  05 3619               1	   ADD     AX, 13849          ; ADD LCG INCREME
Microsoft (R) Macro Assembler Version 5.10                  12/6/19 16:06:45
                                                             Page     1-255


				NT VALUE 
 065C  39 06 A813 R          1	   CMP     RANDSEED, AX 
 0660  75 08                 1	   JNE     ??001F 
 0662  B4 00                 1	   MOV     AH, 0 
 0664  CD 1A                 1	   INT     1AH 
 0666  89 16 A813 R          1	   MOV     RANDSEED, DX    ; SEED WITH THE SYST
				EM TIME 
 066A                        1	   ??001F: 
 066A  A3 A813 R             1	   MOV     RANDSEED, AX          ; UPDATE SEED 
				= RETURN VALUE 
 066D  2B D2                 1	   SUB      DX, DX 
 066F  B9 0002               1	   MOV      CX, 2 
 0672  41                    1	   INC      CX 
 0673  83 E9 00              1	   SUB      CX, 0 
 0676  83 F9 00              1	   CMP CX, 0 
 0679  74 02                 1	   JE ??0020 
 067B  F7 F1                 1	   DIV      CX     ;THIS DIVIDES AX/CX AND THE 
				REMAINDER IS AT DX(NUMBER WITHIN RANGE OF THE S
				UBTRACTION UPPER - LOWER) 
 067D                        1	   ??0020: 
 067D  83 C2 00              1	   ADD      DX, 0 
 0680  89 16 A7E7 R          1	   MOV      POWERUP_GHOST1, DX 
 0684  5A                    1	   POP      DX 
 0685  59                    1	   POP      CX 
 0686  5B                    1	   POP      BX 
 0687  58                    1	   POP      AX 
				   RANDOMIZE 0, 2, TYPE_GHOST1, RANDSEED 
 0688  50                    1	   PUSH     AX 
 0689  53                    1	   PUSH     BX 
 068A  51                    1	   PUSH     CX 
 068B  52                    1	   PUSH     DX 
 068C  B8 6255               1	   MOV     AX, 25173          ; LCG MULTIPLIER 
 068F  F7 26 A813 R          1	   MUL     WORD PTR RANDSEED      ;DX:AX = LCG 
				MULTIPLIER * SEED 
 0693  05 3619               1	   ADD     AX, 13849          ; ADD LCG INCREME
				NT VALUE 
 0696  39 06 A813 R          1	   CMP     RANDSEED, AX 
 069A  75 08                 1	   JNE     ??0021 
 069C  B4 00                 1	   MOV     AH, 0 
 069E  CD 1A                 1	   INT     1AH 
 06A0  89 16 A813 R          1	   MOV     RANDSEED, DX    ; SEED WITH THE SYST
				EM TIME 
 06A4                        1	   ??0021: 
 06A4  A3 A813 R             1	   MOV     RANDSEED, AX          ; UPDATE SEED 
				= RETURN VALUE 
 06A7  2B D2                 1	   SUB      DX, DX 
 06A9  B9 0002               1	   MOV      CX, 2 
 06AC  41                    1	   INC      CX 
 06AD  83 E9 00              1	   SUB      CX, 0 
 06B0  83 F9 00              1	   CMP CX, 0 
 06B3  74 02                 1	   JE ??0022 
 06B5  F7 F1                 1	   DIV      CX     ;THIS DIVIDES AX/CX AND THE 
				REMAINDER IS AT DX(NUMBER WITHIN RANGE OF THE S
				UBTRACTION UPPER - LOWER) 
Microsoft (R) Macro Assembler Version 5.10                  12/6/19 16:06:45
                                                             Page     1-256


 06B7                        1	   ??0022: 
 06B7  83 C2 00              1	   ADD      DX, 0 
 06BA  89 16 A7ED R          1	   MOV      TYPE_GHOST1, DX 
main.ASM(2967): warning A4031: Operand types must match
 06BE  5A                    1	   POP      DX 
 06BF  59                    1	   POP      CX 
 06C0  5B                    1	   POP      BX 
 06C1  58                    1	   POP      AX 
				
				   ;{  TO START APPROX IN THE MIDDLE
 06C2  A1 A796 R		   MOV AX, LOWERBOUND_Y
 06C5  03 06 A794 R		   ADD AX, UPPERBOUND_Y
 06C9  D1 E8			   SHR AX, 1
 06CB  8B D8			   MOV BX, AX
 06CD  2D 0014			   SUB AX, 20
 06D0  83 C3 14			   ADD BX, 20
 06D3  A3 A816 R		   MOV LOWER4MACRO, AX      
 06D6  89 1E A818 R		   MOV UPPER4MACRO, BX     
				   ;}
				
				   
				   RANDOMIZE LOWER4MACRO, UPPER4MACRO, STARTPOS
				_Y_GHOST1, RANDSEED
 06DA  50                    1	   PUSH     AX 
 06DB  53                    1	   PUSH     BX 
 06DC  51                    1	   PUSH     CX 
 06DD  52                    1	   PUSH     DX 
 06DE  B8 6255               1	   MOV     AX, 25173          ; LCG MULTIPLIER 
 06E1  F7 26 A813 R          1	   MUL     WORD PTR RANDSEED      ;DX:AX = LCG 
				MULTIPLIER * SEED 
 06E5  05 3619               1	   ADD     AX, 13849          ; ADD LCG INCREME
				NT VALUE 
 06E8  39 06 A813 R          1	   CMP     RANDSEED, AX 
 06EC  75 08                 1	   JNE     ??0023 
 06EE  B4 00                 1	   MOV     AH, 0 
 06F0  CD 1A                 1	   INT     1AH 
 06F2  89 16 A813 R          1	   MOV     RANDSEED, DX    ; SEED WITH THE SYST
				EM TIME 
 06F6                        1	   ??0023: 
 06F6  A3 A813 R             1	   MOV     RANDSEED, AX          ; UPDATE SEED 
				= RETURN VALUE 
 06F9  2B D2                 1	   SUB      DX, DX 
 06FB  8B 0E A818 R          1	   MOV      CX, UPPER4MACRO 
 06FF  41                    1	   INC      CX 
 0700  2B 0E A816 R          1	   SUB      CX, LOWER4MACRO 
 0704  83 F9 00              1	   CMP CX, 0 
 0707  74 02                 1	   JE ??0024 
 0709  F7 F1                 1	   DIV      CX     ;THIS DIVIDES AX/CX AND THE 
				REMAINDER IS AT DX(NUMBER WITHIN RANGE OF THE S
				UBTRACTION UPPER - LOWER) 
 070B                        1	   ??0024: 
 070B  03 16 A816 R          1	   ADD      DX, LOWER4MACRO 
 070F  89 16 A7E1 R          1	   MOV      STARTPOS_Y_GHOST1, DX 
 0713  5A                    1	   POP      DX 
 0714  59                    1	   POP      CX 
Microsoft (R) Macro Assembler Version 5.10                  12/6/19 16:06:45
                                                             Page     1-257


 0715  5B                    1	   POP      BX 
 0716  58                    1	   POP      AX 
				
				
				    ;{  TO START APPROX IN THE MIDDLE
 0717  A1 A79A R		   MOV AX, RIGHTBOUND_X
 071A  03 06 A798 R		   ADD AX, LEFTBOUND_X
 071E  D1 E8			   SHR AX, 1
 0720  8B D8			   MOV BX, AX
 0722  2D 0014			   SUB AX, 20
 0725  83 C3 14			   ADD BX, 20
 0728  A3 A816 R		   MOV LOWER4MACRO, AX      
 072B  89 1E A818 R		   MOV UPPER4MACRO, BX     
				   ;}
				
				   
				   RANDOMIZE LOWER4MACRO, UPPER4MACRO, STARTPOS
				_X_GHOST1, RANDSEED
 072F  50                    1	   PUSH     AX 
 0730  53                    1	   PUSH     BX 
 0731  51                    1	   PUSH     CX 
 0732  52                    1	   PUSH     DX 
 0733  B8 6255               1	   MOV     AX, 25173          ; LCG MULTIPLIER 
 0736  F7 26 A813 R          1	   MUL     WORD PTR RANDSEED      ;DX:AX = LCG 
				MULTIPLIER * SEED 
 073A  05 3619               1	   ADD     AX, 13849          ; ADD LCG INCREME
				NT VALUE 
 073D  39 06 A813 R          1	   CMP     RANDSEED, AX 
 0741  75 08                 1	   JNE     ??0025 
 0743  B4 00                 1	   MOV     AH, 0 
 0745  CD 1A                 1	   INT     1AH 
 0747  89 16 A813 R          1	   MOV     RANDSEED, DX    ; SEED WITH THE SYST
				EM TIME 
 074B                        1	   ??0025: 
 074B  A3 A813 R             1	   MOV     RANDSEED, AX          ; UPDATE SEED 
				= RETURN VALUE 
 074E  2B D2                 1	   SUB      DX, DX 
 0750  8B 0E A818 R          1	   MOV      CX, UPPER4MACRO 
 0754  41                    1	   INC      CX 
 0755  2B 0E A816 R          1	   SUB      CX, LOWER4MACRO 
 0759  83 F9 00              1	   CMP CX, 0 
 075C  74 02                 1	   JE ??0026 
 075E  F7 F1                 1	   DIV      CX     ;THIS DIVIDES AX/CX AND THE 
				REMAINDER IS AT DX(NUMBER WITHIN RANGE OF THE S
				UBTRACTION UPPER - LOWER) 
 0760                        1	   ??0026: 
 0760  03 16 A816 R          1	   ADD      DX, LOWER4MACRO 
 0764  89 16 A7DF R          1	   MOV      STARTPOS_X_GHOST1, DX 
 0768  5A                    1	   POP      DX 
 0769  59                    1	   POP      CX 
 076A  5B                    1	   POP      BX 
 076B  58                    1	   POP      AX 
				  
				   ;{GHOST PORTAL LOCATION
Microsoft (R) Macro Assembler Version 5.10                  12/6/19 16:06:45
                                                             Page     1-258


 076C  A1 A7DF R		   MOV AX, STARTPOS_X_GHOST1
 076F  2D 000A			   SUB AX, 10
 0772  A3 A7E9 R		   MOV STARTPOS_X_PORTAL1, AX
 0775  A1 A7E1 R		   MOV AX, STARTPOS_Y_GHOST1
 0778  2D 000A			   SUB AX, 10
 077B  A3 A7EB R		   MOV STARTPOS_Y_PORTAL1, AX 
				   ;}
				
 077E  5A			   POP DX
 077F  59			   POP CX
 0780  5B			   POP BX
 0781  58			   POP AX 
 0782  C3			   RET
				;} 
 0783				RANDOMIZE_GHOST1 ENDP
				
				;----------------------------------------------
				----------------------------
				; MAKES RANDOM PLACE FOR THE SECOND GHOST
				;----------------------------------------------
				---------------------------
				
 0783				RANDOMIZE_GHOST2 PROC
				;{
 0783  50			   PUSH AX
 0784  53			   PUSH BX
 0785  51			   PUSH CX
 0786  52			   PUSH DX
				
 0787  C7 06 A7F2 R 0001	   MOV EXISTS_GHOST2, 1
				   
				   ;{ RANDOMIZE MOVEMENT DIRECTION WITH 1 (DOWN
				LEFT) OR 3 (UPLEFT)
				   RANDOMIZE 0, 3 , MOTION_GHOST2, RANDSEED
 078D  50                    1	   PUSH     AX 
 078E  53                    1	   PUSH     BX 
 078F  51                    1	   PUSH     CX 
 0790  52                    1	   PUSH     DX 
 0791  B8 6255               1	   MOV     AX, 25173          ; LCG MULTIPLIER 
 0794  F7 26 A813 R          1	   MUL     WORD PTR RANDSEED      ;DX:AX = LCG 
				MULTIPLIER * SEED 
 0798  05 3619               1	   ADD     AX, 13849          ; ADD LCG INCREME
				NT VALUE 
 079B  39 06 A813 R          1	   CMP     RANDSEED, AX 
 079F  75 08                 1	   JNE     ??0027 
 07A1  B4 00                 1	   MOV     AH, 0 
 07A3  CD 1A                 1	   INT     1AH 
 07A5  89 16 A813 R          1	   MOV     RANDSEED, DX    ; SEED WITH THE SYST
				EM TIME 
 07A9                        1	   ??0027: 
 07A9  A3 A813 R             1	   MOV     RANDSEED, AX          ; UPDATE SEED 
				= RETURN VALUE 
 07AC  2B D2                 1	   SUB      DX, DX 
 07AE  B9 0003               1	   MOV      CX, 3 
Microsoft (R) Macro Assembler Version 5.10                  12/6/19 16:06:45
                                                             Page     1-259


 07B1  41                    1	   INC      CX 
 07B2  83 E9 00              1	   SUB      CX, 0 
 07B5  83 F9 00              1	   CMP CX, 0 
 07B8  74 02                 1	   JE ??0028 
 07BA  F7 F1                 1	   DIV      CX     ;THIS DIVIDES AX/CX AND THE 
				REMAINDER IS AT DX(NUMBER WITHIN RANGE OF THE S
				UBTRACTION UPPER - LOWER) 
 07BC                        1	   ??0028: 
 07BC  83 C2 00              1	   ADD      DX, 0 
 07BF  89 16 A7F4 R          1	   MOV      MOTION_GHOST2, DX 
 07C3  5A                    1	   POP      DX 
 07C4  59                    1	   POP      CX 
 07C5  5B                    1	   POP      BX 
 07C6  58                    1	   POP      AX 
 07C7  83 3E A7F4 R 02		   CMP MOTION_GHOST2, 2
 07CC  72 09			   JB MOV_DOWNLEFT2
 07CE  C7 06 A7F4 R 0003	   MOV MOTION_GHOST2, 3    ;MOV UPLEFT
 07D4  EB 07 90			   JMP MOV_UPLEFT2
 07D7				   MOV_DOWNLEFT2:
 07D7  C7 06 A7F4 R 0001	   MOV MOTION_GHOST2, 1    ;MOVE BY INC Y AND D
				EC X
 07DD				   MOV_UPLEFT2:
				   ;}
				   
				   RANDOMIZE 0, 2, POWERUP_GHOST2, RANDSEED
 07DD  50                    1	   PUSH     AX 
 07DE  53                    1	   PUSH     BX 
 07DF  51                    1	   PUSH     CX 
 07E0  52                    1	   PUSH     DX 
 07E1  B8 6255               1	   MOV     AX, 25173          ; LCG MULTIPLIER 
 07E4  F7 26 A813 R          1	   MUL     WORD PTR RANDSEED      ;DX:AX = LCG 
				MULTIPLIER * SEED 
 07E8  05 3619               1	   ADD     AX, 13849          ; ADD LCG INCREME
				NT VALUE 
 07EB  39 06 A813 R          1	   CMP     RANDSEED, AX 
 07EF  75 08                 1	   JNE     ??0029 
 07F1  B4 00                 1	   MOV     AH, 0 
 07F3  CD 1A                 1	   INT     1AH 
 07F5  89 16 A813 R          1	   MOV     RANDSEED, DX    ; SEED WITH THE SYST
				EM TIME 
 07F9                        1	   ??0029: 
 07F9  A3 A813 R             1	   MOV     RANDSEED, AX          ; UPDATE SEED 
				= RETURN VALUE 
 07FC  2B D2                 1	   SUB      DX, DX 
 07FE  B9 0002               1	   MOV      CX, 2 
 0801  41                    1	   INC      CX 
 0802  83 E9 00              1	   SUB      CX, 0 
 0805  83 F9 00              1	   CMP CX, 0 
 0808  74 02                 1	   JE ??002A 
 080A  F7 F1                 1	   DIV      CX     ;THIS DIVIDES AX/CX AND THE 
				REMAINDER IS AT DX(NUMBER WITHIN RANGE OF THE S
				UBTRACTION UPPER - LOWER) 
 080C                        1	   ??002A: 
 080C  83 C2 00              1	   ADD      DX, 0 
Microsoft (R) Macro Assembler Version 5.10                  12/6/19 16:06:45
                                                             Page     1-260


 080F  89 16 A7F6 R          1	   MOV      POWERUP_GHOST2, DX 
 0813  5A                    1	   POP      DX 
 0814  59                    1	   POP      CX 
 0815  5B                    1	   POP      BX 
 0816  58                    1	   POP      AX 
				   RANDOMIZE 0, 2, TYPE_GHOST2, RANDSEED
 0817  50                    1	   PUSH     AX 
 0818  53                    1	   PUSH     BX 
 0819  51                    1	   PUSH     CX 
 081A  52                    1	   PUSH     DX 
 081B  B8 6255               1	   MOV     AX, 25173          ; LCG MULTIPLIER 
 081E  F7 26 A813 R          1	   MUL     WORD PTR RANDSEED      ;DX:AX = LCG 
				MULTIPLIER * SEED 
 0822  05 3619               1	   ADD     AX, 13849          ; ADD LCG INCREME
				NT VALUE 
 0825  39 06 A813 R          1	   CMP     RANDSEED, AX 
 0829  75 08                 1	   JNE     ??002B 
 082B  B4 00                 1	   MOV     AH, 0 
 082D  CD 1A                 1	   INT     1AH 
 082F  89 16 A813 R          1	   MOV     RANDSEED, DX    ; SEED WITH THE SYST
				EM TIME 
 0833                        1	   ??002B: 
 0833  A3 A813 R             1	   MOV     RANDSEED, AX          ; UPDATE SEED 
				= RETURN VALUE 
 0836  2B D2                 1	   SUB      DX, DX 
 0838  B9 0002               1	   MOV      CX, 2 
 083B  41                    1	   INC      CX 
 083C  83 E9 00              1	   SUB      CX, 0 
 083F  83 F9 00              1	   CMP CX, 0 
 0842  74 02                 1	   JE ??002C 
 0844  F7 F1                 1	   DIV      CX     ;THIS DIVIDES AX/CX AND THE 
				REMAINDER IS AT DX(NUMBER WITHIN RANGE OF THE S
				UBTRACTION UPPER - LOWER) 
 0846                        1	   ??002C: 
 0846  83 C2 00              1	   ADD      DX, 0 
 0849  89 16 A7FC R          1	   MOV      TYPE_GHOST2, DX 
main.ASM(3040): warning A4031: Operand types must match
 084D  5A                    1	   POP      DX 
 084E  59                    1	   POP      CX 
 084F  5B                    1	   POP      BX 
 0850  58                    1	   POP      AX 
				   
				
 0851  A1 A796 R		   MOV AX, LOWERBOUND_Y
 0854  2D 0032			   SUB AX, 50
 0857  A3 A818 R		   MOV UPPER4MACRO, AX
 085A  A1 A794 R		   MOV AX, UPPERBOUND_Y
 085D  A3 A816 R		   MOV LOWER4MACRO, AX
				   RANDOMIZE LOWER4MACRO, UPPER4MACRO, STARTPOS
				_Y_GHOST2, RANDSEED
 0860  50                    1	   PUSH     AX 
 0861  53                    1	   PUSH     BX 
 0862  51                    1	   PUSH     CX 
 0863  52                    1	   PUSH     DX 
 0864  B8 6255               1	   MOV     AX, 25173          ; LCG MULTIPLIER 
Microsoft (R) Macro Assembler Version 5.10                  12/6/19 16:06:45
                                                             Page     1-261


 0867  F7 26 A813 R          1	   MUL     WORD PTR RANDSEED      ;DX:AX = LCG 
				MULTIPLIER * SEED 
 086B  05 3619               1	   ADD     AX, 13849          ; ADD LCG INCREME
				NT VALUE 
 086E  39 06 A813 R          1	   CMP     RANDSEED, AX 
 0872  75 08                 1	   JNE     ??002D 
 0874  B4 00                 1	   MOV     AH, 0 
 0876  CD 1A                 1	   INT     1AH 
 0878  89 16 A813 R          1	   MOV     RANDSEED, DX    ; SEED WITH THE SYST
				EM TIME 
 087C                        1	   ??002D: 
 087C  A3 A813 R             1	   MOV     RANDSEED, AX          ; UPDATE SEED 
				= RETURN VALUE 
 087F  2B D2                 1	   SUB      DX, DX 
 0881  8B 0E A818 R          1	   MOV      CX, UPPER4MACRO 
 0885  41                    1	   INC      CX 
 0886  2B 0E A816 R          1	   SUB      CX, LOWER4MACRO 
 088A  83 F9 00              1	   CMP CX, 0 
 088D  74 02                 1	   JE ??002E 
 088F  F7 F1                 1	   DIV      CX     ;THIS DIVIDES AX/CX AND THE 
				REMAINDER IS AT DX(NUMBER WITHIN RANGE OF THE S
				UBTRACTION UPPER - LOWER) 
 0891                        1	   ??002E: 
 0891  03 16 A816 R          1	   ADD      DX, LOWER4MACRO 
 0895  89 16 A7F0 R          1	   MOV      STARTPOS_Y_GHOST2, DX 
 0899  5A                    1	   POP      DX 
 089A  59                    1	   POP      CX 
 089B  5B                    1	   POP      BX 
 089C  58                    1	   POP      AX 
				
				
				
 089D  A1 A79A R		   MOV AX, RIGHTBOUND_X
 08A0  D1 E8			   SHR AX, 1
 08A2  2D 0064			   SUB AX, 100
 08A5  A3 A818 R		   MOV UPPER4MACRO, AX
 08A8  8B 1E A798 R		   MOV BX, LEFTBOUND_X 
 08AC  83 C3 6E			   ADD BX, 110
 08AF  89 1E A816 R		   MOV LOWER4MACRO, BX
				   RANDOMIZE LOWER4MACRO, UPPER4MACRO, STARTPOS
				_X_GHOST2, RANDSEED
 08B3  50                    1	   PUSH     AX 
 08B4  53                    1	   PUSH     BX 
 08B5  51                    1	   PUSH     CX 
 08B6  52                    1	   PUSH     DX 
 08B7  B8 6255               1	   MOV     AX, 25173          ; LCG MULTIPLIER 
 08BA  F7 26 A813 R          1	   MUL     WORD PTR RANDSEED      ;DX:AX = LCG 
				MULTIPLIER * SEED 
 08BE  05 3619               1	   ADD     AX, 13849          ; ADD LCG INCREME
				NT VALUE 
 08C1  39 06 A813 R          1	   CMP     RANDSEED, AX 
 08C5  75 08                 1	   JNE     ??002F 
 08C7  B4 00                 1	   MOV     AH, 0 
 08C9  CD 1A                 1	   INT     1AH 
Microsoft (R) Macro Assembler Version 5.10                  12/6/19 16:06:45
                                                             Page     1-262


 08CB  89 16 A813 R          1	   MOV     RANDSEED, DX    ; SEED WITH THE SYST
				EM TIME 
 08CF                        1	   ??002F: 
 08CF  A3 A813 R             1	   MOV     RANDSEED, AX          ; UPDATE SEED 
				= RETURN VALUE 
 08D2  2B D2                 1	   SUB      DX, DX 
 08D4  8B 0E A818 R          1	   MOV      CX, UPPER4MACRO 
 08D8  41                    1	   INC      CX 
 08D9  2B 0E A816 R          1	   SUB      CX, LOWER4MACRO 
 08DD  83 F9 00              1	   CMP CX, 0 
 08E0  74 02                 1	   JE ??0030 
 08E2  F7 F1                 1	   DIV      CX     ;THIS DIVIDES AX/CX AND THE 
				REMAINDER IS AT DX(NUMBER WITHIN RANGE OF THE S
				UBTRACTION UPPER - LOWER) 
 08E4                        1	   ??0030: 
 08E4  03 16 A816 R          1	   ADD      DX, LOWER4MACRO 
 08E8  89 16 A7EE R          1	   MOV      STARTPOS_X_GHOST2, DX 
 08EC  5A                    1	   POP      DX 
 08ED  59                    1	   POP      CX 
 08EE  5B                    1	   POP      BX 
 08EF  58                    1	   POP      AX 
				  
				   ;{GHOST PORTAL LOCATION
 08F0  A1 A7EE R		   MOV AX, STARTPOS_X_GHOST2
 08F3  2D 000A			   SUB AX, 10
 08F6  A3 A7F8 R		   MOV STARTPOS_X_PORTAL2, AX
 08F9  A1 A7F0 R		   MOV AX, STARTPOS_Y_GHOST2
 08FC  2D 000A			   SUB AX, 10
 08FF  A3 A7FA R		   MOV STARTPOS_Y_PORTAL2, AX 
				   ;}
				   
 0902  5A			   POP DX
 0903  59			   POP CX
 0904  5B			   POP BX
 0905  58			   POP AX 
 0906  C3			   RET
				;} 
 0907				RANDOMIZE_GHOST2 ENDP
				
				;----------------------------------------------
				----------------------------
				; MAKES RANDOM PLACE FOR THE THIRD GHOST
				;----------------------------------------------
				---------------------------
				
 0907				RANDOMIZE_GHOST3 PROC
				;{
 0907  50			   PUSH AX
 0908  53			   PUSH BX
 0909  51			   PUSH CX
 090A  52			   PUSH DX
				
 090B  C7 06 A801 R 0001	   MOV EXISTS_GHOST3, 1    ;MOVE BY INC X AND D
				EC Y
Microsoft (R) Macro Assembler Version 5.10                  12/6/19 16:06:45
                                                             Page     1-263


				   
				   ;{ RANDOMIZE MOVEMENT DIRECTION WITH 0 (DOWN
				RIGHT) OR 2 (UPRIGHT)
				   RANDOMIZE 0, 3 , MOTION_GHOST3, RANDSEED
 0911  50                    1	   PUSH     AX 
 0912  53                    1	   PUSH     BX 
 0913  51                    1	   PUSH     CX 
 0914  52                    1	   PUSH     DX 
 0915  B8 6255               1	   MOV     AX, 25173          ; LCG MULTIPLIER 
 0918  F7 26 A813 R          1	   MUL     WORD PTR RANDSEED      ;DX:AX = LCG 
				MULTIPLIER * SEED 
 091C  05 3619               1	   ADD     AX, 13849          ; ADD LCG INCREME
				NT VALUE 
 091F  39 06 A813 R          1	   CMP     RANDSEED, AX 
 0923  75 08                 1	   JNE     ??0031 
 0925  B4 00                 1	   MOV     AH, 0 
 0927  CD 1A                 1	   INT     1AH 
 0929  89 16 A813 R          1	   MOV     RANDSEED, DX    ; SEED WITH THE SYST
				EM TIME 
 092D                        1	   ??0031: 
 092D  A3 A813 R             1	   MOV     RANDSEED, AX          ; UPDATE SEED 
				= RETURN VALUE 
 0930  2B D2                 1	   SUB      DX, DX 
 0932  B9 0003               1	   MOV      CX, 3 
 0935  41                    1	   INC      CX 
 0936  83 E9 00              1	   SUB      CX, 0 
 0939  83 F9 00              1	   CMP CX, 0 
 093C  74 02                 1	   JE ??0032 
 093E  F7 F1                 1	   DIV      CX     ;THIS DIVIDES AX/CX AND THE 
				REMAINDER IS AT DX(NUMBER WITHIN RANGE OF THE S
				UBTRACTION UPPER - LOWER) 
 0940                        1	   ??0032: 
 0940  83 C2 00              1	   ADD      DX, 0 
 0943  89 16 A803 R          1	   MOV      MOTION_GHOST3, DX 
 0947  5A                    1	   POP      DX 
 0948  59                    1	   POP      CX 
 0949  5B                    1	   POP      BX 
 094A  58                    1	   POP      AX 
 094B  83 3E A803 R 02		   CMP MOTION_GHOST3, 2
 0950  72 09			   JB MOV_DOWNRIGHT3
 0952  C7 06 A803 R 0002	   MOV MOTION_GHOST3, 2    ;MOV UPRIGHT
 0958  EB 07 90			   JMP MOV_UPRIGHT3
 095B				   MOV_DOWNRIGHT3:
 095B  C7 06 A803 R 0000	   MOV MOTION_GHOST3, 0    ;MOVE DOWNRIGHT
 0961				   MOV_UPRIGHT3:
				   ;}
				
				
				   RANDOMIZE 0, 2, TYPE_GHOST3, RANDSEED
 0961  50                    1	   PUSH     AX 
 0962  53                    1	   PUSH     BX 
 0963  51                    1	   PUSH     CX 
 0964  52                    1	   PUSH     DX 
 0965  B8 6255               1	   MOV     AX, 25173          ; LCG MULTIPLIER 
Microsoft (R) Macro Assembler Version 5.10                  12/6/19 16:06:45
                                                             Page     1-264


 0968  F7 26 A813 R          1	   MUL     WORD PTR RANDSEED      ;DX:AX = LCG 
				MULTIPLIER * SEED 
 096C  05 3619               1	   ADD     AX, 13849          ; ADD LCG INCREME
				NT VALUE 
 096F  39 06 A813 R          1	   CMP     RANDSEED, AX 
 0973  75 08                 1	   JNE     ??0033 
 0975  B4 00                 1	   MOV     AH, 0 
 0977  CD 1A                 1	   INT     1AH 
 0979  89 16 A813 R          1	   MOV     RANDSEED, DX    ; SEED WITH THE SYST
				EM TIME 
 097D                        1	   ??0033: 
 097D  A3 A813 R             1	   MOV     RANDSEED, AX          ; UPDATE SEED 
				= RETURN VALUE 
 0980  2B D2                 1	   SUB      DX, DX 
 0982  B9 0002               1	   MOV      CX, 2 
 0985  41                    1	   INC      CX 
 0986  83 E9 00              1	   SUB      CX, 0 
 0989  83 F9 00              1	   CMP CX, 0 
 098C  74 02                 1	   JE ??0034 
 098E  F7 F1                 1	   DIV      CX     ;THIS DIVIDES AX/CX AND THE 
				REMAINDER IS AT DX(NUMBER WITHIN RANGE OF THE S
				UBTRACTION UPPER - LOWER) 
 0990                        1	   ??0034: 
 0990  83 C2 00              1	   ADD      DX, 0 
 0993  89 16 A80B R          1	   MOV      TYPE_GHOST3, DX 
 0997  5A                    1	   POP      DX 
 0998  59                    1	   POP      CX 
 0999  5B                    1	   POP      BX 
 099A  58                    1	   POP      AX 
				   RANDOMIZE 0, 2, POWERUP_GHOST3, RANDSEED
 099B  50                    1	   PUSH     AX 
 099C  53                    1	   PUSH     BX 
 099D  51                    1	   PUSH     CX 
 099E  52                    1	   PUSH     DX 
 099F  B8 6255               1	   MOV     AX, 25173          ; LCG MULTIPLIER 
 09A2  F7 26 A813 R          1	   MUL     WORD PTR RANDSEED      ;DX:AX = LCG 
				MULTIPLIER * SEED 
 09A6  05 3619               1	   ADD     AX, 13849          ; ADD LCG INCREME
				NT VALUE 
 09A9  39 06 A813 R          1	   CMP     RANDSEED, AX 
 09AD  75 08                 1	   JNE     ??0035 
 09AF  B4 00                 1	   MOV     AH, 0 
 09B1  CD 1A                 1	   INT     1AH 
 09B3  89 16 A813 R          1	   MOV     RANDSEED, DX    ; SEED WITH THE SYST
				EM TIME 
 09B7                        1	   ??0035: 
 09B7  A3 A813 R             1	   MOV     RANDSEED, AX          ; UPDATE SEED 
				= RETURN VALUE 
 09BA  2B D2                 1	   SUB      DX, DX 
 09BC  B9 0002               1	   MOV      CX, 2 
 09BF  41                    1	   INC      CX 
 09C0  83 E9 00              1	   SUB      CX, 0 
 09C3  83 F9 00              1	   CMP CX, 0 
 09C6  74 02                 1	   JE ??0036 
Microsoft (R) Macro Assembler Version 5.10                  12/6/19 16:06:45
                                                             Page     1-265


 09C8  F7 F1                 1	   DIV      CX     ;THIS DIVIDES AX/CX AND THE 
				REMAINDER IS AT DX(NUMBER WITHIN RANGE OF THE S
				UBTRACTION UPPER - LOWER) 
 09CA                        1	   ??0036: 
 09CA  83 C2 00              1	   ADD      DX, 0 
 09CD  89 16 A805 R          1	   MOV      POWERUP_GHOST3, DX 
 09D1  5A                    1	   POP      DX 
 09D2  59                    1	   POP      CX 
 09D3  5B                    1	   POP      BX 
 09D4  58                    1	   POP      AX 
				
				   
 09D5  A1 A796 R		   MOV AX, LOWERBOUND_Y
 09D8  2D 0032			   SUB AX, 50
 09DB  A3 A818 R		   MOV UPPER4MACRO, AX
 09DE  A1 A794 R		   MOV AX, UPPERBOUND_Y
 09E1  A3 A816 R		   MOV LOWER4MACRO, AX
				   RANDOMIZE  LOWER4MACRO, UPPER4MACRO, STARTPO
				S_Y_GHOST3, RANDSEED
 09E4  50                    1	   PUSH     AX 
 09E5  53                    1	   PUSH     BX 
 09E6  51                    1	   PUSH     CX 
 09E7  52                    1	   PUSH     DX 
 09E8  B8 6255               1	   MOV     AX, 25173          ; LCG MULTIPLIER 
 09EB  F7 26 A813 R          1	   MUL     WORD PTR RANDSEED      ;DX:AX = LCG 
				MULTIPLIER * SEED 
 09EF  05 3619               1	   ADD     AX, 13849          ; ADD LCG INCREME
				NT VALUE 
 09F2  39 06 A813 R          1	   CMP     RANDSEED, AX 
 09F6  75 08                 1	   JNE     ??0037 
 09F8  B4 00                 1	   MOV     AH, 0 
 09FA  CD 1A                 1	   INT     1AH 
 09FC  89 16 A813 R          1	   MOV     RANDSEED, DX    ; SEED WITH THE SYST
				EM TIME 
 0A00                        1	   ??0037: 
 0A00  A3 A813 R             1	   MOV     RANDSEED, AX          ; UPDATE SEED 
				= RETURN VALUE 
 0A03  2B D2                 1	   SUB      DX, DX 
 0A05  8B 0E A818 R          1	   MOV      CX, UPPER4MACRO 
 0A09  41                    1	   INC      CX 
 0A0A  2B 0E A816 R          1	   SUB      CX, LOWER4MACRO 
 0A0E  83 F9 00              1	   CMP CX, 0 
 0A11  74 02                 1	   JE ??0038 
 0A13  F7 F1                 1	   DIV      CX     ;THIS DIVIDES AX/CX AND THE 
				REMAINDER IS AT DX(NUMBER WITHIN RANGE OF THE S
				UBTRACTION UPPER - LOWER) 
 0A15                        1	   ??0038: 
 0A15  03 16 A816 R          1	   ADD      DX, LOWER4MACRO 
 0A19  89 16 A7FF R          1	   MOV      STARTPOS_Y_GHOST3, DX 
 0A1D  5A                    1	   POP      DX 
 0A1E  59                    1	   POP      CX 
 0A1F  5B                    1	   POP      BX 
 0A20  58                    1	   POP      AX 
				
Microsoft (R) Macro Assembler Version 5.10                  12/6/19 16:06:45
                                                             Page     1-266


				
				
 0A21  A1 A79A R		   MOV AX, RIGHTBOUND_X
 0A24  D1 E8			   SHR AX, 1
 0A26  2D 0032			   SUB AX, 50
 0A29  A3 A816 R		   MOV LOWER4MACRO, AX
 0A2C  8B 1E A79A R		   MOV BX, RIGHTBOUND_X 
 0A30  83 EB 50			   SUB BX, 80
 0A33  89 1E A818 R		   MOV UPPER4MACRO, BX
				   RANDOMIZE LOWER4MACRO, UPPER4MACRO, STARTPOS
				_X_GHOST3, RANDSEED
 0A37  50                    1	   PUSH     AX 
 0A38  53                    1	   PUSH     BX 
 0A39  51                    1	   PUSH     CX 
 0A3A  52                    1	   PUSH     DX 
 0A3B  B8 6255               1	   MOV     AX, 25173          ; LCG MULTIPLIER 
 0A3E  F7 26 A813 R          1	   MUL     WORD PTR RANDSEED      ;DX:AX = LCG 
				MULTIPLIER * SEED 
 0A42  05 3619               1	   ADD     AX, 13849          ; ADD LCG INCREME
				NT VALUE 
 0A45  39 06 A813 R          1	   CMP     RANDSEED, AX 
 0A49  75 08                 1	   JNE     ??0039 
 0A4B  B4 00                 1	   MOV     AH, 0 
 0A4D  CD 1A                 1	   INT     1AH 
 0A4F  89 16 A813 R          1	   MOV     RANDSEED, DX    ; SEED WITH THE SYST
				EM TIME 
 0A53                        1	   ??0039: 
 0A53  A3 A813 R             1	   MOV     RANDSEED, AX          ; UPDATE SEED 
				= RETURN VALUE 
 0A56  2B D2                 1	   SUB      DX, DX 
 0A58  8B 0E A818 R          1	   MOV      CX, UPPER4MACRO 
 0A5C  41                    1	   INC      CX 
 0A5D  2B 0E A816 R          1	   SUB      CX, LOWER4MACRO 
 0A61  83 F9 00              1	   CMP CX, 0 
 0A64  74 02                 1	   JE ??003A 
 0A66  F7 F1                 1	   DIV      CX     ;THIS DIVIDES AX/CX AND THE 
				REMAINDER IS AT DX(NUMBER WITHIN RANGE OF THE S
				UBTRACTION UPPER - LOWER) 
 0A68                        1	   ??003A: 
 0A68  03 16 A816 R          1	   ADD      DX, LOWER4MACRO 
 0A6C  89 16 A7FD R          1	   MOV      STARTPOS_X_GHOST3, DX 
 0A70  5A                    1	   POP      DX 
 0A71  59                    1	   POP      CX 
 0A72  5B                    1	   POP      BX 
 0A73  58                    1	   POP      AX 
				   
				   ;{GHOST PORTAL LOCATION
 0A74  A1 A7FD R		   MOV AX, STARTPOS_X_GHOST3
 0A77  2D 000A			   SUB AX, 10
 0A7A  A3 A807 R		   MOV STARTPOS_X_PORTAL3, AX
 0A7D  A1 A7FF R		   MOV AX, STARTPOS_Y_GHOST3
 0A80  2D 000A			   SUB AX, 10
 0A83  A3 A809 R		   MOV STARTPOS_Y_PORTAL3, AX 
				   ;}
Microsoft (R) Macro Assembler Version 5.10                  12/6/19 16:06:45
                                                             Page     1-267


				
 0A86  5A			   POP DX
 0A87  59			   POP CX
 0A88  5B			   POP BX
 0A89  58			   POP AX 
 0A8A  C3			   RET
				;} 
 0A8B				RANDOMIZE_GHOST3 ENDP
				
				;----------------------------------------------
				----------------------------
				; DRAW THE FIRST GHOST
				;----------------------------------------------
				---------------------------
				
 0A8B				DRAW_GHOST1 PROC
				;{
 0A8B  50			   PUSH AX
 0A8C  53			   PUSH BX
 0A8D  51			   PUSH CX
 0A8E  52			   PUSH DX
				
 0A8F  83 3E A7E3 R 01		   CMP EXISTS_GHOST1, 1
 0A94  75 6F			   JNE ENDDRAW_GHOST11
				   WITHIN_BOUNDARIES STARTPOS_X_GHOST1, STARTPO
				S_Y_GHOST1, GHOSTSIZE , EXISTS_GHOST1 ;CHECK WH
				ETHER WITHIN BOUNDARIES
 0A96  50                    1	   PUSH AX 
 0A97  53                    1	   PUSH BX 
 0A98  51                    1	   PUSH CX 
 0A99  52                    1	   PUSH DX 
 0A9A  C7 06 A7E3 R 0001     1	   MOV EXISTS_GHOST1, 1           ;FIRST ASSUME
				 THAT THE SHAPE IS WITHIN BOUNDARIES 
 0AA0                        1	   ??003B: 
 0AA0  8B 0E A7E1 R          1	      MOV CX, STARTPOS_Y_GHOST1 
 0AA4  8B 1E A794 R          1	      MOV BX, UPPERBOUND_Y 
 0AA8  2B CB                 1	      SUB CX, BX 
 0AAA  83 F9 00              1	      CMP CX, 0 
 0AAD  7D 06                 1	      JGE ??003C 
 0AAF  C7 06 A7E3 R 0000     1	      MOV EXISTS_GHOST1, 0 
 0AB5                        1	   ??003C: 
 0AB5  8B 0E A7E1 R          1	      MOV CX, STARTPOS_Y_GHOST1 
 0AB9  03 0E A81E R          1	      ADD CX, GHOSTSIZE    ;GET THE Y COORDINAT
				E OF THE LOWEST POINT OF THE TANK 
 0ABD  8B 1E A796 R          1	      MOV BX, LOWERBOUND_Y 
 0AC1  2B D9                 1	      SUB BX, CX 
 0AC3  83 FB 00              1	      CMP BX, 0  ;CURRENT Y DISTANCE TO THE BOU
				NDARY VS REMAINING DISTANCE TO THE BOUNDARY 
 0AC6  7D 06                 1	      JGE ??003E 
 0AC8  C7 06 A7E3 R 0000     1	      MOV EXISTS_GHOST1, 0 
 0ACE                        1	   ??003E: 
 0ACE  8B 0E A7DF R          1	      MOV CX, STARTPOS_X_GHOST1 
 0AD2  03 0E A81E R          1	      ADD CX, GHOSTSIZE    ;GET THE Y COORDINAT
				E OF THE LOWEST POINT OF THE TANK 
Microsoft (R) Macro Assembler Version 5.10                  12/6/19 16:06:45
                                                             Page     1-268


 0AD6  8B 1E A79A R          1	      MOV BX, RIGHTBOUND_X 
 0ADA  2B D9                 1	      SUB BX, CX 
 0ADC  83 FB 00              1	      CMP BX, 0  ;CURRENT Y DISTANCE TO THE BOU
				NDARY VS REMAINING DISTANCE TO THE BOUNDARY 
 0ADF  7D 06                 1	      JGE ??003D 
 0AE1  C7 06 A7E3 R 0000     1	      MOV EXISTS_GHOST1, 0 
 0AE7                        1	   ??003D: 
 0AE7  8B 0E A7DF R          1	      MOV CX, STARTPOS_X_GHOST1 
 0AEB  8B 1E A798 R          1	      MOV BX, LEFTBOUND_X 
 0AEF  2B CB                 1	      SUB CX, BX 
 0AF1  83 F9 00              1	      CMP CX, 0 
 0AF4  7D 06                 1	      JGE ??003F 
 0AF6  C7 06 A7E3 R 0000     1	      MOV EXISTS_GHOST1, 0 
 0AFC                        1	   ??003F: 
 0AFC  5A                    1	   POP DX 
 0AFD  59                    1	   POP CX 
 0AFE  5B                    1	   POP BX 
 0AFF  58                    1	   POP AX 
 0B00  83 3E A7E3 R 01		   CMP EXISTS_GHOST1, 1
 0B05				   ENDDRAW_GHOST11:     ; JUST A MIDDLE LABEL F
				OR JUMP
 0B05  75 40			   JNE ENDDRAW_GHOST1
				
				  
				
				   ;{FIRST TYPE 
 0B07  80 3E A7ED R 00		   CMP TYPE_GHOST1, 0
 0B0C  BE 61A8 R		   MOV SI, OFFSET GHOST1_0
 0B0F  74 0D			   JE DRAW1
				   ;}
				
				   ;{SECOND TYPE 
 0B11  80 3E A7ED R 01		   CMP TYPE_GHOST1, 1
 0B16  BE 67E8 R		   MOV SI, OFFSET GHOST1_1
 0B19  74 03			   JE DRAW1
				   ;}
				
				   ;{THIRD TYPE
 0B1B  BE 6E28 R		   MOV SI, OFFSET GHOST1_2
				   ;}
				
 0B1E				   DRAW1:
				   DRAW_OBJECT GHOSTSIZE, SI, STARTPOS_X_GHOST1
				, STARTPOS_Y_GHOST1
 0B1E  51                    1	   PUSH CX 
 0B1F  53                    1	   PUSH BX 
 0B20  8B F6                 1	   MOV SI, SI  ;TAKE THE RIGHT BITMAP FROM A RE
				GISTER CONTAINING THE OFFSET 
 0B22  8B 16 A7E1 R          1	   MOV     DX, STARTPOS_Y_GHOST1     ; Y TO STA
				RT DRAWING AT 
 0B26  8B 2E A81E R          1	   MOV BP, GHOSTSIZE 
 0B2A  8A 3C                 1	   MOV BH, [SI] 
 0B2C                        1	   ??0041:;{ FOR(BP = 50; BD > 0; BP--) 
 0B2C  8B 0E A7DF R          1	      MOV     CX, STARTPOS_X_GHOST1    ; X TO S
Microsoft (R) Macro Assembler Version 5.10                  12/6/19 16:06:45
                                                             Page     1-269


				TART 
 0B30  8B 3E A81E R          1	      MOV DI, GHOSTSIZE 
 0B34                        1	      ??0040:;{ FOR(DX = 50; DX > 0; DX--) 
 0B34  AC                    1	         LODSB              ; FETCH COLOR FOR T
				HIS PIXEL 
 0B35  3A F8                 1	         CMP BH ,AL 
 0B37  74 04                 1	         JE ??0042 
 0B39  B4 0C                 1	         MOV     AH, 0CH    ; AH=0CH IS BIOS.WR
				ITEPIXEL 
 0B3B  CD 10                 1	         INT     10H 
 0B3D                        1	         ??0042: 
 0B3D  41                    1	         INC     CX         ; NEXT X POSITION 
 0B3E  4F                    1	         DEC     DI 
 0B3F  75 F3                 1	         JNZ     ??0040 
 0B41  42                    1	      INC     DX         ; NEXT Y POSITION 
 0B42  4D                    1	      DEC     BP 
 0B43  75 E7                 1	      JNZ     ??0041 
 0B45  5B                    1	      POP BX 
 0B46  59                    1	      POP CX 
				   
				  
				
 0B47				   ENDDRAW_GHOST1:
 0B47  5A			   POP DX
 0B48  59			   POP CX
 0B49  5B			   POP BX
 0B4A  58			   POP AX 
 0B4B  C3			   RET
				;} 
 0B4C				DRAW_GHOST1 ENDP
				
				;----------------------------------------------
				----------------------------
				; MOVES THE FIRST GHOST
				;----------------------------------------------
				---------------------------
				
 0B4C				MOVE_GHOST1 PROC
				;{
 0B4C  50			   PUSH AX
 0B4D  53			   PUSH BX
 0B4E  51			   PUSH CX
 0B4F  52			   PUSH DX
				
 0B50  83 3E A7E3 R 01		   CMP EXISTS_GHOST1, 1
 0B55  75 4A			   JNE ENDMOVE_GHOST1
 0B57				   DOWNRIGHT_GHOST1:
				   ;{ DOWNRIGHT MOVEMENT
 0B57  83 3E A7E5 R 00		      CMP MOTION_GHOST1, 0
 0B5C  75 0D			      JNE DOWNLEFT_GHOST1
 0B5E  83 06 A7DF R 03		      ADD STARTPOS_X_GHOST1, 3
 0B63  83 06 A7E1 R 03		      ADD STARTPOS_Y_GHOST1, 3
 0B68  EB 37 90			      JMP ENDMOVE_GHOST1
				   ;}
Microsoft (R) Macro Assembler Version 5.10                  12/6/19 16:06:45
                                                             Page     1-270


 0B6B				   DOWNLEFT_GHOST1:
				   ;{ DOWNLEFT MOVEMENT
 0B6B  83 3E A7E5 R 01		      CMP MOTION_GHOST1, 1
 0B70  75 0C			      JNE UPRIGHT_GHOST1
 0B72  FF 0E A7DF R		      DEC STARTPOS_X_GHOST1, 3
main.ASM(3217): warning A4001: Extra characters on line
 0B76  83 06 A7E1 R 03		      ADD STARTPOS_Y_GHOST1, 3
 0B7B  EB 24 90			      JMP ENDMOVE_GHOST1
				   ;}
 0B7E				   UPRIGHT_GHOST1:
				   ;{ UPRIGHT MOVEMENT
 0B7E  83 3E A7E5 R 02		      CMP MOTION_GHOST1, 2
 0B83  75 0C			      JNE UPLEFT_GHOST1
 0B85  83 06 A7DF R 03		      ADD STARTPOS_X_GHOST1, 3
 0B8A  FF 0E A7E1 R		      DEC STARTPOS_Y_GHOST1, 3
main.ASM(3226): warning A4001: Extra characters on line
 0B8E  EB 11 90			      JMP ENDMOVE_GHOST1
				   ;}
 0B91				   UPLEFT_GHOST1:
				   ;{ UPLEFT MOVEMENT 
 0B91  83 3E A7E5 R 03		      CMP MOTION_GHOST1, 3
				      ;JNE ENDMOVE_GHOST1
 0B96  FF 0E A7DF R		      DEC STARTPOS_X_GHOST1, 3
main.ASM(3233): warning A4001: Extra characters on line
 0B9A  FF 0E A7E1 R		      DEC STARTPOS_Y_GHOST1, 3
main.ASM(3234): warning A4001: Extra characters on line
 0B9E  EB 01 90			      JMP ENDMOVE_GHOST1
				   ;}
				   
 0BA1				   ENDMOVE_GHOST1:
 0BA1  5A			   POP DX
 0BA2  59			   POP CX
 0BA3  5B			   POP BX
 0BA4  58			   POP AX 
 0BA5  C3			   RET
				;} 
 0BA6				MOVE_GHOST1 ENDP
				
				
				;----------------------------------------------
				----------------------------
				;  DRAWS THE SECOND GHOST
				;----------------------------------------------
				---------------------------
				
 0BA6				DRAW_GHOST2 PROC
				;{
 0BA6  50			   PUSH AX
 0BA7  53			   PUSH BX
 0BA8  51			   PUSH CX
 0BA9  52			   PUSH DX
				
 0BAA  83 3E A7F2 R 01		   CMP EXISTS_GHOST2, 1
 0BAF  75 6F			   JNE ENDDRAW_GHOST21
				   WITHIN_BOUNDARIES STARTPOS_X_GHOST2, STARTPO
				S_Y_GHOST2, GHOSTSIZE , EXISTS_GHOST2 ;CHECK WH
				ETHER WITHIN BOUNDARIES
 0BB1  50                    1	   PUSH AX 
Microsoft (R) Macro Assembler Version 5.10                  12/6/19 16:06:45
                                                             Page     1-271


 0BB2  53                    1	   PUSH BX 
 0BB3  51                    1	   PUSH CX 
 0BB4  52                    1	   PUSH DX 
 0BB5  C7 06 A7F2 R 0001     1	   MOV EXISTS_GHOST2, 1           ;FIRST ASSUME
				 THAT THE SHAPE IS WITHIN BOUNDARIES 
 0BBB                        1	   ??0043: 
 0BBB  8B 0E A7F0 R          1	      MOV CX, STARTPOS_Y_GHOST2 
 0BBF  8B 1E A794 R          1	      MOV BX, UPPERBOUND_Y 
 0BC3  2B CB                 1	      SUB CX, BX 
 0BC5  83 F9 00              1	      CMP CX, 0 
 0BC8  7D 06                 1	      JGE ??0044 
 0BCA  C7 06 A7F2 R 0000     1	      MOV EXISTS_GHOST2, 0 
 0BD0                        1	   ??0044: 
 0BD0  8B 0E A7F0 R          1	      MOV CX, STARTPOS_Y_GHOST2 
 0BD4  03 0E A81E R          1	      ADD CX, GHOSTSIZE    ;GET THE Y COORDINAT
				E OF THE LOWEST POINT OF THE TANK 
 0BD8  8B 1E A796 R          1	      MOV BX, LOWERBOUND_Y 
 0BDC  2B D9                 1	      SUB BX, CX 
 0BDE  83 FB 00              1	      CMP BX, 0  ;CURRENT Y DISTANCE TO THE BOU
				NDARY VS REMAINING DISTANCE TO THE BOUNDARY 
 0BE1  7D 06                 1	      JGE ??0046 
 0BE3  C7 06 A7F2 R 0000     1	      MOV EXISTS_GHOST2, 0 
 0BE9                        1	   ??0046: 
 0BE9  8B 0E A7EE R          1	      MOV CX, STARTPOS_X_GHOST2 
 0BED  03 0E A81E R          1	      ADD CX, GHOSTSIZE    ;GET THE Y COORDINAT
				E OF THE LOWEST POINT OF THE TANK 
 0BF1  8B 1E A79A R          1	      MOV BX, RIGHTBOUND_X 
 0BF5  2B D9                 1	      SUB BX, CX 
 0BF7  83 FB 00              1	      CMP BX, 0  ;CURRENT Y DISTANCE TO THE BOU
				NDARY VS REMAINING DISTANCE TO THE BOUNDARY 
 0BFA  7D 06                 1	      JGE ??0045 
 0BFC  C7 06 A7F2 R 0000     1	      MOV EXISTS_GHOST2, 0 
 0C02                        1	   ??0045: 
 0C02  8B 0E A7EE R          1	      MOV CX, STARTPOS_X_GHOST2 
 0C06  8B 1E A798 R          1	      MOV BX, LEFTBOUND_X 
 0C0A  2B CB                 1	      SUB CX, BX 
 0C0C  83 F9 00              1	      CMP CX, 0 
 0C0F  7D 06                 1	      JGE ??0047 
 0C11  C7 06 A7F2 R 0000     1	      MOV EXISTS_GHOST2, 0 
 0C17                        1	   ??0047: 
 0C17  5A                    1	   POP DX 
 0C18  59                    1	   POP CX 
 0C19  5B                    1	   POP BX 
 0C1A  58                    1	   POP AX 
 0C1B  83 3E A7F2 R 01		   CMP EXISTS_GHOST2, 1
 0C20				   ENDDRAW_GHOST21:    ;JUST A MIDDLE LABEL FOR
				 JUMP
 0C20  75 40			   JNE ENDDRAW_GHOST2
				
				
				   
				
				
				   ;{FIRST TYPE 
Microsoft (R) Macro Assembler Version 5.10                  12/6/19 16:06:45
                                                             Page     1-272


 0C22  80 3E A7FC R 00		   CMP TYPE_GHOST2, 0
 0C27  BE 7468 R		   MOV SI, OFFSET GHOST2_0
 0C2A  74 0D			   JE DRAW2
				   ;}
				
				   ;{SECOND TYPE 
 0C2C  80 3E A7FC R 01		   CMP TYPE_GHOST2, 1
 0C31  BE 7AA8 R		   MOV SI, OFFSET GHOST2_1
 0C34  74 03			   JE DRAW2
				   ;}
				
				   ;{THIRD TYPE
 0C36  BE 80E8 R		   MOV SI, OFFSET GHOST2_2
				   ;}
				
 0C39				   DRAW2:
				   DRAW_OBJECT GHOSTSIZE, SI, STARTPOS_X_GHOST2
				, STARTPOS_Y_GHOST2
 0C39  51                    1	   PUSH CX 
 0C3A  53                    1	   PUSH BX 
 0C3B  8B F6                 1	   MOV SI, SI  ;TAKE THE RIGHT BITMAP FROM A RE
				GISTER CONTAINING THE OFFSET 
 0C3D  8B 16 A7F0 R          1	   MOV     DX, STARTPOS_Y_GHOST2     ; Y TO STA
				RT DRAWING AT 
 0C41  8B 2E A81E R          1	   MOV BP, GHOSTSIZE 
 0C45  8A 3C                 1	   MOV BH, [SI] 
 0C47                        1	   ??0049:;{ FOR(BP = 50; BD > 0; BP--) 
 0C47  8B 0E A7EE R          1	      MOV     CX, STARTPOS_X_GHOST2    ; X TO S
				TART 
 0C4B  8B 3E A81E R          1	      MOV DI, GHOSTSIZE 
 0C4F                        1	      ??0048:;{ FOR(DX = 50; DX > 0; DX--) 
 0C4F  AC                    1	         LODSB              ; FETCH COLOR FOR T
				HIS PIXEL 
 0C50  3A F8                 1	         CMP BH ,AL 
 0C52  74 04                 1	         JE ??004A 
 0C54  B4 0C                 1	         MOV     AH, 0CH    ; AH=0CH IS BIOS.WR
				ITEPIXEL 
 0C56  CD 10                 1	         INT     10H 
 0C58                        1	         ??004A: 
 0C58  41                    1	         INC     CX         ; NEXT X POSITION 
 0C59  4F                    1	         DEC     DI 
 0C5A  75 F3                 1	         JNZ     ??0048 
 0C5C  42                    1	      INC     DX         ; NEXT Y POSITION 
 0C5D  4D                    1	      DEC     BP 
 0C5E  75 E7                 1	      JNZ     ??0049 
 0C60  5B                    1	      POP BX 
 0C61  59                    1	      POP CX 
				   
				  
				
 0C62				   ENDDRAW_GHOST2:
 0C62  5A			   POP DX
 0C63  59			   POP CX
 0C64  5B			   POP BX
Microsoft (R) Macro Assembler Version 5.10                  12/6/19 16:06:45
                                                             Page     1-273


 0C65  58			   POP AX 
 0C66  C3			   RET
				;} 
 0C67				DRAW_GHOST2 ENDP
				
				
				;----------------------------------------------
				----------------------------
				; MOVES THE SECOND GHOST
				;----------------------------------------------
				----------------------------
 0C67				MOVE_GHOST2 PROC
				;{
 0C67  50			   PUSH AX
 0C68  53			   PUSH BX
 0C69  51			   PUSH CX
 0C6A  52			   PUSH DX
				
 0C6B  83 3E A7F2 R 01		   CMP EXISTS_GHOST2, 1
 0C70  75 4C			   JNE ENDMOVE_GHOST2
 0C72				   DOWNRIGHT_GHOST2:
				   ;{ DOWNRIGHT MOVEMENT
 0C72  83 3E A7F4 R 00		      CMP MOTION_GHOST2, 0
 0C77  75 0D			      JNE DOWNLEFT_GHOST2
 0C79  83 06 A7EE R 03		      ADD STARTPOS_X_GHOST2, 3
 0C7E  83 06 A7F0 R 03		      ADD STARTPOS_Y_GHOST2, 3
 0C83  EB 39 90			      JMP ENDMOVE_GHOST2
				   ;}
 0C86				   DOWNLEFT_GHOST2:
				   ;{ DOWNLEFT MOVEMENT
 0C86  83 3E A7F4 R 01		      CMP MOTION_GHOST2, 1
 0C8B  75 0C			      JNE UPRIGHT_GHOST2
 0C8D  FF 0E A7EE R		      DEC STARTPOS_X_GHOST2, 3
main.ASM(3325): warning A4001: Extra characters on line
 0C91  83 06 A7F0 R 03		      ADD STARTPOS_Y_GHOST2, 3
 0C96  EB 26 90			      JMP ENDMOVE_GHOST2
				   ;}
 0C99				   UPRIGHT_GHOST2:
				   ;{ UPRIGHT MOVEMENT
 0C99  83 3E A7F4 R 02		      CMP MOTION_GHOST2, 2
 0C9E  75 0C			      JNE UPLEFT_GHOST2
 0CA0  83 06 A7EE R 03		      ADD STARTPOS_X_GHOST2, 3
 0CA5  FF 0E A7F0 R		      DEC STARTPOS_Y_GHOST2, 3
main.ASM(3334): warning A4001: Extra characters on line
 0CA9  EB 13 90			      JMP ENDMOVE_GHOST2
				   ;}
 0CAC				   UPLEFT_GHOST2:
				   ;{ UPLEFT MOVEMENT
 0CAC  83 3E A7F4 R 03		      CMP MOTION_GHOST2, 3
 0CB1  75 0B			      JNE ENDMOVE_GHOST2
 0CB3  FF 0E A7EE R		      DEC STARTPOS_X_GHOST2, 3
main.ASM(3341): warning A4001: Extra characters on line
 0CB7  FF 0E A7F0 R		      DEC STARTPOS_Y_GHOST2, 3
main.ASM(3342): warning A4001: Extra characters on line
 0CBB  EB 01 90			      JMP ENDMOVE_GHOST2
				   ;}
				   
 0CBE				   ENDMOVE_GHOST2:
Microsoft (R) Macro Assembler Version 5.10                  12/6/19 16:06:45
                                                             Page     1-274


 0CBE  5A			   POP DX
 0CBF  59			   POP CX
 0CC0  5B			   POP BX
 0CC1  58			   POP AX 
 0CC2  C3			   RET
				;} 
 0CC3				MOVE_GHOST2 ENDP
				
				
				;----------------------------------------------
				----------------------------
				; DRAWS THE THIRD GHOST
				;----------------------------------------------
				---------------------------
				
 0CC3				DRAW_GHOST3 PROC
				;{
 0CC3  50			   PUSH AX
 0CC4  53			   PUSH BX
 0CC5  51			   PUSH CX
 0CC6  52			   PUSH DX
				
 0CC7  83 3E A801 R 01		   CMP EXISTS_GHOST3, 1
 0CCC  75 6F			   JNE ENDDRAW_GHOST31
				   WITHIN_BOUNDARIES STARTPOS_X_GHOST3, STARTPO
				S_Y_GHOST3, GHOSTSIZE , EXISTS_GHOST3 ;CHECK WH
				ETHER WITHIN BOUNDARIES
 0CCE  50                    1	   PUSH AX 
 0CCF  53                    1	   PUSH BX 
 0CD0  51                    1	   PUSH CX 
 0CD1  52                    1	   PUSH DX 
 0CD2  C7 06 A801 R 0001     1	   MOV EXISTS_GHOST3, 1           ;FIRST ASSUME
				 THAT THE SHAPE IS WITHIN BOUNDARIES 
 0CD8                        1	   ??004B: 
 0CD8  8B 0E A7FF R          1	      MOV CX, STARTPOS_Y_GHOST3 
 0CDC  8B 1E A794 R          1	      MOV BX, UPPERBOUND_Y 
 0CE0  2B CB                 1	      SUB CX, BX 
 0CE2  83 F9 00              1	      CMP CX, 0 
 0CE5  7D 06                 1	      JGE ??004C 
 0CE7  C7 06 A801 R 0000     1	      MOV EXISTS_GHOST3, 0 
 0CED                        1	   ??004C: 
 0CED  8B 0E A7FF R          1	      MOV CX, STARTPOS_Y_GHOST3 
 0CF1  03 0E A81E R          1	      ADD CX, GHOSTSIZE    ;GET THE Y COORDINAT
				E OF THE LOWEST POINT OF THE TANK 
 0CF5  8B 1E A796 R          1	      MOV BX, LOWERBOUND_Y 
 0CF9  2B D9                 1	      SUB BX, CX 
 0CFB  83 FB 00              1	      CMP BX, 0  ;CURRENT Y DISTANCE TO THE BOU
				NDARY VS REMAINING DISTANCE TO THE BOUNDARY 
 0CFE  7D 06                 1	      JGE ??004E 
 0D00  C7 06 A801 R 0000     1	      MOV EXISTS_GHOST3, 0 
 0D06                        1	   ??004E: 
 0D06  8B 0E A7FD R          1	      MOV CX, STARTPOS_X_GHOST3 
 0D0A  03 0E A81E R          1	      ADD CX, GHOSTSIZE    ;GET THE Y COORDINAT
				E OF THE LOWEST POINT OF THE TANK 
Microsoft (R) Macro Assembler Version 5.10                  12/6/19 16:06:45
                                                             Page     1-275


 0D0E  8B 1E A79A R          1	      MOV BX, RIGHTBOUND_X 
 0D12  2B D9                 1	      SUB BX, CX 
 0D14  83 FB 00              1	      CMP BX, 0  ;CURRENT Y DISTANCE TO THE BOU
				NDARY VS REMAINING DISTANCE TO THE BOUNDARY 
 0D17  7D 06                 1	      JGE ??004D 
 0D19  C7 06 A801 R 0000     1	      MOV EXISTS_GHOST3, 0 
 0D1F                        1	   ??004D: 
 0D1F  8B 0E A7FD R          1	      MOV CX, STARTPOS_X_GHOST3 
 0D23  8B 1E A798 R          1	      MOV BX, LEFTBOUND_X 
 0D27  2B CB                 1	      SUB CX, BX 
 0D29  83 F9 00              1	      CMP CX, 0 
 0D2C  7D 06                 1	      JGE ??004F 
 0D2E  C7 06 A801 R 0000     1	      MOV EXISTS_GHOST3, 0 
 0D34                        1	   ??004F: 
 0D34  5A                    1	   POP DX 
 0D35  59                    1	   POP CX 
 0D36  5B                    1	   POP BX 
 0D37  58                    1	   POP AX 
 0D38  83 3E A801 R 01		   CMP EXISTS_GHOST3, 1
 0D3D				   ENDDRAW_GHOST31:       ;JUST A MIDDLE LABEL 
				FOR JUMP
 0D3D  75 40			   JNE ENDDRAW_GHOST3
				   
				   
				
				   ;{FIRST TYPE 
 0D3F  83 3E A80B R 00		   CMP TYPE_GHOST3, 0
 0D44  BE 8728 R		   MOV SI, OFFSET GHOST3_0
 0D47  74 0D			   JE DRAW3
				   ;}
				
				   ;{SECOND TYPE 
 0D49  83 3E A80B R 01		   CMP TYPE_GHOST3, 1
 0D4E  BE 8D68 R		   MOV SI, OFFSET GHOST3_1
 0D51  74 03			   JE DRAW3
				   ;}
				
				   ;{THIRD TYPE
 0D53  BE 93A8 R		   MOV SI, OFFSET GHOST3_2
				   ;}
				
 0D56				   DRAW3:
				   DRAW_OBJECT GHOSTSIZE, SI, STARTPOS_X_GHOST3
				, STARTPOS_Y_GHOST3
 0D56  51                    1	   PUSH CX 
 0D57  53                    1	   PUSH BX 
 0D58  8B F6                 1	   MOV SI, SI  ;TAKE THE RIGHT BITMAP FROM A RE
				GISTER CONTAINING THE OFFSET 
 0D5A  8B 16 A7FF R          1	   MOV     DX, STARTPOS_Y_GHOST3     ; Y TO STA
				RT DRAWING AT 
 0D5E  8B 2E A81E R          1	   MOV BP, GHOSTSIZE 
 0D62  8A 3C                 1	   MOV BH, [SI] 
 0D64                        1	   ??0051:;{ FOR(BP = 50; BD > 0; BP--) 
 0D64  8B 0E A7FD R          1	      MOV     CX, STARTPOS_X_GHOST3    ; X TO S
Microsoft (R) Macro Assembler Version 5.10                  12/6/19 16:06:45
                                                             Page     1-276


				TART 
 0D68  8B 3E A81E R          1	      MOV DI, GHOSTSIZE 
 0D6C                        1	      ??0050:;{ FOR(DX = 50; DX > 0; DX--) 
 0D6C  AC                    1	         LODSB              ; FETCH COLOR FOR T
				HIS PIXEL 
 0D6D  3A F8                 1	         CMP BH ,AL 
 0D6F  74 04                 1	         JE ??0052 
 0D71  B4 0C                 1	         MOV     AH, 0CH    ; AH=0CH IS BIOS.WR
				ITEPIXEL 
 0D73  CD 10                 1	         INT     10H 
 0D75                        1	         ??0052: 
 0D75  41                    1	         INC     CX         ; NEXT X POSITION 
 0D76  4F                    1	         DEC     DI 
 0D77  75 F3                 1	         JNZ     ??0050 
 0D79  42                    1	      INC     DX         ; NEXT Y POSITION 
 0D7A  4D                    1	      DEC     BP 
 0D7B  75 E7                 1	      JNZ     ??0051 
 0D7D  5B                    1	      POP BX 
 0D7E  59                    1	      POP CX 
				   
				  
				
 0D7F				   ENDDRAW_GHOST3:
 0D7F  5A			   POP DX
 0D80  59			   POP CX
 0D81  5B			   POP BX
 0D82  58			   POP AX 
 0D83  C3			   RET
				;} 
 0D84				DRAW_GHOST3 ENDP
				
				
				;----------------------------------------------
				----------------------------
				; MOVES THE THIRD GHOST
				;----------------------------------------------
				---------------------------
 0D84				MOVE_GHOST3 PROC
				;{
 0D84  50			   PUSH AX
 0D85  53			   PUSH BX
 0D86  51			   PUSH CX
 0D87  52			   PUSH DX
				
 0D88  83 3E A801 R 01		   CMP EXISTS_GHOST3, 1
 0D8D  75 4C			   JNE ENDMOVE_GHOST3
 0D8F				   DOWNRIGHT_GHOST3:
				   ;{ DOWNRIGHT MOVEMENT
 0D8F  83 3E A803 R 00		      CMP MOTION_GHOST3, 0
 0D94  75 0D			      JNE DOWNLEFT_GHOST3
 0D96  83 06 A7FD R 03		      ADD STARTPOS_X_GHOST3, 3
 0D9B  83 06 A7FF R 03		      ADD STARTPOS_Y_GHOST3, 3
 0DA0  EB 39 90			      JMP ENDMOVE_GHOST3
				   ;}
Microsoft (R) Macro Assembler Version 5.10                  12/6/19 16:06:45
                                                             Page     1-277


 0DA3				   DOWNLEFT_GHOST3:
				   ;{ DOWNLEFT MOVEMENT
 0DA3  83 3E A803 R 01		      CMP MOTION_GHOST3, 1
 0DA8  75 0C			      JNE UPRIGHT_GHOST3
 0DAA  FF 0E A7FD R		      DEC STARTPOS_X_GHOST3, 3
main.ASM(3431): warning A4001: Extra characters on line
 0DAE  83 06 A7FF R 03		      ADD STARTPOS_Y_GHOST3, 3
 0DB3  EB 26 90			      JMP ENDMOVE_GHOST3
				   ;}
 0DB6				   UPRIGHT_GHOST3:
				   ;{ UPRIGHT MOVEMENT
 0DB6  83 3E A803 R 02		      CMP MOTION_GHOST3, 2
 0DBB  75 0C			      JNE UPLEFT_GHOST3
 0DBD  83 06 A7FD R 03		      ADD STARTPOS_X_GHOST3, 3
 0DC2  FF 0E A7FF R		      DEC STARTPOS_Y_GHOST3, 3
main.ASM(3440): warning A4001: Extra characters on line
 0DC6  EB 13 90			      JMP ENDMOVE_GHOST3
				   ;}
 0DC9				   UPLEFT_GHOST3:
				   ;{ UPLEFT MOVEMENT
 0DC9  83 3E A803 R 03		      CMP MOTION_GHOST3, 3
 0DCE  75 0B			      JNE ENDMOVE_GHOST3
 0DD0  FF 0E A7FD R		      DEC STARTPOS_X_GHOST3, 3
main.ASM(3447): warning A4001: Extra characters on line
 0DD4  FF 0E A7FF R		      DEC STARTPOS_Y_GHOST3, 3
main.ASM(3448): warning A4001: Extra characters on line
 0DD8  EB 01 90			      JMP ENDMOVE_GHOST3
				   ;}
				   
 0DDB				   ENDMOVE_GHOST3:
 0DDB  5A			   POP DX
 0DDC  59			   POP CX
 0DDD  5B			   POP BX
 0DDE  58			   POP AX 
 0DDF  C3			   RET
				;} 
 0DE0				MOVE_GHOST3 ENDP
				
				
				;----------------------------------------------
				-----------------------------------------------
				------
				; DRAWS THE PORTALS FROM WHICH GHOSTS COME FROM
				;----------------------------------------------
				-----------------------------------------------
				------
 0DE0				DRAW_PORTALS PROC 
				;{
				
				   ;{DRAW GHOST PORTAL
 0DE0  83 3E A7E3 R 00		   CMP EXISTS_GHOST1, 0
 0DE5  74 2D			   JE NOGHOST1
 0DE7  8D 36 99E8 R		   LEA SI, PORTAL
				   DRAW_OBJECT PORTAL_SIZE, SI, STARTPOS_X_PORT
				AL1, STARTPOS_Y_PORTAL1 
 0DEB  51                    1	   PUSH CX 
 0DEC  53                    1	   PUSH BX 
 0DED  8B F6                 1	   MOV SI, SI  ;TAKE THE RIGHT BITMAP FROM A RE
Microsoft (R) Macro Assembler Version 5.10                  12/6/19 16:06:45
                                                             Page     1-278


				GISTER CONTAINING THE OFFSET 
 0DEF  8B 16 A7EB R          1	   MOV     DX, STARTPOS_Y_PORTAL1     ; Y TO ST
				ART DRAWING AT 
 0DF3  8B 2E A81C R          1	   MOV BP, PORTAL_SIZE 
 0DF7  8A 3C                 1	   MOV BH, [SI] 
 0DF9                        1	   ??0054:;{ FOR(BP = 50; BD > 0; BP--) 
 0DF9  8B 0E A7E9 R          1	      MOV     CX, STARTPOS_X_PORTAL1    ; X TO 
				START 
 0DFD  8B 3E A81C R          1	      MOV DI, PORTAL_SIZE 
 0E01                        1	      ??0053:;{ FOR(DX = 50; DX > 0; DX--) 
 0E01  AC                    1	         LODSB              ; FETCH COLOR FOR T
				HIS PIXEL 
 0E02  3A F8                 1	         CMP BH ,AL 
 0E04  74 04                 1	         JE ??0055 
 0E06  B4 0C                 1	         MOV     AH, 0CH    ; AH=0CH IS BIOS.WR
				ITEPIXEL 
 0E08  CD 10                 1	         INT     10H 
 0E0A                        1	         ??0055: 
 0E0A  41                    1	         INC     CX         ; NEXT X POSITION 
 0E0B  4F                    1	         DEC     DI 
 0E0C  75 F3                 1	         JNZ     ??0053 
 0E0E  42                    1	      INC     DX         ; NEXT Y POSITION 
 0E0F  4D                    1	      DEC     BP 
 0E10  75 E7                 1	      JNZ     ??0054 
 0E12  5B                    1	      POP BX 
 0E13  59                    1	      POP CX 
				   ;}
				
 0E14				   NOGHOST1:
				   ;{DRAW GHOST PORTAL
 0E14  83 3E A7F2 R 00		   CMP EXISTS_GHOST2, 0
 0E19  74 2D			   JE NOGHOST2
 0E1B  8D 36 99E8 R		   LEA SI, PORTAL
				   DRAW_OBJECT PORTAL_SIZE, SI, STARTPOS_X_PORT
				AL2, STARTPOS_Y_PORTAL2 
 0E1F  51                    1	   PUSH CX 
 0E20  53                    1	   PUSH BX 
 0E21  8B F6                 1	   MOV SI, SI  ;TAKE THE RIGHT BITMAP FROM A RE
				GISTER CONTAINING THE OFFSET 
 0E23  8B 16 A7FA R          1	   MOV     DX, STARTPOS_Y_PORTAL2     ; Y TO ST
				ART DRAWING AT 
 0E27  8B 2E A81C R          1	   MOV BP, PORTAL_SIZE 
 0E2B  8A 3C                 1	   MOV BH, [SI] 
 0E2D                        1	   ??0057:;{ FOR(BP = 50; BD > 0; BP--) 
 0E2D  8B 0E A7F8 R          1	      MOV     CX, STARTPOS_X_PORTAL2    ; X TO 
				START 
 0E31  8B 3E A81C R          1	      MOV DI, PORTAL_SIZE 
 0E35                        1	      ??0056:;{ FOR(DX = 50; DX > 0; DX--) 
 0E35  AC                    1	         LODSB              ; FETCH COLOR FOR T
				HIS PIXEL 
 0E36  3A F8                 1	         CMP BH ,AL 
 0E38  74 04                 1	         JE ??0058 
 0E3A  B4 0C                 1	         MOV     AH, 0CH    ; AH=0CH IS BIOS.WR
				ITEPIXEL 
Microsoft (R) Macro Assembler Version 5.10                  12/6/19 16:06:45
                                                             Page     1-279


 0E3C  CD 10                 1	         INT     10H 
 0E3E                        1	         ??0058: 
 0E3E  41                    1	         INC     CX         ; NEXT X POSITION 
 0E3F  4F                    1	         DEC     DI 
 0E40  75 F3                 1	         JNZ     ??0056 
 0E42  42                    1	      INC     DX         ; NEXT Y POSITION 
 0E43  4D                    1	      DEC     BP 
 0E44  75 E7                 1	      JNZ     ??0057 
 0E46  5B                    1	      POP BX 
 0E47  59                    1	      POP CX 
				   ;}
 0E48				   NOGHOST2:
				   ;{DRAW GHOST PORTAL
 0E48  83 3E A801 R 00		   CMP EXISTS_GHOST3, 0
 0E4D  74 2D			   JE NOGHOST3
 0E4F  8D 36 99E8 R		   LEA SI, PORTAL
				   DRAW_OBJECT PORTAL_SIZE, SI, STARTPOS_X_PORT
				AL3, STARTPOS_Y_PORTAL3 
 0E53  51                    1	   PUSH CX 
 0E54  53                    1	   PUSH BX 
 0E55  8B F6                 1	   MOV SI, SI  ;TAKE THE RIGHT BITMAP FROM A RE
				GISTER CONTAINING THE OFFSET 
 0E57  8B 16 A809 R          1	   MOV     DX, STARTPOS_Y_PORTAL3     ; Y TO ST
				ART DRAWING AT 
 0E5B  8B 2E A81C R          1	   MOV BP, PORTAL_SIZE 
 0E5F  8A 3C                 1	   MOV BH, [SI] 
 0E61                        1	   ??005A:;{ FOR(BP = 50; BD > 0; BP--) 
 0E61  8B 0E A807 R          1	      MOV     CX, STARTPOS_X_PORTAL3    ; X TO 
				START 
 0E65  8B 3E A81C R          1	      MOV DI, PORTAL_SIZE 
 0E69                        1	      ??0059:;{ FOR(DX = 50; DX > 0; DX--) 
 0E69  AC                    1	         LODSB              ; FETCH COLOR FOR T
				HIS PIXEL 
 0E6A  3A F8                 1	         CMP BH ,AL 
 0E6C  74 04                 1	         JE ??005B 
 0E6E  B4 0C                 1	         MOV     AH, 0CH    ; AH=0CH IS BIOS.WR
				ITEPIXEL 
 0E70  CD 10                 1	         INT     10H 
 0E72                        1	         ??005B: 
 0E72  41                    1	         INC     CX         ; NEXT X POSITION 
 0E73  4F                    1	         DEC     DI 
 0E74  75 F3                 1	         JNZ     ??0059 
 0E76  42                    1	      INC     DX         ; NEXT Y POSITION 
 0E77  4D                    1	      DEC     BP 
 0E78  75 E7                 1	      JNZ     ??005A 
 0E7A  5B                    1	      POP BX 
 0E7B  59                    1	      POP CX 
				   ;}
 0E7C				   NOGHOST3:
 0E7C  C3			   RET
				;}
 0E7D				DRAW_PORTALS ENDP
				
				
Microsoft (R) Macro Assembler Version 5.10                  12/6/19 16:06:45
                                                             Page     1-280


				;----------------------------------------------
				--------------------------------------------
				 ; _             _  _        _        
				 ;| |           | || |      | |       
				 ;| |__   _   _ | || |  ___ | |_  ___ 
				 ;| '_ \ | | | || || | / _ \| __|/ __|
				 ;| |_) || |_| || || ||  __/| |_ \__ \
				 ;|_.__/  \__,_||_||_| \___| \__||___/
				 ;---------------------------------------------
				----------------------------------------------
				
				;----------------------------------------------
				-----------------------------------------------
				------
				; FIRES A BULLET FROM TANK 1 CANON SET ITS MOTI
				ON TYPE ONLY CALLED TO INTIALIZE A BULLET ONCE 
				FIRED
				;----------------------------------------------
				-----------------------------------------------
				------
 0E7D				FIRE_BULLET_1 PROC
				;{
 0E7D  50			   PUSH AX
 0E7E  53			   PUSH BX
 0E7F  51			   PUSH CX
 0E80  52			   PUSH DX
				   
				   ;IF(BULLET_1_STATUS == 1) -> ANOTHER BULLET 
				EXISTS WE CAN'T FIRE 
 0E81  83 3E A7C9 R 01		   CMP BULLET_1_STATUS,1
 0E86  74 21			      JE RET_FIRE_BUL_1   
				   ;ELSE DRAW A BULLET AT START POSITION
 0E88  C7 06 A7C9 R 0001	      MOV BULLET_1_STATUS, 1 ;TO FIRE A BULLET
				      ;INITAILIZE WITH BULLET START POSTION
 0E8E  8B 1E A7A9 R		      MOV BX , BULLET_1_START_POSITION_X
 0E92  89 1E A7C5 R		      MOV BULLET_1_POSITION_X, BX
 0E96  8B 1E A7AB R		      MOV BX, BULLET_1_START_POSITION_Y
 0E9A  89 1E A7C7 R		      MOV BULLET_1_POSITION_Y, BX
 0E9E  8B 1E A7A7 R		      MOV BX, ORIENTATION_PLAYER1 ;INTIALIZED T
				HE SAME AS THE TANK ORIENTAION
 0EA2  89 1E A7CB R		      MOV BULLET_1_MOTION_TYPE, BX
 0EA6  E8 0EAE R		      CALL DRAW_BULLET_1    
				   
 0EA9				   RET_FIRE_BUL_1:
 0EA9  5A			   POP DX
 0EAA  59			   POP CX
 0EAB  5B			   POP BX
 0EAC  58			   POP AX 
 0EAD  C3			   RET
				;}
 0EAE				FIRE_BULLET_1 ENDP
				
				;----------------------------------------------
				--------------------------------
Microsoft (R) Macro Assembler Version 5.10                  12/6/19 16:06:45
                                                             Page     1-281


				; DRAWS A BULLET 1 AT BULLET_POSTION_1 X , Y IF
				 THE BULLET EXISTS (STATUS == 1)
				;----------------------------------------------
				--------------------------------
 0EAE				DRAW_BULLET_1 PROC
				;{   
 0EAE  50			   PUSH AX
 0EAF  53			   PUSH BX
 0EB0  51			   PUSH CX
 0EB1  52			   PUSH DX
				   ;IF(BULLET STATUS = 0) -> WE WILL NOT DRAW I
				T
 0EB2  83 3E A7C9 R 01		   CMP BULLET_1_STATUS, 1
 0EB7  75 6F			   JNE RET_DRW_BUL_11   
				   ;CHECK THE BULLET IS WITHIN BOUNDARIES
				   WITHIN_BOUNDARIES BULLET_1_POSITION_X, BULLE
				T_1_POSITION_Y, BULLETSIZE , BULLET_1_STATUS ;R
				ETURNS IN BULLETSTATUS 0 IF NOT WITHIN
 0EB9  50                    1	   PUSH AX 
 0EBA  53                    1	   PUSH BX 
 0EBB  51                    1	   PUSH CX 
 0EBC  52                    1	   PUSH DX 
 0EBD  C7 06 A7C9 R 0001     1	   MOV BULLET_1_STATUS, 1           ;FIRST ASSU
				ME THAT THE SHAPE IS WITHIN BOUNDARIES 
 0EC3                        1	   ??005C: 
 0EC3  8B 0E A7C7 R          1	      MOV CX, BULLET_1_POSITION_Y 
 0EC7  8B 1E A794 R          1	      MOV BX, UPPERBOUND_Y 
 0ECB  2B CB                 1	      SUB CX, BX 
 0ECD  83 F9 00              1	      CMP CX, 0 
 0ED0  7D 06                 1	      JGE ??005D 
 0ED2  C7 06 A7C9 R 0000     1	      MOV BULLET_1_STATUS, 0 
 0ED8                        1	   ??005D: 
 0ED8  8B 0E A7C7 R          1	      MOV CX, BULLET_1_POSITION_Y 
 0EDC  03 0E A820 R          1	      ADD CX, BULLETSIZE    ;GET THE Y COORDINA
				TE OF THE LOWEST POINT OF THE TANK 
 0EE0  8B 1E A796 R          1	      MOV BX, LOWERBOUND_Y 
 0EE4  2B D9                 1	      SUB BX, CX 
 0EE6  83 FB 00              1	      CMP BX, 0  ;CURRENT Y DISTANCE TO THE BOU
				NDARY VS REMAINING DISTANCE TO THE BOUNDARY 
 0EE9  7D 06                 1	      JGE ??005F 
 0EEB  C7 06 A7C9 R 0000     1	      MOV BULLET_1_STATUS, 0 
 0EF1                        1	   ??005F: 
 0EF1  8B 0E A7C5 R          1	      MOV CX, BULLET_1_POSITION_X 
 0EF5  03 0E A820 R          1	      ADD CX, BULLETSIZE    ;GET THE Y COORDINA
				TE OF THE LOWEST POINT OF THE TANK 
 0EF9  8B 1E A79A R          1	      MOV BX, RIGHTBOUND_X 
 0EFD  2B D9                 1	      SUB BX, CX 
 0EFF  83 FB 00              1	      CMP BX, 0  ;CURRENT Y DISTANCE TO THE BOU
				NDARY VS REMAINING DISTANCE TO THE BOUNDARY 
 0F02  7D 06                 1	      JGE ??005E 
 0F04  C7 06 A7C9 R 0000     1	      MOV BULLET_1_STATUS, 0 
 0F0A                        1	   ??005E: 
 0F0A  8B 0E A7C5 R          1	      MOV CX, BULLET_1_POSITION_X 
 0F0E  8B 1E A798 R          1	      MOV BX, LEFTBOUND_X 
Microsoft (R) Macro Assembler Version 5.10                  12/6/19 16:06:45
                                                             Page     1-282


 0F12  2B CB                 1	      SUB CX, BX 
 0F14  83 F9 00              1	      CMP CX, 0 
 0F17  7D 06                 1	      JGE ??0060 
 0F19  C7 06 A7C9 R 0000     1	      MOV BULLET_1_STATUS, 0 
 0F1F                        1	   ??0060: 
 0F1F  5A                    1	   POP DX 
 0F20  59                    1	   POP CX 
 0F21  5B                    1	   POP BX 
 0F22  58                    1	   POP AX 
				   ;IF(IT IS NOT WITHIN BOUNDARIES DONNOT DRAW)
 0F23  83 3E A7C9 R 01		      CMP BULLET_1_STATUS, 1
 0F28				      RET_DRW_BUL_11:      ;USELESS LABEL FOR I
				NTERMEDIATE JUMP
 0F28  75 30			      JNE RET_DRW_BUL_1
 0F2A  8B 1E A820 R		      MOV BX , BULLETSIZE
 0F2E  BE A3AC R		      MOV SI, OFFSET Bullet_1_Model
				      DRAW_OBJECT BULLETSIZE , SI , BULLET_1_PO
				SITION_X, BULLET_1_POSITION_Y
 0F31  51                    1	   PUSH CX 
 0F32  53                    1	   PUSH BX 
 0F33  8B F6                 1	   MOV SI, SI  ;TAKE THE RIGHT BITMAP FROM A RE
				GISTER CONTAINING THE OFFSET 
 0F35  8B 16 A7C7 R          1	   MOV     DX, BULLET_1_POSITION_Y     ; Y TO S
				TART DRAWING AT 
 0F39  8B 2E A820 R          1	   MOV BP, BULLETSIZE 
 0F3D  8A 3C                 1	   MOV BH, [SI] 
 0F3F                        1	   ??0062:;{ FOR(BP = 50; BD > 0; BP--) 
 0F3F  8B 0E A7C5 R          1	      MOV     CX, BULLET_1_POSITION_X    ; X TO
				 START 
 0F43  8B 3E A820 R          1	      MOV DI, BULLETSIZE 
 0F47                        1	      ??0061:;{ FOR(DX = 50; DX > 0; DX--) 
 0F47  AC                    1	         LODSB              ; FETCH COLOR FOR T
				HIS PIXEL 
 0F48  3A F8                 1	         CMP BH ,AL 
 0F4A  74 04                 1	         JE ??0063 
 0F4C  B4 0C                 1	         MOV     AH, 0CH    ; AH=0CH IS BIOS.WR
				ITEPIXEL 
 0F4E  CD 10                 1	         INT     10H 
 0F50                        1	         ??0063: 
 0F50  41                    1	         INC     CX         ; NEXT X POSITION 
 0F51  4F                    1	         DEC     DI 
 0F52  75 F3                 1	         JNZ     ??0061 
 0F54  42                    1	      INC     DX         ; NEXT Y POSITION 
 0F55  4D                    1	      DEC     BP 
 0F56  75 E7                 1	      JNZ     ??0062 
 0F58  5B                    1	      POP BX 
 0F59  59                    1	      POP CX 
 0F5A				   RET_DRW_BUL_1:
 0F5A  5A			   POP DX
 0F5B  59			   POP CX
 0F5C  5B			   POP BX
 0F5D  58			   POP AX 
 0F5E  C3			   RET
				;}
Microsoft (R) Macro Assembler Version 5.10                  12/6/19 16:06:45
                                                             Page     1-283


 0F5F				DRAW_BULLET_1 ENDP
				;----------------------------------------------
				--------------------------------
				; MOVES BULLET 1 IF IT EXISTS ACCORDING TO ITS 
				TYPE OF MOTION
				; NOTE BULLET SPEED IS CURRENTLY HARDCODED , IN
				CREASING IT CAN BE DONE FROM THIS PROCEDURE 
				;----------------------------------------------
				--------------------------------
 0F5F				MOVE_BULLET_1 PROC 
				;{
 0F5F  50			   PUSH AX
 0F60  53			   PUSH BX
 0F61  51			   PUSH CX
 0F62  52			   PUSH DX
				   ;IF(BULLETSTATUS == 0) -> BULLET DOESNT EXIS
				T
 0F63  83 3E A7C9 R 00		   CMP BULLET_1_STATUS, 0
 0F68  74 53			   JE RET_MOV_BUL_1
				   ;ELSE IF THE BULLET EXISTS IT WILL BE MOVED 
				ACCORDING TO ITS MOTIONTYPE(0:UPWARDS, 1:UPRIGH
				T, 2:RIGHT, 3:DOWNRIGHT, 4:DOWN)
				   ;CHECK THAT IT WILL NOT GET OUT OF BOUNDARIE
				S
 0F6A  A1 A7CD R		   MOV AX ,BULLET_1_SPEED                
				   ;{
 0F6D  83 3E A7CB R 00		      CMP BULLET_1_MOTION_TYPE,0
 0F72  75 07			      JNE UPRIGHTB
 0F74  29 06 A7C7 R		      SUB BULLET_1_POSITION_Y, AX         ;MOVE
				 WITH SPEED 
 0F78  EB 43 90			      JMP RET_MOV_BUL_1
				   ;}
 0F7B				   UPRIGHTB:
				   ;{
 0F7B  83 3E A7CB R 01		      CMP BULLET_1_MOTION_TYPE,1
 0F80  75 11			      JNE RIGHTB
 0F82  2D 0008			      SUB AX,8                            ;UP R
				IGHT SPEED =NORMAL SPEED - 8      (YOU CAN CHAN
				GE IT)
 0F85  01 06 A7C5 R		      ADD BULLET_1_POSITION_X,AX
 0F89  29 06 A7C7 R		      SUB BULLET_1_POSITION_Y,AX
 0F8D  A1 A7CD R		      MOV AX,BULLET_1_SPEED               ;RESE
				T AX=SPEED OF BULLET 
 0F90  EB 2B 90			      JMP RET_MOV_BUL_1
				   ;}
 0F93				   RIGHTB:
				   ;{
 0F93  83 3E A7CB R 02		      CMP BULLET_1_MOTION_TYPE,2
 0F98  75 07			      JNE DOWNRIGHTB
 0F9A  01 06 A7C5 R		      ADD BULLET_1_POSITION_X, AX
 0F9E  EB 1D 90			      JMP RET_MOV_BUL_1 
				   ;}
 0FA1				   DOWNRIGHTB:
				   ;{
Microsoft (R) Macro Assembler Version 5.10                  12/6/19 16:06:45
                                                             Page     1-284


 0FA1  83 3E A7CB R 03		      CMP BULLET_1_MOTION_TYPE,3
 0FA6  75 11			      JNE DOWNB
 0FA8  2D 0008			      SUB AX,8                           ;DOWN 
				RIGHT SPEED =NORMAL SPEED - 8      (YOU CAN CHA
				NGE IT)
 0FAB  01 06 A7C7 R		      ADD BULLET_1_POSITION_Y, AX
 0FAF  01 06 A7C5 R		      ADD BULLET_1_POSITION_X, AX
 0FB3  A1 A7CD R		      MOV AX,BULLET_1_SPEED
 0FB6  EB 05 90			      JMP RET_MOV_BUL_1
				   ;}
 0FB9				   DOWNB:
				   ;{
 0FB9  01 06 A7C7 R		      ADD BULLET_1_POSITION_Y, AX
				   ;}
				
 0FBD				   RET_MOV_BUL_1:
 0FBD  5A			   POP DX
 0FBE  59			   POP CX
 0FBF  5B			   POP BX
 0FC0  58			   POP AX 
 0FC1  C3			   RET
				;}  
 0FC2				MOVE_BULLET_1 ENDP
				
				;----------------------------------------------
				-----------------------------------------------
				------
				; FIRES A BULLET FROM TANK 2 CANON SET ITS MOTI
				ON TYPE ONLY CALLED TO INTIALIZE A BULLET ONCE 
				FIRED
				;----------------------------------------------
				-----------------------------------------------
				------
 0FC2				FIRE_BULLET2 PROC
				;{
 0FC2  50			   PUSH AX
 0FC3  53			   PUSH BX
 0FC4  51			   PUSH CX
 0FC5  52			   PUSH DX
				   
				   ;IF(BULLET_2_STATUS == 1) -> ANOTHER BULLET 
				EXISTS WE CAN'T FIRE 
 0FC6  83 3E A7D5 R 01		   CMP BULLET_2_STATUS,1
 0FCB  74 21			      JE RET_FIRE_BUL_2   
				   ;ELSE DRAW A BULLET AT START POSITION
 0FCD  C7 06 A7D5 R 0001	      MOV BULLET_2_STATUS, 1 ;TO FIRE A BULLET
				      ;INITAILIZE WITH BULLET START POSTION
 0FD3  8B 1E A7C1 R		      MOV BX , BULLET_2_START_POSITION_X
 0FD7  89 1E A7D1 R		      MOV BULLET_2_POSITION_X, BX
 0FDB  8B 1E A7C3 R		      MOV BX, BULLET_2_START_POSITION_Y
 0FDF  89 1E A7D3 R		      MOV BULLET_2_POSITION_Y, BX
 0FE3  8B 1E A7B7 R		      MOV BX, ORIENTATION_PLAYER2 ;INTIALIZED T
				HE SAME AS THE TANK ORIENTAION
 0FE7  89 1E A7D7 R		      MOV BULLET_2_MOTION_TYPE, BX
Microsoft (R) Macro Assembler Version 5.10                  12/6/19 16:06:45
                                                             Page     1-285


 0FEB  E8 0FF3 R		      CALL DRAW_BULLET_2    
				   
 0FEE				   RET_FIRE_BUL_2:
 0FEE  5A			   POP DX
 0FEF  59			   POP CX
 0FF0  5B			   POP BX
 0FF1  58			   POP AX 
 0FF2  C3			   RET
				;}
 0FF3				FIRE_BULLET2 ENDP
				;----------------------------------------------
				--------------------------------
				; DRAWS BULLET 2 AT BULLET_POSTION_1 X , Y IF T
				HE BULLET EXISTS (STATUS == 1)
				;----------------------------------------------
				--------------------------------
 0FF3				DRAW_BULLET_2 PROC
				;{   
 0FF3  50			   PUSH AX
 0FF4  53			   PUSH BX
 0FF5  51			   PUSH CX
 0FF6  52			   PUSH DX
				   ;IF(BULLET STATUS = 0) -> WE WILL NOT DRAW I
				T
 0FF7  83 3E A7D5 R 01		   CMP BULLET_2_STATUS, 1
 0FFC  75 6F			   JNE RET_DRW_BUL_22   
				   ;CHECK THE BULLET IS WITHIN BOUNDARIES
				   WITHIN_BOUNDARIES BULLET_2_POSITION_X, BULLE
				T_2_POSITION_Y, BULLETSIZE , BULLET_2_STATUS ;R
				ETURNS IN BULLETSTATUS 0 IF NOT WITHIN
 0FFE  50                    1	   PUSH AX 
 0FFF  53                    1	   PUSH BX 
 1000  51                    1	   PUSH CX 
 1001  52                    1	   PUSH DX 
 1002  C7 06 A7D5 R 0001     1	   MOV BULLET_2_STATUS, 1           ;FIRST ASSU
				ME THAT THE SHAPE IS WITHIN BOUNDARIES 
 1008                        1	   ??0064: 
 1008  8B 0E A7D3 R          1	      MOV CX, BULLET_2_POSITION_Y 
 100C  8B 1E A794 R          1	      MOV BX, UPPERBOUND_Y 
 1010  2B CB                 1	      SUB CX, BX 
 1012  83 F9 00              1	      CMP CX, 0 
 1015  7D 06                 1	      JGE ??0065 
 1017  C7 06 A7D5 R 0000     1	      MOV BULLET_2_STATUS, 0 
 101D                        1	   ??0065: 
 101D  8B 0E A7D3 R          1	      MOV CX, BULLET_2_POSITION_Y 
 1021  03 0E A820 R          1	      ADD CX, BULLETSIZE    ;GET THE Y COORDINA
				TE OF THE LOWEST POINT OF THE TANK 
 1025  8B 1E A796 R          1	      MOV BX, LOWERBOUND_Y 
 1029  2B D9                 1	      SUB BX, CX 
 102B  83 FB 00              1	      CMP BX, 0  ;CURRENT Y DISTANCE TO THE BOU
				NDARY VS REMAINING DISTANCE TO THE BOUNDARY 
 102E  7D 06                 1	      JGE ??0067 
 1030  C7 06 A7D5 R 0000     1	      MOV BULLET_2_STATUS, 0 
 1036                        1	   ??0067: 
Microsoft (R) Macro Assembler Version 5.10                  12/6/19 16:06:45
                                                             Page     1-286


 1036  8B 0E A7D1 R          1	      MOV CX, BULLET_2_POSITION_X 
 103A  03 0E A820 R          1	      ADD CX, BULLETSIZE    ;GET THE Y COORDINA
				TE OF THE LOWEST POINT OF THE TANK 
 103E  8B 1E A79A R          1	      MOV BX, RIGHTBOUND_X 
 1042  2B D9                 1	      SUB BX, CX 
 1044  83 FB 00              1	      CMP BX, 0  ;CURRENT Y DISTANCE TO THE BOU
				NDARY VS REMAINING DISTANCE TO THE BOUNDARY 
 1047  7D 06                 1	      JGE ??0066 
 1049  C7 06 A7D5 R 0000     1	      MOV BULLET_2_STATUS, 0 
 104F                        1	   ??0066: 
 104F  8B 0E A7D1 R          1	      MOV CX, BULLET_2_POSITION_X 
 1053  8B 1E A798 R          1	      MOV BX, LEFTBOUND_X 
 1057  2B CB                 1	      SUB CX, BX 
 1059  83 F9 00              1	      CMP CX, 0 
 105C  7D 06                 1	      JGE ??0068 
 105E  C7 06 A7D5 R 0000     1	      MOV BULLET_2_STATUS, 0 
 1064                        1	   ??0068: 
 1064  5A                    1	   POP DX 
 1065  59                    1	   POP CX 
 1066  5B                    1	   POP BX 
 1067  58                    1	   POP AX 
				   ;IF(IT IS NOT WITHIN BOUNDARIES DONNOT DRAW)
 1068  83 3E A7D5 R 01		      CMP BULLET_2_STATUS, 1
 106D				      RET_DRW_BUL_22:      ;USELESS LABEL FOR I
				NTERMEDIATE JUMP
 106D  75 2C			      JNE RET_DRW_BUL_2
 106F  BE A410 R		      MOV SI, OFFSET Bullet_2_Model
				      DRAW_OBJECT BULLETSIZE , SI , BULLET_2_PO
				SITION_X, BULLET_2_POSITION_Y
 1072  51                    1	   PUSH CX 
 1073  53                    1	   PUSH BX 
 1074  8B F6                 1	   MOV SI, SI  ;TAKE THE RIGHT BITMAP FROM A RE
				GISTER CONTAINING THE OFFSET 
 1076  8B 16 A7D3 R          1	   MOV     DX, BULLET_2_POSITION_Y     ; Y TO S
				TART DRAWING AT 
 107A  8B 2E A820 R          1	   MOV BP, BULLETSIZE 
 107E  8A 3C                 1	   MOV BH, [SI] 
 1080                        1	   ??006A:;{ FOR(BP = 50; BD > 0; BP--) 
 1080  8B 0E A7D1 R          1	      MOV     CX, BULLET_2_POSITION_X    ; X TO
				 START 
 1084  8B 3E A820 R          1	      MOV DI, BULLETSIZE 
 1088                        1	      ??0069:;{ FOR(DX = 50; DX > 0; DX--) 
 1088  AC                    1	         LODSB              ; FETCH COLOR FOR T
				HIS PIXEL 
 1089  3A F8                 1	         CMP BH ,AL 
 108B  74 04                 1	         JE ??006B 
 108D  B4 0C                 1	         MOV     AH, 0CH    ; AH=0CH IS BIOS.WR
				ITEPIXEL 
 108F  CD 10                 1	         INT     10H 
 1091                        1	         ??006B: 
 1091  41                    1	         INC     CX         ; NEXT X POSITION 
 1092  4F                    1	         DEC     DI 
 1093  75 F3                 1	         JNZ     ??0069 
 1095  42                    1	      INC     DX         ; NEXT Y POSITION 
Microsoft (R) Macro Assembler Version 5.10                  12/6/19 16:06:45
                                                             Page     1-287


 1096  4D                    1	      DEC     BP 
 1097  75 E7                 1	      JNZ     ??006A 
 1099  5B                    1	      POP BX 
 109A  59                    1	      POP CX 
 109B				   RET_DRW_BUL_2:
 109B  5A			   POP DX
 109C  59			   POP CX
 109D  5B			   POP BX
 109E  58			   POP AX 
 109F  C3			   RET
				;}
 10A0				DRAW_BULLET_2 ENDP
				
				;----------------------------------------------
				-------------------------------------------
				; MOVES BULLET 2 IF IT EXISTS ACCORDING TO ITS 
				TYPE OF MOTION
				; NOTE BULLET SPEED IS CURRENTLY HARDCODED , IN
				CREASING IT CAN BE DONE FROM THIS PROCEDURE 
				;----------------------------------------------
				-------------------------------------------
 10A0				MOVE_BULLET_2 PROC 
				;{
 10A0  50			   PUSH AX
 10A1  53			   PUSH BX
 10A2  51			   PUSH CX
 10A3  52			   PUSH DX
				   ;IF(BULLETSTATUS == 0) -> BULLET DOESNT EXIS
				T
 10A4  83 3E A7D5 R 00		   CMP BULLET_2_STATUS, 0
 10A9  74 53			   JE RET_MOV_BUL_2
				   ;ELSE IF THE BULLET EXISTS IT WILL BE MOVED 
				ACCORDING TO ITS MOTIONTYPE(0:UPWARDS, 1:UPLEFT
				, 2:LEFT, 3:DOWNLEFT, 4:DOWN)
				   ;CHECK THAT IT WILL NOT GET OUT OF BOUNDARIE
				S
 10AB  A1 A7D9 R		   MOV AX,BULLET_2_SPEED
				   ;{
 10AE  83 3E A7D7 R 00		      CMP BULLET_2_MOTION_TYPE,0
 10B3  75 07			      JNE UPLEFTB
 10B5  29 06 A7D3 R		      SUB BULLET_2_POSITION_Y, AX
 10B9  EB 43 90			      JMP RET_MOV_BUL_2
				   ;}
 10BC				   UPLEFTB:
				   ;{
 10BC  83 3E A7D7 R 01		      CMP BULLET_2_MOTION_TYPE,1
 10C1  75 11			      JNE LEFTB
 10C3  2D 0008			      SUB AX,8
 10C6  29 06 A7D1 R		      SUB BULLET_2_POSITION_X,AX
 10CA  29 06 A7D3 R		      SUB BULLET_2_POSITION_Y,AX
 10CE  A1 A7D9 R		      MOV AX,BULLET_2_SPEED
 10D1  EB 2B 90			      JMP RET_MOV_BUL_2
				   ;}
 10D4				   LEFTB:
Microsoft (R) Macro Assembler Version 5.10                  12/6/19 16:06:45
                                                             Page     1-288


				   ;{
 10D4  83 3E A7D7 R 02		      CMP BULLET_2_MOTION_TYPE,2
 10D9  75 07			      JNE DOWNLEFTB
 10DB  29 06 A7D1 R		      SUB BULLET_2_POSITION_X, AX
				      
 10DF  EB 1D 90			      JMP RET_MOV_BUL_2 
				  ;}
 10E2				   DOWNLEFTB:
				   ;{
 10E2  83 3E A7D7 R 03		      CMP BULLET_2_MOTION_TYPE,3
 10E7  75 11			      JNE DOWNB2
 10E9  2D 0008			      SUB AX,8
 10EC  01 06 A7D3 R		      ADD BULLET_2_POSITION_Y, AX
 10F0  29 06 A7D1 R		      SUB BULLET_2_POSITION_X, AX
 10F4  A1 A7D9 R		      MOV AX,BULLET_2_SPEED
 10F7  EB 05 90			      JMP RET_MOV_BUL_2
				   ;}
 10FA				   DOWNB2:
				   ;{
 10FA  01 06 A7D3 R		      ADD BULLET_2_POSITION_Y, AX
				   ;}
				
 10FE				   RET_MOV_BUL_2:
 10FE  5A			   POP DX
 10FF  59			   POP CX
 1100  5B			   POP BX
 1101  58			   POP AX 
 1102  C3			   RET
				;}  
 1103				MOVE_BULLET_2 ENDP
				 
				;----------------------------------------------
				-------------------------------------------
				;Detects if bullet 1 hits tank 2 
				;----------------------------------------------
				-------------------------------------------
 1103				CHECK_HIT_BUL1_TANK2 PROC
				;{
 1103  50			   PUSH AX
 1104  53			   PUSH BX
 1105  51			   PUSH CX
 1106  52			   PUSH DX
				      DETECT_COLLISION STARTPOS_X_PLAYER2, STAR
				TPOS_Y_PLAYER2, TANKSIZE, BULLET_1_POSITION_X, 
				BULLET_1_POSITION_Y, BULLETSIZE, BULLET_1_STATU
				S
 1107  50                    1	    PUSH AX 
 1108  53                    1	    PUSH BX 
 1109  51                    1	    PUSH CX 
 110A  52                    1	    PUSH DX 
 110B  55                    1	    PUSH BP 
 110C  8B 0E A81A R          1	        MOV CX, TANKSIZE 
 1110  D1 E9                 1	        SHR CX, 1 
 1112  8B 16 A820 R          1	        MOV DX, BULLETSIZE 
Microsoft (R) Macro Assembler Version 5.10                  12/6/19 16:06:45
                                                             Page     1-289


 1116  D1 EA                 1	        SHR DX, 1 
 1118  BD 0000               1	        MOV BP , 0 
 111B  03 EA                 1	        ADD BP, DX 
 111D  03 E9                 1	        ADD BP, CX 
 111F  83 ED 03              1	        SUB BP ,3 
 1122  A1 A7AD R             1	        MOV AX, STARTPOS_X_PLAYER2 
 1125  03 C1                 1	        ADD AX, CX 
 1127  8B 1E A7C5 R          1	        MOV BX, BULLET_1_POSITION_X 
 112B  03 DA                 1	        ADD BX, DX 
 112D  3B C3                 1	        CMP AX,BX 
 112F  7C 09                 1	        JL ??006C 
 1131  2B C3                 1	        SUB AX ,BX 
 1133  3B C5                 1	        CMP AX, BP 
 1135  77 30                 1	        JA ??006E 
 1137  EB 07 90              1	        JMP ??006D 
 113A                        1	        ??006C: 
 113A  2B D8                 1	            SUB BX, AX 
 113C  3B DD                 1	            CMP BX, BP 
 113E  77 27                 1	            JA ??006E 
 1140                        1	        ??006D: 
 1140  A1 A7AF R             1	        MOV AX, STARTPOS_Y_PLAYER2 
 1143  03 C1                 1	        ADD AX, CX 
 1145  8B 1E A7C7 R          1	        MOV BX, BULLET_1_POSITION_Y 
 1149  03 DA                 1	        ADD BX, DX 
 114B  3B C3                 1	        CMP AX, BX 
 114D  7C 09                 1	        JL ??006F 
 114F  2B C3                 1	        SUB AX,BX 
 1151  3B C5                 1	        CMP AX, BP 
 1153  77 12                 1	        JA ??006E 
 1155  EB 07 90              1	        JMP ??0070 
 1158                        1	        ??006F: 
 1158  2B D8                 1	            SUB BX, AX 
 115A  3B DD                 1	            CMP BX, BP 
 115C  77 09                 1	            JA ??006E 
 115E                        1	        ??0070: 
 115E  C7 06 A7C9 R 0000     1	        MOV BULLET_1_STATUS, 0 
 1164  EB 07 90              1	        JMP ??0071 
 1167                        1	    ??006E: 
 1167  C7 06 A7C9 R 0001     1	    MOV BULLET_1_STATUS, 1 
 116D                        1	    ??0071: 
 116D  5D                    1	    POP BP 
 116E  5A                    1	    POP DX 
 116F  59                    1	    POP CX 
 1170  5B                    1	    POP BX 
 1171  58                    1	    POP AX 
				      ;IF(BULLET1 STATUS == 0) -> THEN THERE IS
				 A COLLISION 
				      ;BULLET1 SHOULD BE REMOVED WHILE TANK2 SH
				OULD LOSE HP ACCORDING TO BULLET DAMAGE
				      ;{
 1172  83 3E A7C9 R 00		         CMP BULLET_1_STATUS, 0
 1177  75 19			         JNE NOHIT1
				         ;MAY BE SPLIT IN ANOTHER PROCEDURE JUS
				TFOR TESTING FOR NOW
Microsoft (R) Macro Assembler Version 5.10                  12/6/19 16:06:45
                                                             Page     1-290


				         ;SUBTRACT THE DAMAGE FROM TANK2
 1179  A1 A7A5 R		         MOV AX, TANK_DMG_1         
 117C  39 06 A7B1 R		         CMP TANK_HP_2,AX             ;IF HP<= 
				THE OTHER TANK DAMAGE THIS PLAYER WILL LOSE
 1180  7E 07			         JLE LOSER2
				         
 1182  29 06 A7B1 R		         SUB TANK_HP_2, AX            ;OTHERWIS
				E HIS HP WILL DECREASE BY THE OTHER TANK DAMAGE
 1186  EB 0A 90			         JMP NOHIT1
				
 1189				      LOSER2: 
 1189  C7 06 A824 R 0001	      MOV WINNER ,1                   ;SET WHO 
				IS THE WINNER
 118F  E8 1BC8 R		      CALL PLAYER_LOST                ;TO PRINT
				 RESULTS    
				      ;}
 1192				   NOHIT1:   
 1192  5A			   POP DX
 1193  59			   POP CX
 1194  5B			   POP BX
 1195  58			   POP AX
 1196  C3			   RET
				;}   
 1197				CHECK_HIT_BUL1_TANK2 ENDP
				
				;----------------------------------------------
				-------------------------------------------
				;Detects if bullet 1 hits Ghost1 
				;----------------------------------------------
				-------------------------------------------
 1197				CHECK_HIT_BUL1_GHOST1 PROC
				;{
 1197  50			   PUSH AX
 1198  53			   PUSH BX
 1199  51			   PUSH CX
 119A  52			   PUSH DX
				      ;(BULLET_1_STATUS IS 0 IF IT COLLIDES 1 O
				THERWISE)
				      DETECT_COLLISION BULLET_1_POSITION_X, BUL
				LET_1_POSITION_Y, BULLETSIZE, STARTPOS_X_GHOST1
				, STARTPOS_Y_GHOST1, GHOSTSIZE, BULLET_1_STATUS
				     
 119B  50                    1	    PUSH AX 
 119C  53                    1	    PUSH BX 
 119D  51                    1	    PUSH CX 
 119E  52                    1	    PUSH DX 
 119F  55                    1	    PUSH BP 
 11A0  8B 0E A820 R          1	        MOV CX, BULLETSIZE 
 11A4  D1 E9                 1	        SHR CX, 1 
 11A6  8B 16 A81E R          1	        MOV DX, GHOSTSIZE 
 11AA  D1 EA                 1	        SHR DX, 1 
 11AC  BD 0000               1	        MOV BP , 0 
 11AF  03 EA                 1	        ADD BP, DX 
 11B1  03 E9                 1	        ADD BP, CX 
Microsoft (R) Macro Assembler Version 5.10                  12/6/19 16:06:45
                                                             Page     1-291


 11B3  83 ED 03              1	        SUB BP ,3 
 11B6  A1 A7C5 R             1	        MOV AX, BULLET_1_POSITION_X 
 11B9  03 C1                 1	        ADD AX, CX 
 11BB  8B 1E A7DF R          1	        MOV BX, STARTPOS_X_GHOST1 
 11BF  03 DA                 1	        ADD BX, DX 
 11C1  3B C3                 1	        CMP AX,BX 
 11C3  7C 09                 1	        JL ??0072 
 11C5  2B C3                 1	        SUB AX ,BX 
 11C7  3B C5                 1	        CMP AX, BP 
 11C9  77 30                 1	        JA ??0074 
 11CB  EB 07 90              1	        JMP ??0073 
 11CE                        1	        ??0072: 
 11CE  2B D8                 1	            SUB BX, AX 
 11D0  3B DD                 1	            CMP BX, BP 
 11D2  77 27                 1	            JA ??0074 
 11D4                        1	        ??0073: 
 11D4  A1 A7C7 R             1	        MOV AX, BULLET_1_POSITION_Y 
 11D7  03 C1                 1	        ADD AX, CX 
 11D9  8B 1E A7E1 R          1	        MOV BX, STARTPOS_Y_GHOST1 
 11DD  03 DA                 1	        ADD BX, DX 
 11DF  3B C3                 1	        CMP AX, BX 
 11E1  7C 09                 1	        JL ??0075 
 11E3  2B C3                 1	        SUB AX,BX 
 11E5  3B C5                 1	        CMP AX, BP 
 11E7  77 12                 1	        JA ??0074 
 11E9  EB 07 90              1	        JMP ??0076 
 11EC                        1	        ??0075: 
 11EC  2B D8                 1	            SUB BX, AX 
 11EE  3B DD                 1	            CMP BX, BP 
 11F0  77 09                 1	            JA ??0074 
 11F2                        1	        ??0076: 
 11F2  C7 06 A7C9 R 0000     1	        MOV BULLET_1_STATUS, 0 
 11F8  EB 07 90              1	        JMP ??0077 
 11FB                        1	    ??0074: 
 11FB  C7 06 A7C9 R 0001     1	    MOV BULLET_1_STATUS, 1 
 1201                        1	    ??0077: 
 1201  5D                    1	    POP BP 
 1202  5A                    1	    POP DX 
 1203  59                    1	    POP CX 
 1204  5B                    1	    POP BX 
 1205  58                    1	    POP AX 
 1206  83 3E A7C9 R 00		      CMP BULLET_1_STATUS, 0
 120B  75 48			      JNE GHOST1_LIVES
				
				      ;POWER-UPS
				      ;( 
 120D  83 3E A7E7 R 00		      CMP POWERUP_GHOST1,0         ;IF POWERUPS
				=0 IT WILL INCREASE THE HP BY 1 UNLESS HE HAS H
				P=10
 1212  74 02			      JZ HP_LIMIT1
 1214  75 0F			      JNZ SPEED_INCREASE1
				      ;)
 1216				      HP_LIMIT1:
				      ;(
Microsoft (R) Macro Assembler Version 5.10                  12/6/19 16:06:45
                                                             Page     1-292


 1216  83 3E A7A1 R 0A		      CMP TANK_HP_1,10                     
 121B  74 2C			      JZ T1_KILL_G1                ;IF HP=10 KI
				LL THE GHOST WITHOUT INCREASING HP
 121D  83 06 A7A1 R 01		      ADD TANK_HP_1,1
 1222  EB 25 90			      JMP T1_KILL_G1
				      ;)
				
 1225				      SPEED_INCREASE1:
				      ;(
 1225  83 3E A7E7 R 01		      CMP POWERUP_GHOST1,1         ;IF POWERUPS
				=1 THE SPEED WILL INCREASE BUT IT HAS LIMIT (AT
				 MOST 3 TIMES)
 122A  74 0B			      JZ SPEED_LIMIT1
 122C  75 00			      JNZ INCREASE_DAMAGE1
				      ;)
 122E				      INCREASE_DAMAGE1:
				      ;(
 122E  C7 06 A7A5 R 0002	          MOV TANK_DMG_1,2        ;IF POWERUPS=
				2  THE TANK DAMAGE WILL BE 2 
 1234  EB 13 90			          JMP T1_KILL_G1
				      ;)
 1237				      SPEED_LIMIT1:
				      ;(
 1237  83 3E A7CF R 03		               CMP BULLET_1_SPEED_POWER_NUM,3  
				        ;IF NUMBER OF SPEED POWERUPS =3 KILL TH
				E GHOST ONLY
 123C  7D 0B			               JNL T1_KILL_G1
 123E  A1 A7DD R		               MOV AX,BULLET_SPEED_POWERUPS
 1241  01 06 A7CD R		               ADD BULLET_1_SPEED,AX
 1245  FF 06 A7CF R		               INC BULLET_1_SPEED_POWER_NUM
				      ;)
 1249				    T1_KILL_G1:  
				     ;(      
				      ;GHOST 1 SHOULD DIE, WE MAY CHECK FOR POW
				ER-UPS HERE
 1249  C7 06 A7E3 R 0000	      MOV EXISTS_GHOST1, 0
				      ;THROW GHOST1 OUT OF BOUNDARIES TO AVOID 
				BEING HIT WHILE TRANSPARENT
 124F  81 2E A7E1 R 0258	      SUB STARTPOS_Y_GHOST1, 600
				      ;)
 1255				   GHOST1_LIVES:   
 1255  5A			   POP DX
 1256  59			   POP CX
 1257  5B			   POP BX
 1258  58			   POP AX
 1259  C3			   RET
				;}   
 125A				CHECK_HIT_BUL1_GHOST1 ENDP
				
				;----------------------------------------------
				-------------------------------------------
				;Detects if bullet 1 hits Ghost2 
				;----------------------------------------------
				-------------------------------------------
Microsoft (R) Macro Assembler Version 5.10                  12/6/19 16:06:45
                                                             Page     1-293


 125A				CHECK_HIT_BUL1_GHOST2 PROC
				;{
 125A  50			   PUSH AX
 125B  53			   PUSH BX
 125C  51			   PUSH CX
 125D  52			   PUSH DX
				      ;(BULLET_1_STATUS IS 0 IF IT COLLIDES 1 O
				THERWISE)
				      DETECT_COLLISION BULLET_1_POSITION_X, BUL
				LET_1_POSITION_Y, BULLETSIZE, STARTPOS_X_GHOST2
				, STARTPOS_Y_GHOST2, GHOSTSIZE, BULLET_1_STATUS
				     
 125E  50                    1	    PUSH AX 
 125F  53                    1	    PUSH BX 
 1260  51                    1	    PUSH CX 
 1261  52                    1	    PUSH DX 
 1262  55                    1	    PUSH BP 
 1263  8B 0E A820 R          1	        MOV CX, BULLETSIZE 
 1267  D1 E9                 1	        SHR CX, 1 
 1269  8B 16 A81E R          1	        MOV DX, GHOSTSIZE 
 126D  D1 EA                 1	        SHR DX, 1 
 126F  BD 0000               1	        MOV BP , 0 
 1272  03 EA                 1	        ADD BP, DX 
 1274  03 E9                 1	        ADD BP, CX 
 1276  83 ED 03              1	        SUB BP ,3 
 1279  A1 A7C5 R             1	        MOV AX, BULLET_1_POSITION_X 
 127C  03 C1                 1	        ADD AX, CX 
 127E  8B 1E A7EE R          1	        MOV BX, STARTPOS_X_GHOST2 
 1282  03 DA                 1	        ADD BX, DX 
 1284  3B C3                 1	        CMP AX,BX 
 1286  7C 09                 1	        JL ??0078 
 1288  2B C3                 1	        SUB AX ,BX 
 128A  3B C5                 1	        CMP AX, BP 
 128C  77 30                 1	        JA ??007A 
 128E  EB 07 90              1	        JMP ??0079 
 1291                        1	        ??0078: 
 1291  2B D8                 1	            SUB BX, AX 
 1293  3B DD                 1	            CMP BX, BP 
 1295  77 27                 1	            JA ??007A 
 1297                        1	        ??0079: 
 1297  A1 A7C7 R             1	        MOV AX, BULLET_1_POSITION_Y 
 129A  03 C1                 1	        ADD AX, CX 
 129C  8B 1E A7F0 R          1	        MOV BX, STARTPOS_Y_GHOST2 
 12A0  03 DA                 1	        ADD BX, DX 
 12A2  3B C3                 1	        CMP AX, BX 
 12A4  7C 09                 1	        JL ??007B 
 12A6  2B C3                 1	        SUB AX,BX 
 12A8  3B C5                 1	        CMP AX, BP 
 12AA  77 12                 1	        JA ??007A 
 12AC  EB 07 90              1	        JMP ??007C 
 12AF                        1	        ??007B: 
 12AF  2B D8                 1	            SUB BX, AX 
 12B1  3B DD                 1	            CMP BX, BP 
 12B3  77 09                 1	            JA ??007A 
Microsoft (R) Macro Assembler Version 5.10                  12/6/19 16:06:45
                                                             Page     1-294


 12B5                        1	        ??007C: 
 12B5  C7 06 A7C9 R 0000     1	        MOV BULLET_1_STATUS, 0 
 12BB  EB 07 90              1	        JMP ??007D 
 12BE                        1	    ??007A: 
 12BE  C7 06 A7C9 R 0001     1	    MOV BULLET_1_STATUS, 1 
 12C4                        1	    ??007D: 
 12C4  5D                    1	    POP BP 
 12C5  5A                    1	    POP DX 
 12C6  59                    1	    POP CX 
 12C7  5B                    1	    POP BX 
 12C8  58                    1	    POP AX 
 12C9  83 3E A7C9 R 00		      CMP BULLET_1_STATUS, 0
 12CE  75 48			      JNE GHOST2_LIVES
				      ;POWER-UPS
				      ;( 
 12D0  83 3E A7F6 R 00		      CMP POWERUP_GHOST2,0
 12D5  74 02			      JZ HP_LIMIT2
 12D7  75 0F			      JNZ SPEED_INCREASE2
				      ;)
 12D9				      HP_LIMIT2:
				      ;(
 12D9  83 3E A7A1 R 0A		      CMP TANK_HP_1,10
 12DE  74 2C			      JZ T1_KILL_G2
 12E0  83 06 A7A1 R 01		      ADD TANK_HP_1,1
 12E5  EB 25 90			      JMP T1_KILL_G2
				      ;)
				
 12E8				      SPEED_INCREASE2:
				      ;(
 12E8  83 3E A7F6 R 01		      CMP POWERUP_GHOST2,1
 12ED  74 0B			      JZ SPEED_LIMIT2
 12EF  75 00			      JNZ INCREASE_DAMAGE2
				      ;)
 12F1				      INCREASE_DAMAGE2:
				      ;(
				           
 12F1  C7 06 A7A5 R 0002	          MOV TANK_DMG_1,2
 12F7  EB 13 90			          JMP T1_KILL_G2
				      ;)
 12FA				      SPEED_LIMIT2:
				      ;( 
 12FA  83 3E A7CF R 03		               CMP BULLET_1_SPEED_POWER_NUM,3
 12FF  7D 0B			               JNL T1_KILL_G2
 1301  A1 A7DD R		               MOV AX,BULLET_SPEED_POWERUPS
 1304  01 06 A7CD R		               ADD BULLET_1_SPEED,AX
 1308  FF 06 A7CF R		               INC BULLET_1_SPEED_POWER_NUM
				      ;)
 130C				    T1_KILL_G2:  
				      ;(
				      ;GHOST 2 SHOULD DIE, WE MAY CHECK FOR POW
				ER-UPS HERE
 130C  C7 06 A7F2 R 0000	      MOV EXISTS_GHOST2, 0
				      ;THROW GHOST2 OUT OF BOUNDARIES TO AVOID 
				BEING HIT WHILE TRANSPARENT
Microsoft (R) Macro Assembler Version 5.10                  12/6/19 16:06:45
                                                             Page     1-295


 1312  81 2E A7F0 R 0258	      SUB STARTPOS_Y_GHOST2, 600
				      ;)
 1318				   GHOST2_LIVES:   
 1318  5A			   POP DX
 1319  59			   POP CX
 131A  5B			   POP BX
 131B  58			   POP AX
 131C  C3			   RET
				;}   
 131D				CHECK_HIT_BUL1_GHOST2 ENDP
				
				;----------------------------------------------
				-------------------------------------------
				;Detects if bullet 1 hits Ghost3 
				;----------------------------------------------
				-------------------------------------------
 131D				CHECK_HIT_BUL1_GHOST3 PROC
				;{
 131D  50			   PUSH AX
 131E  53			   PUSH BX
 131F  51			   PUSH CX
 1320  52			   PUSH DX
				      ;(BULLET_1_STATUS IS 0 IF IT COLLIDES 1 O
				THERWISE)
				      DETECT_COLLISION BULLET_1_POSITION_X, BUL
				LET_1_POSITION_Y, BULLETSIZE, STARTPOS_X_GHOST3
				, STARTPOS_Y_GHOST3, GHOSTSIZE, BULLET_1_STATUS
				     
 1321  50                    1	    PUSH AX 
 1322  53                    1	    PUSH BX 
 1323  51                    1	    PUSH CX 
 1324  52                    1	    PUSH DX 
 1325  55                    1	    PUSH BP 
 1326  8B 0E A820 R          1	        MOV CX, BULLETSIZE 
 132A  D1 E9                 1	        SHR CX, 1 
 132C  8B 16 A81E R          1	        MOV DX, GHOSTSIZE 
 1330  D1 EA                 1	        SHR DX, 1 
 1332  BD 0000               1	        MOV BP , 0 
 1335  03 EA                 1	        ADD BP, DX 
 1337  03 E9                 1	        ADD BP, CX 
 1339  83 ED 03              1	        SUB BP ,3 
 133C  A1 A7C5 R             1	        MOV AX, BULLET_1_POSITION_X 
 133F  03 C1                 1	        ADD AX, CX 
 1341  8B 1E A7FD R          1	        MOV BX, STARTPOS_X_GHOST3 
 1345  03 DA                 1	        ADD BX, DX 
 1347  3B C3                 1	        CMP AX,BX 
 1349  7C 09                 1	        JL ??007E 
 134B  2B C3                 1	        SUB AX ,BX 
 134D  3B C5                 1	        CMP AX, BP 
 134F  77 30                 1	        JA ??0080 
 1351  EB 07 90              1	        JMP ??007F 
 1354                        1	        ??007E: 
 1354  2B D8                 1	            SUB BX, AX 
 1356  3B DD                 1	            CMP BX, BP 
Microsoft (R) Macro Assembler Version 5.10                  12/6/19 16:06:45
                                                             Page     1-296


 1358  77 27                 1	            JA ??0080 
 135A                        1	        ??007F: 
 135A  A1 A7C7 R             1	        MOV AX, BULLET_1_POSITION_Y 
 135D  03 C1                 1	        ADD AX, CX 
 135F  8B 1E A7FF R          1	        MOV BX, STARTPOS_Y_GHOST3 
 1363  03 DA                 1	        ADD BX, DX 
 1365  3B C3                 1	        CMP AX, BX 
 1367  7C 09                 1	        JL ??0081 
 1369  2B C3                 1	        SUB AX,BX 
 136B  3B C5                 1	        CMP AX, BP 
 136D  77 12                 1	        JA ??0080 
 136F  EB 07 90              1	        JMP ??0082 
 1372                        1	        ??0081: 
 1372  2B D8                 1	            SUB BX, AX 
 1374  3B DD                 1	            CMP BX, BP 
 1376  77 09                 1	            JA ??0080 
 1378                        1	        ??0082: 
 1378  C7 06 A7C9 R 0000     1	        MOV BULLET_1_STATUS, 0 
 137E  EB 07 90              1	        JMP ??0083 
 1381                        1	    ??0080: 
 1381  C7 06 A7C9 R 0001     1	    MOV BULLET_1_STATUS, 1 
 1387                        1	    ??0083: 
 1387  5D                    1	    POP BP 
 1388  5A                    1	    POP DX 
 1389  59                    1	    POP CX 
 138A  5B                    1	    POP BX 
 138B  58                    1	    POP AX 
 138C  83 3E A7C9 R 00		      CMP BULLET_1_STATUS, 0
 1391  75 48			      JNE GHOST3_LIVES
				      ;POWER-UPS
				      ;( 
 1393  83 3E A805 R 00		      CMP POWERUP_GHOST3,0
 1398  74 02			      JZ HP_LIMIT3
 139A  75 0F			      JNZ SPEED_INCREASE3
				      ;)
 139C				      HP_LIMIT3:
				      ;(
 139C  83 3E A7A1 R 0A		      CMP TANK_HP_1,10
 13A1  74 2C			      JZ T1_KILL_G3
 13A3  83 06 A7A1 R 01		      ADD TANK_HP_1,1
 13A8  EB 25 90			      JMP T1_KILL_G3
				      ;)
				
 13AB				      SPEED_INCREASE3:
				      ;(
 13AB  83 3E A805 R 01		      CMP POWERUP_GHOST3,1
 13B0  74 0B			      JZ SPEED_LIMIT3
 13B2  75 00			      JNZ INCREASE_DAMAGE3
				      ;)
 13B4				      INCREASE_DAMAGE3:
				      ;(
				          
 13B4  C7 06 A7A5 R 0002	          MOV TANK_DMG_1,2
 13BA  EB 13 90			          JMP T1_KILL_G3
Microsoft (R) Macro Assembler Version 5.10                  12/6/19 16:06:45
                                                             Page     1-297


				      ;)
 13BD				      SPEED_LIMIT3:
				      ;(
 13BD  83 3E A7CF R 03		               CMP BULLET_1_SPEED_POWER_NUM,3
 13C2  7D 0B			               JNL T1_KILL_G3
 13C4  A1 A7DD R		               MOV AX,BULLET_SPEED_POWERUPS
 13C7  01 06 A7CD R		               ADD BULLET_1_SPEED,AX
 13CB  FF 06 A7CF R		               INC BULLET_1_SPEED_POWER_NUM
				      ;)
 13CF				    T1_KILL_G3:  
				      ;GHOST 3 SHOULD DIE, WE MAY CHECK FOR POW
				ER-UPS HERE
 13CF  C7 06 A801 R 0000	      MOV EXISTS_GHOST3, 0
				      ;THROW GHOST3 OUT OF BOUNDARIES TO AVOID 
				BEING HIT WHILE TRANSPARENT
 13D5  81 2E A7FF R 0258	      SUB STARTPOS_Y_GHOST3, 600
 13DB				   GHOST3_LIVES:   
 13DB  5A			   POP DX
 13DC  59			   POP CX
 13DD  5B			   POP BX
 13DE  58			   POP AX
 13DF  C3			   RET
				;}   
 13E0				CHECK_HIT_BUL1_GHOST3 ENDP
				
				;----------------------------------------------
				-------------------------------------------
				;Detects if bullet 2 hits tank 1 
				;----------------------------------------------
				-------------------------------------------
 13E0				CHECK_HIT_BUL2_TANK1 PROC
				;{
 13E0  50			   PUSH AX
 13E1  53			   PUSH BX
 13E2  51			   PUSH CX
 13E3  52			   PUSH DX
				      DETECT_COLLISION STARTPOS_X_PLAYER1, STAR
				TPOS_Y_PLAYER1, TANKSIZE, BULLET_2_POSITION_X, 
				BULLET_2_POSITION_Y, BULLETSIZE, BULLET_2_STATU
				S
 13E4  50                    1	    PUSH AX 
 13E5  53                    1	    PUSH BX 
 13E6  51                    1	    PUSH CX 
 13E7  52                    1	    PUSH DX 
 13E8  55                    1	    PUSH BP 
 13E9  8B 0E A81A R          1	        MOV CX, TANKSIZE 
 13ED  D1 E9                 1	        SHR CX, 1 
 13EF  8B 16 A820 R          1	        MOV DX, BULLETSIZE 
 13F3  D1 EA                 1	        SHR DX, 1 
 13F5  BD 0000               1	        MOV BP , 0 
 13F8  03 EA                 1	        ADD BP, DX 
 13FA  03 E9                 1	        ADD BP, CX 
 13FC  83 ED 03              1	        SUB BP ,3 
 13FF  A1 A79D R             1	        MOV AX, STARTPOS_X_PLAYER1 
Microsoft (R) Macro Assembler Version 5.10                  12/6/19 16:06:45
                                                             Page     1-298


 1402  03 C1                 1	        ADD AX, CX 
 1404  8B 1E A7D1 R          1	        MOV BX, BULLET_2_POSITION_X 
 1408  03 DA                 1	        ADD BX, DX 
 140A  3B C3                 1	        CMP AX,BX 
 140C  7C 09                 1	        JL ??0084 
 140E  2B C3                 1	        SUB AX ,BX 
 1410  3B C5                 1	        CMP AX, BP 
 1412  77 30                 1	        JA ??0086 
 1414  EB 07 90              1	        JMP ??0085 
 1417                        1	        ??0084: 
 1417  2B D8                 1	            SUB BX, AX 
 1419  3B DD                 1	            CMP BX, BP 
 141B  77 27                 1	            JA ??0086 
 141D                        1	        ??0085: 
 141D  A1 A79F R             1	        MOV AX, STARTPOS_Y_PLAYER1 
 1420  03 C1                 1	        ADD AX, CX 
 1422  8B 1E A7D3 R          1	        MOV BX, BULLET_2_POSITION_Y 
 1426  03 DA                 1	        ADD BX, DX 
 1428  3B C3                 1	        CMP AX, BX 
 142A  7C 09                 1	        JL ??0087 
 142C  2B C3                 1	        SUB AX,BX 
 142E  3B C5                 1	        CMP AX, BP 
 1430  77 12                 1	        JA ??0086 
 1432  EB 07 90              1	        JMP ??0088 
 1435                        1	        ??0087: 
 1435  2B D8                 1	            SUB BX, AX 
 1437  3B DD                 1	            CMP BX, BP 
 1439  77 09                 1	            JA ??0086 
 143B                        1	        ??0088: 
 143B  C7 06 A7D5 R 0000     1	        MOV BULLET_2_STATUS, 0 
 1441  EB 07 90              1	        JMP ??0089 
 1444                        1	    ??0086: 
 1444  C7 06 A7D5 R 0001     1	    MOV BULLET_2_STATUS, 1 
 144A                        1	    ??0089: 
 144A  5D                    1	    POP BP 
 144B  5A                    1	    POP DX 
 144C  59                    1	    POP CX 
 144D  5B                    1	    POP BX 
 144E  58                    1	    POP AX 
				      ;IF(BULLET1 STATUS == 0) -> THEN THERE IS
				 A COLLISION 
				      ;BULLET1 SHOULD BE REMOVED WHILE TANK2 SH
				OULD LOSE HP ACCORDING TO BULLET DAMAGE
				      ;{
 144F  83 3E A7D5 R 00		         CMP BULLET_2_STATUS, 0
 1454  75 19			         JNE NOHIT2
				         ;MAY BE SPLIT IN ANOTHER PROCEDURE JUS
				TFOR TESTING FOR NOW
				         ;SUBTRACT THE DAMAGE FROM TANK2
 1456  A1 A7B5 R		         MOV AX, TANK_DMG_2        ;IF HP<= THE
				 OTHER TANK DAMAGE THIS PLAYER WILL LOSE
 1459  39 06 A7A1 R		         CMP TANK_HP_1,AX
 145D  7E 07			         JLE LOSER1
 145F  29 06 A7A1 R		         SUB TANK_HP_1, AX         ;OTHERWISE H
Microsoft (R) Macro Assembler Version 5.10                  12/6/19 16:06:45
                                                             Page     1-299


				IS HP WILL DECREASE BY THE OTHER TANK DAMAGE
 1463  EB 0A 90			         JMP NOHIT2
 1466				         LOSER1:
 1466  C7 06 A824 R 0002	         MOV WINNER,2
 146C  E8 1BC8 R		         CALL PLAYER_LOST
				      ;}
 146F				   NOHIT2:   
 146F  5A			   POP DX
 1470  59			   POP CX
 1471  5B			   POP BX
 1472  58			   POP AX
 1473  C3			   RET
				;}   
 1474				CHECK_HIT_BUL2_TANK1 ENDP
				
				;----------------------------------------------
				-------------------------------------------
				;Detects if bullet 2 hits Ghost1 
				;----------------------------------------------
				-------------------------------------------
 1474				CHECK_HIT_BUL2_GHOST1 PROC
				;{
 1474  50			   PUSH AX
 1475  53			   PUSH BX
 1476  51			   PUSH CX
 1477  52			   PUSH DX
				      ;(BULLET_1_STATUS IS 0 IF IT COLLIDES 1 O
				THERWISE)
				      DETECT_COLLISION BULLET_2_POSITION_X, BUL
				LET_2_POSITION_Y, BULLETSIZE, STARTPOS_X_GHOST1
				, STARTPOS_Y_GHOST1, GHOSTSIZE, BULLET_2_STATUS
				     
 1478  50                    1	    PUSH AX 
 1479  53                    1	    PUSH BX 
 147A  51                    1	    PUSH CX 
 147B  52                    1	    PUSH DX 
 147C  55                    1	    PUSH BP 
 147D  8B 0E A820 R          1	        MOV CX, BULLETSIZE 
 1481  D1 E9                 1	        SHR CX, 1 
 1483  8B 16 A81E R          1	        MOV DX, GHOSTSIZE 
 1487  D1 EA                 1	        SHR DX, 1 
 1489  BD 0000               1	        MOV BP , 0 
 148C  03 EA                 1	        ADD BP, DX 
 148E  03 E9                 1	        ADD BP, CX 
 1490  83 ED 03              1	        SUB BP ,3 
 1493  A1 A7D1 R             1	        MOV AX, BULLET_2_POSITION_X 
 1496  03 C1                 1	        ADD AX, CX 
 1498  8B 1E A7DF R          1	        MOV BX, STARTPOS_X_GHOST1 
 149C  03 DA                 1	        ADD BX, DX 
 149E  3B C3                 1	        CMP AX,BX 
 14A0  7C 09                 1	        JL ??008A 
 14A2  2B C3                 1	        SUB AX ,BX 
 14A4  3B C5                 1	        CMP AX, BP 
 14A6  77 30                 1	        JA ??008C 
Microsoft (R) Macro Assembler Version 5.10                  12/6/19 16:06:45
                                                             Page     1-300


 14A8  EB 07 90              1	        JMP ??008B 
 14AB                        1	        ??008A: 
 14AB  2B D8                 1	            SUB BX, AX 
 14AD  3B DD                 1	            CMP BX, BP 
 14AF  77 27                 1	            JA ??008C 
 14B1                        1	        ??008B: 
 14B1  A1 A7D3 R             1	        MOV AX, BULLET_2_POSITION_Y 
 14B4  03 C1                 1	        ADD AX, CX 
 14B6  8B 1E A7E1 R          1	        MOV BX, STARTPOS_Y_GHOST1 
 14BA  03 DA                 1	        ADD BX, DX 
 14BC  3B C3                 1	        CMP AX, BX 
 14BE  7C 09                 1	        JL ??008D 
 14C0  2B C3                 1	        SUB AX,BX 
 14C2  3B C5                 1	        CMP AX, BP 
 14C4  77 12                 1	        JA ??008C 
 14C6  EB 07 90              1	        JMP ??008E 
 14C9                        1	        ??008D: 
 14C9  2B D8                 1	            SUB BX, AX 
 14CB  3B DD                 1	            CMP BX, BP 
 14CD  77 09                 1	            JA ??008C 
 14CF                        1	        ??008E: 
 14CF  C7 06 A7D5 R 0000     1	        MOV BULLET_2_STATUS, 0 
 14D5  EB 07 90              1	        JMP ??008F 
 14D8                        1	    ??008C: 
 14D8  C7 06 A7D5 R 0001     1	    MOV BULLET_2_STATUS, 1 
 14DE                        1	    ??008F: 
 14DE  5D                    1	    POP BP 
 14DF  5A                    1	    POP DX 
 14E0  59                    1	    POP CX 
 14E1  5B                    1	    POP BX 
 14E2  58                    1	    POP AX 
 14E3  83 3E A7D5 R 00		      CMP BULLET_2_STATUS, 0
 14E8  75 48			      JNE GHOST1_LIVES2
				      ;POWER-UPS
				      ;( 
 14EA  83 3E A7E7 R 00		      CMP POWERUP_GHOST1,0
 14EF  74 02			      JZ HP2_LIMIT1
 14F1  75 0F			      JNZ SPEED2_INCREASE1
				      ;)
 14F3				      HP2_LIMIT1:
				      ;(
 14F3  83 3E A7B1 R 0A		      CMP TANK_HP_2,10
 14F8  74 2C			      JZ T2_KILL_G1
 14FA  83 06 A7B1 R 01		      ADD TANK_HP_2,1
 14FF  EB 25 90			      JMP T2_KILL_G1
				      ;)
				
 1502				      SPEED2_INCREASE1:
				      ;(
 1502  83 3E A7E7 R 01		      CMP POWERUP_GHOST1,1
 1507  74 0B			      JZ SPEED2_LIMIT1
 1509  75 00			      JNZ INCREASE2_DAMAGE1
				      ;)
 150B				      INCREASE2_DAMAGE1:
Microsoft (R) Macro Assembler Version 5.10                  12/6/19 16:06:45
                                                             Page     1-301


				      ;(
				           
 150B  C7 06 A7B5 R 0002	          MOV TANK_DMG_2,2
 1511  EB 13 90			          JMP T2_KILL_G1
				      ;)
 1514				      SPEED2_LIMIT1:
				      ;(
 1514  83 3E A7DB R 03		               CMP BULLET_2_SPEED_POWER_NUM,3
 1519  7D 0B			               JNL T2_KILL_G1
 151B  A1 A7DD R		               MOV AX,BULLET_SPEED_POWERUPS
 151E  01 06 A7D9 R		               ADD BULLET_2_SPEED,AX
 1522  FF 06 A7DB R		               INC BULLET_2_SPEED_POWER_NUM
				      ;)
				      ;GHOST 1 SHOULD DIE, WE MAY CHECK FOR POW
				ER-UPS HERE
 1526				      T2_KILL_G1:
				      ;(
 1526  C7 06 A7E3 R 0000	      MOV EXISTS_GHOST1, 0
				      ;THROW GHOST1 OUT OF BOUNDARIES TO AVOID 
				BEING HIT WHILE TRANSPARENT
 152C  81 2E A7E1 R 0258	      SUB STARTPOS_Y_GHOST1, 600
				      ;)
 1532				   GHOST1_LIVES2:   
 1532  5A			   POP DX
 1533  59			   POP CX
 1534  5B			   POP BX
 1535  58			   POP AX
 1536  C3			   RET
				;}   
 1537				CHECK_HIT_BUL2_GHOST1 ENDP
				
				;----------------------------------------------
				-------------------------------------------
				;Detects if bullet 2 hits Ghost2 
				;----------------------------------------------
				-------------------------------------------
 1537				CHECK_HIT_BUL2_GHOST2 PROC
				;{
 1537  50			   PUSH AX
 1538  53			   PUSH BX
 1539  51			   PUSH CX
 153A  52			   PUSH DX
				      ;(BULLET_1_STATUS IS 0 IF IT COLLIDES 1 O
				THERWISE)
				      DETECT_COLLISION BULLET_2_POSITION_X, BUL
				LET_2_POSITION_Y, BULLETSIZE, STARTPOS_X_GHOST2
				, STARTPOS_Y_GHOST2, GHOSTSIZE, BULLET_2_STATUS
				     
 153B  50                    1	    PUSH AX 
 153C  53                    1	    PUSH BX 
 153D  51                    1	    PUSH CX 
 153E  52                    1	    PUSH DX 
 153F  55                    1	    PUSH BP 
 1540  8B 0E A820 R          1	        MOV CX, BULLETSIZE 
Microsoft (R) Macro Assembler Version 5.10                  12/6/19 16:06:45
                                                             Page     1-302


 1544  D1 E9                 1	        SHR CX, 1 
 1546  8B 16 A81E R          1	        MOV DX, GHOSTSIZE 
 154A  D1 EA                 1	        SHR DX, 1 
 154C  BD 0000               1	        MOV BP , 0 
 154F  03 EA                 1	        ADD BP, DX 
 1551  03 E9                 1	        ADD BP, CX 
 1553  83 ED 03              1	        SUB BP ,3 
 1556  A1 A7D1 R             1	        MOV AX, BULLET_2_POSITION_X 
 1559  03 C1                 1	        ADD AX, CX 
 155B  8B 1E A7EE R          1	        MOV BX, STARTPOS_X_GHOST2 
 155F  03 DA                 1	        ADD BX, DX 
 1561  3B C3                 1	        CMP AX,BX 
 1563  7C 09                 1	        JL ??0090 
 1565  2B C3                 1	        SUB AX ,BX 
 1567  3B C5                 1	        CMP AX, BP 
 1569  77 30                 1	        JA ??0092 
 156B  EB 07 90              1	        JMP ??0091 
 156E                        1	        ??0090: 
 156E  2B D8                 1	            SUB BX, AX 
 1570  3B DD                 1	            CMP BX, BP 
 1572  77 27                 1	            JA ??0092 
 1574                        1	        ??0091: 
 1574  A1 A7D3 R             1	        MOV AX, BULLET_2_POSITION_Y 
 1577  03 C1                 1	        ADD AX, CX 
 1579  8B 1E A7F0 R          1	        MOV BX, STARTPOS_Y_GHOST2 
 157D  03 DA                 1	        ADD BX, DX 
 157F  3B C3                 1	        CMP AX, BX 
 1581  7C 09                 1	        JL ??0093 
 1583  2B C3                 1	        SUB AX,BX 
 1585  3B C5                 1	        CMP AX, BP 
 1587  77 12                 1	        JA ??0092 
 1589  EB 07 90              1	        JMP ??0094 
 158C                        1	        ??0093: 
 158C  2B D8                 1	            SUB BX, AX 
 158E  3B DD                 1	            CMP BX, BP 
 1590  77 09                 1	            JA ??0092 
 1592                        1	        ??0094: 
 1592  C7 06 A7D5 R 0000     1	        MOV BULLET_2_STATUS, 0 
 1598  EB 07 90              1	        JMP ??0095 
 159B                        1	    ??0092: 
 159B  C7 06 A7D5 R 0001     1	    MOV BULLET_2_STATUS, 1 
 15A1                        1	    ??0095: 
 15A1  5D                    1	    POP BP 
 15A2  5A                    1	    POP DX 
 15A3  59                    1	    POP CX 
 15A4  5B                    1	    POP BX 
 15A5  58                    1	    POP AX 
 15A6  83 3E A7D5 R 00		      CMP BULLET_2_STATUS, 0
 15AB  75 48			      JNE GHOST2_LIVES2
				       ;POWER-UPS
				      ;( 
 15AD  83 3E A7F6 R 00		      CMP POWERUP_GHOST2,0
 15B2  74 02			      JZ HP2_LIMIT2
 15B4  75 0F			      JNZ SPEED2_INCREASE2
Microsoft (R) Macro Assembler Version 5.10                  12/6/19 16:06:45
                                                             Page     1-303


				      ;)
 15B6				      HP2_LIMIT2:
				      ;(
 15B6  83 3E A7B1 R 0A		      CMP TANK_HP_2,10
 15BB  74 2C			      JZ T2_KILL_G2
 15BD  83 06 A7B1 R 01		      ADD TANK_HP_2,1
 15C2  EB 25 90			      JMP T2_KILL_G2
				      ;)
				
 15C5				      SPEED2_INCREASE2:
				      ;(
 15C5  83 3E A7F6 R 01		      CMP POWERUP_GHOST2,1
 15CA  74 0B			      JZ SPEED2_LIMIT2
 15CC  75 00			      JNZ INCREASE2_DAMAGE2
				      ;)
 15CE				      INCREASE2_DAMAGE2:
				      ;(
				         
 15CE  C7 06 A7B5 R 0002	         MOV TANK_DMG_2,2
 15D4  EB 13 90			         JMP T2_KILL_G2
				      ;)
 15D7				      SPEED2_LIMIT2:
				      ;(
 15D7  83 3E A7DB R 03		               CMP BULLET_2_SPEED_POWER_NUM,3
 15DC  7D 0B			               JNL T2_KILL_G2
 15DE  A1 A7DD R		               MOV AX,BULLET_SPEED_POWERUPS
 15E1  01 06 A7D9 R		               ADD BULLET_2_SPEED,AX
 15E5  FF 06 A7DB R		               INC BULLET_2_SPEED_POWER_NUM
				      ;)
				      ;GHOST 2 SHOULD DIE, WE MAY CHECK FOR POW
				ER-UPS HERE
 15E9				      T2_KILL_G2:
				      
 15E9  C7 06 A7F2 R 0000	      MOV EXISTS_GHOST2, 0
				      ;THROW GHOST2 OUT OF BOUNDARIES TO AVOID 
				BEING HIT WHILE TRANSPARENT
 15EF  81 2E A7F0 R 0258	      SUB STARTPOS_Y_GHOST2, 600
 15F5				   GHOST2_LIVES2:   
 15F5  5A			   POP DX
 15F6  59			   POP CX
 15F7  5B			   POP BX
 15F8  58			   POP AX
 15F9  C3			   RET
				;}   
 15FA				CHECK_HIT_BUL2_GHOST2 ENDP
				
				;----------------------------------------------
				-------------------------------------------
				;Detects if bullet 2 hits Ghost3 
				;----------------------------------------------
				-------------------------------------------
 15FA				CHECK_HIT_BUL2_GHOST3 PROC
				;{
 15FA  50			   PUSH AX
Microsoft (R) Macro Assembler Version 5.10                  12/6/19 16:06:45
                                                             Page     1-304


 15FB  53			   PUSH BX
 15FC  51			   PUSH CX
 15FD  52			   PUSH DX
				      ;(BULLET_1_STATUS IS 0 IF IT COLLIDES 1 O
				THERWISE)
				      DETECT_COLLISION BULLET_2_POSITION_X, BUL
				LET_2_POSITION_Y, BULLETSIZE, STARTPOS_X_GHOST3
				, STARTPOS_Y_GHOST3, GHOSTSIZE, BULLET_2_STATUS
				     
 15FE  50                    1	    PUSH AX 
 15FF  53                    1	    PUSH BX 
 1600  51                    1	    PUSH CX 
 1601  52                    1	    PUSH DX 
 1602  55                    1	    PUSH BP 
 1603  8B 0E A820 R          1	        MOV CX, BULLETSIZE 
 1607  D1 E9                 1	        SHR CX, 1 
 1609  8B 16 A81E R          1	        MOV DX, GHOSTSIZE 
 160D  D1 EA                 1	        SHR DX, 1 
 160F  BD 0000               1	        MOV BP , 0 
 1612  03 EA                 1	        ADD BP, DX 
 1614  03 E9                 1	        ADD BP, CX 
 1616  83 ED 03              1	        SUB BP ,3 
 1619  A1 A7D1 R             1	        MOV AX, BULLET_2_POSITION_X 
 161C  03 C1                 1	        ADD AX, CX 
 161E  8B 1E A7FD R          1	        MOV BX, STARTPOS_X_GHOST3 
 1622  03 DA                 1	        ADD BX, DX 
 1624  3B C3                 1	        CMP AX,BX 
 1626  7C 09                 1	        JL ??0096 
 1628  2B C3                 1	        SUB AX ,BX 
 162A  3B C5                 1	        CMP AX, BP 
 162C  77 30                 1	        JA ??0098 
 162E  EB 07 90              1	        JMP ??0097 
 1631                        1	        ??0096: 
 1631  2B D8                 1	            SUB BX, AX 
 1633  3B DD                 1	            CMP BX, BP 
 1635  77 27                 1	            JA ??0098 
 1637                        1	        ??0097: 
 1637  A1 A7D3 R             1	        MOV AX, BULLET_2_POSITION_Y 
 163A  03 C1                 1	        ADD AX, CX 
 163C  8B 1E A7FF R          1	        MOV BX, STARTPOS_Y_GHOST3 
 1640  03 DA                 1	        ADD BX, DX 
 1642  3B C3                 1	        CMP AX, BX 
 1644  7C 09                 1	        JL ??0099 
 1646  2B C3                 1	        SUB AX,BX 
 1648  3B C5                 1	        CMP AX, BP 
 164A  77 12                 1	        JA ??0098 
 164C  EB 07 90              1	        JMP ??009A 
 164F                        1	        ??0099: 
 164F  2B D8                 1	            SUB BX, AX 
 1651  3B DD                 1	            CMP BX, BP 
 1653  77 09                 1	            JA ??0098 
 1655                        1	        ??009A: 
 1655  C7 06 A7D5 R 0000     1	        MOV BULLET_2_STATUS, 0 
 165B  EB 07 90              1	        JMP ??009B 
Microsoft (R) Macro Assembler Version 5.10                  12/6/19 16:06:45
                                                             Page     1-305


 165E                        1	    ??0098: 
 165E  C7 06 A7D5 R 0001     1	    MOV BULLET_2_STATUS, 1 
 1664                        1	    ??009B: 
 1664  5D                    1	    POP BP 
 1665  5A                    1	    POP DX 
 1666  59                    1	    POP CX 
 1667  5B                    1	    POP BX 
 1668  58                    1	    POP AX 
 1669  83 3E A7D5 R 00		      CMP BULLET_2_STATUS, 0
 166E  75 48			      JNE GHOST3_LIVES2
				      ;POWER-UPS
				      ;( 
 1670  83 3E A805 R 00		      CMP POWERUP_GHOST3,0
 1675  74 02			      JZ HP2_LIMIT3
 1677  75 0F			      JNZ SPEED2_INCREASE3
				      ;)
 1679				      HP2_LIMIT3:
				      ;(
 1679  83 3E A7B1 R 0A		      CMP TANK_HP_2,10
 167E  74 2C			      JZ T2_KILL_G3
 1680  83 06 A7B1 R 01		      ADD TANK_HP_2,1
 1685  EB 25 90			      JMP T2_KILL_G3
				      ;)
				
 1688				      SPEED2_INCREASE3:
				      ;(
 1688  83 3E A805 R 01		      CMP POWERUP_GHOST3,1
 168D  74 0B			      JZ SPEED2_LIMIT3
 168F  75 00			      JNZ INCREASE2_DAMAGE3
				      ;)
 1691				      INCREASE2_DAMAGE3:
				      ;(
				         
 1691  C7 06 A7B5 R 0002	          MOV TANK_DMG_2,2
 1697  EB 13 90			          JMP T2_KILL_G3
				      ;)
 169A				      SPEED2_LIMIT3:
				      ;(
 169A  83 3E A7DB R 03		               CMP BULLET_2_SPEED_POWER_NUM,3
 169F  7D 0B			               JNL T2_KILL_G3
 16A1  A1 A7DD R		               MOV AX,BULLET_SPEED_POWERUPS
 16A4  01 06 A7D9 R		               ADD BULLET_2_SPEED,AX
 16A8  FF 06 A7DB R		               INC BULLET_2_SPEED_POWER_NUM
				      ;)
				      ;GHOST 3 SHOULD DIE, WE MAY CHECK FOR POW
				ER-UPS HERE
 16AC				      T2_KILL_G3:
 16AC  C7 06 A801 R 0000	      MOV EXISTS_GHOST3, 0
				      ;THROW GHOST1 OUT OF BOUNDARIES TO AVOID 
				BEING HIT WHILE TRANSPARENT
 16B2  81 2E A7FF R 0258	      SUB STARTPOS_Y_GHOST3, 600
 16B8				   GHOST3_LIVES2:   
 16B8  5A			   POP DX
 16B9  59			   POP CX
Microsoft (R) Macro Assembler Version 5.10                  12/6/19 16:06:45
                                                             Page     1-306


 16BA  5B			   POP BX
 16BB  58			   POP AX
 16BC  C3			   RET
				;}   
 16BD				CHECK_HIT_BUL2_GHOST3 ENDP
				;----------------------------------------------
				-------------------------------------------
				;Detects The collision of The two bullets 
				;----------------------------------------------
				-------------------------------------------
 16BD				BULLETS_HIT PROC
				;{
 16BD  50			   PUSH AX
 16BE  53			   PUSH BX
 16BF  51			   PUSH CX
 16C0  52			   PUSH DX
				      ;DETECT THE COLLISION BETWEEN BOTH BULLET
				S
				      DETECT_COLLISION BULLET_1_POSITION_X, BUL
				LET_1_POSITION_Y, BULLETSIZE, BULLET_2_POSITION
				_X,BULLET_2_POSITION_Y,BULLETSIZE, BULLET_1_STA
				TUS
 16C1  50                    1	    PUSH AX 
 16C2  53                    1	    PUSH BX 
 16C3  51                    1	    PUSH CX 
 16C4  52                    1	    PUSH DX 
 16C5  55                    1	    PUSH BP 
 16C6  8B 0E A820 R          1	        MOV CX, BULLETSIZE 
 16CA  D1 E9                 1	        SHR CX, 1 
 16CC  8B 16 A820 R          1	        MOV DX, BULLETSIZE 
 16D0  D1 EA                 1	        SHR DX, 1 
 16D2  BD 0000               1	        MOV BP , 0 
 16D5  03 EA                 1	        ADD BP, DX 
 16D7  03 E9                 1	        ADD BP, CX 
 16D9  83 ED 03              1	        SUB BP ,3 
 16DC  A1 A7C5 R             1	        MOV AX, BULLET_1_POSITION_X 
 16DF  03 C1                 1	        ADD AX, CX 
 16E1  8B 1E A7D1 R          1	        MOV BX, BULLET_2_POSITION_X 
 16E5  03 DA                 1	        ADD BX, DX 
 16E7  3B C3                 1	        CMP AX,BX 
 16E9  7C 09                 1	        JL ??009C 
 16EB  2B C3                 1	        SUB AX ,BX 
 16ED  3B C5                 1	        CMP AX, BP 
 16EF  77 30                 1	        JA ??009E 
 16F1  EB 07 90              1	        JMP ??009D 
 16F4                        1	        ??009C: 
 16F4  2B D8                 1	            SUB BX, AX 
 16F6  3B DD                 1	            CMP BX, BP 
 16F8  77 27                 1	            JA ??009E 
 16FA                        1	        ??009D: 
 16FA  A1 A7C7 R             1	        MOV AX, BULLET_1_POSITION_Y 
 16FD  03 C1                 1	        ADD AX, CX 
 16FF  8B 1E A7D3 R          1	        MOV BX, BULLET_2_POSITION_Y 
 1703  03 DA                 1	        ADD BX, DX 
Microsoft (R) Macro Assembler Version 5.10                  12/6/19 16:06:45
                                                             Page     1-307


 1705  3B C3                 1	        CMP AX, BX 
 1707  7C 09                 1	        JL ??009F 
 1709  2B C3                 1	        SUB AX,BX 
 170B  3B C5                 1	        CMP AX, BP 
 170D  77 12                 1	        JA ??009E 
 170F  EB 07 90              1	        JMP ??00A0 
 1712                        1	        ??009F: 
 1712  2B D8                 1	            SUB BX, AX 
 1714  3B DD                 1	            CMP BX, BP 
 1716  77 09                 1	            JA ??009E 
 1718                        1	        ??00A0: 
 1718  C7 06 A7C9 R 0000     1	        MOV BULLET_1_STATUS, 0 
 171E  EB 07 90              1	        JMP ??00A1 
 1721                        1	    ??009E: 
 1721  C7 06 A7C9 R 0001     1	    MOV BULLET_1_STATUS, 1 
 1727                        1	    ??00A1: 
 1727  5D                    1	    POP BP 
 1728  5A                    1	    POP DX 
 1729  59                    1	    POP CX 
 172A  5B                    1	    POP BX 
 172B  58                    1	    POP AX 
 172C  83 3E A7C9 R 00		      CMP BULLET_1_STATUS, 0
 1731  75 06			      JNE NOT_HITTING
				      ;MAKE THE OTHER BULLET DISAPPEAR ALSO
 1733  C7 06 A7D5 R 0000	      MOV BULLET_2_STATUS, 0
 1739				   NOT_HITTING:
 1739  5A			   POP DX
 173A  59			   POP CX
 173B  5B			   POP BX
 173C  58			   POP AX
				;}
 173D				BULLETS_HIT ENDP
				;----------------------------------------------
				-----------------------------------------
				;   _____  _    _   ____    _____  _______     
				       _______         _   _  _  __
				;  / ____|| |  | | / __ \  / ____||__   __|   _
				__    |__   __| /\    | \ | || |/ /
				; | |  __ | |__| || |  | || (___     | |     ( 
				_ )      | |   /  \   |  \| || ' / 
				; | | |_ ||  __  || |  | | \___ \    | |     / 
				_ \/\    | |  / /\ \  | . ` ||  <  
				; | |__| || |  | || |__| | ____) |   | |    | (
				_>  <    | | / ____ \ | |\  || . \ 
				;  \_____||_|  |_| \____/ |_____/    |_|     \_
				__/\/    |_|/_/    \_\|_| \_||_|\_\
				;----------------------------------------------
				-----------------------------------------
				
				;----------------------------------------------
				-----------------------------------------
				;CHECK IF GHOST1 HITS TANK 1
				;----------------------------------------------
				-----------------------------------------
Microsoft (R) Macro Assembler Version 5.10                  12/6/19 16:06:45
                                                             Page     1-308


 173D				CHECK_HIT_GHOST1_TANK1 PROC
 173D  50			   PUSH AX
 173E  53			   PUSH BX
 173F  51			   PUSH CX
 1740  52			   PUSH DX
				      DETECT_COLLISION STARTPOS_X_PLAYER1, STAR
				TPOS_Y_PLAYER1, TANKSIZE, STARTPOS_X_GHOST1, ST
				ARTPOS_Y_GHOST1, GHOSTSIZE, EXISTS_GHOST1
 1741  50                    1	    PUSH AX 
 1742  53                    1	    PUSH BX 
 1743  51                    1	    PUSH CX 
 1744  52                    1	    PUSH DX 
 1745  55                    1	    PUSH BP 
 1746  8B 0E A81A R          1	        MOV CX, TANKSIZE 
 174A  D1 E9                 1	        SHR CX, 1 
 174C  8B 16 A81E R          1	        MOV DX, GHOSTSIZE 
 1750  D1 EA                 1	        SHR DX, 1 
 1752  BD 0000               1	        MOV BP , 0 
 1755  03 EA                 1	        ADD BP, DX 
 1757  03 E9                 1	        ADD BP, CX 
 1759  83 ED 03              1	        SUB BP ,3 
 175C  A1 A79D R             1	        MOV AX, STARTPOS_X_PLAYER1 
 175F  03 C1                 1	        ADD AX, CX 
 1761  8B 1E A7DF R          1	        MOV BX, STARTPOS_X_GHOST1 
 1765  03 DA                 1	        ADD BX, DX 
 1767  3B C3                 1	        CMP AX,BX 
 1769  7C 09                 1	        JL ??00A2 
 176B  2B C3                 1	        SUB AX ,BX 
 176D  3B C5                 1	        CMP AX, BP 
 176F  77 30                 1	        JA ??00A4 
 1771  EB 07 90              1	        JMP ??00A3 
 1774                        1	        ??00A2: 
 1774  2B D8                 1	            SUB BX, AX 
 1776  3B DD                 1	            CMP BX, BP 
 1778  77 27                 1	            JA ??00A4 
 177A                        1	        ??00A3: 
 177A  A1 A79F R             1	        MOV AX, STARTPOS_Y_PLAYER1 
 177D  03 C1                 1	        ADD AX, CX 
 177F  8B 1E A7E1 R          1	        MOV BX, STARTPOS_Y_GHOST1 
 1783  03 DA                 1	        ADD BX, DX 
 1785  3B C3                 1	        CMP AX, BX 
 1787  7C 09                 1	        JL ??00A5 
 1789  2B C3                 1	        SUB AX,BX 
 178B  3B C5                 1	        CMP AX, BP 
 178D  77 12                 1	        JA ??00A4 
 178F  EB 07 90              1	        JMP ??00A6 
 1792                        1	        ??00A5: 
 1792  2B D8                 1	            SUB BX, AX 
 1794  3B DD                 1	            CMP BX, BP 
 1796  77 09                 1	            JA ??00A4 
 1798                        1	        ??00A6: 
 1798  C7 06 A7E3 R 0000     1	        MOV EXISTS_GHOST1, 0 
 179E  EB 07 90              1	        JMP ??00A7 
 17A1                        1	    ??00A4: 
Microsoft (R) Macro Assembler Version 5.10                  12/6/19 16:06:45
                                                             Page     1-309


 17A1  C7 06 A7E3 R 0001     1	    MOV EXISTS_GHOST1, 1 
 17A7                        1	    ??00A7: 
 17A7  5D                    1	    POP BP 
 17A8  5A                    1	    POP DX 
 17A9  59                    1	    POP CX 
 17AA  5B                    1	    POP BX 
 17AB  58                    1	    POP AX 
				      ;{IF GHOST1 COLLIDED -> EXISTS = 0
 17AC  83 3E A7E3 R 00		         CMP EXISTS_GHOST1,0
 17B1  75 1B			         JNE TANK1_SAFE1
				      ;MOVE GHOST1 OUT OF BOUNDARIES TO AVOID C
				OLLIDING WITH BULLETS WHILE BEING TRANSPARENT
 17B3  81 2E A7E1 R 0258	         SUB STARTPOS_Y_GHOST1, 600   
				      ;REDUCE THE TANK HP, WILL BE SPLIT IN A D
				IFFERENT PROC
 17B9  83 3E A7A1 R 01		         CMP TANK_HP_1,1                     ;C
				HECK IF THE TANK LIFE POINTS IS STILL ABOVE 1
 17BE  75 09			         JNZ DECREASE_HP1_G1
 17C0  C7 06 A824 R 0001	         MOV WINNER ,1                       ;I
				F IT IS THE LAST LIFE THIS PLAYER WILL LOSE
 17C6  E8 1BC8 R		         CALL PLAYER_LOST 
 17C9				      DECREASE_HP1_G1:
 17C9  83 2E A7A1 R 01		         SUB TANK_HP_1,1
				      ;}   
 17CE				   TANK1_SAFE1:   
 17CE  5A			   POP DX
 17CF  5B			   POP BX
 17D0  59			   POP CX
 17D1  5A			   POP DX
 17D2  C3			   RET
 17D3				CHECK_HIT_GHOST1_TANK1 ENDP
				
				;----------------------------------------------
				-----------------------------------------
				;CHECK IF GHOST2 HITS TANK 1
				;----------------------------------------------
				-----------------------------------------
 17D3				CHECK_HIT_GHOST2_TANK1 PROC
 17D3  50			   PUSH AX
 17D4  53			   PUSH BX
 17D5  51			   PUSH CX
 17D6  52			   PUSH DX
				      DETECT_COLLISION STARTPOS_X_PLAYER1, STAR
				TPOS_Y_PLAYER1, TANKSIZE, STARTPOS_X_GHOST2, ST
				ARTPOS_Y_GHOST2, GHOSTSIZE, EXISTS_GHOST2
 17D7  50                    1	    PUSH AX 
 17D8  53                    1	    PUSH BX 
 17D9  51                    1	    PUSH CX 
 17DA  52                    1	    PUSH DX 
 17DB  55                    1	    PUSH BP 
 17DC  8B 0E A81A R          1	        MOV CX, TANKSIZE 
 17E0  D1 E9                 1	        SHR CX, 1 
 17E2  8B 16 A81E R          1	        MOV DX, GHOSTSIZE 
 17E6  D1 EA                 1	        SHR DX, 1 
Microsoft (R) Macro Assembler Version 5.10                  12/6/19 16:06:45
                                                             Page     1-310


 17E8  BD 0000               1	        MOV BP , 0 
 17EB  03 EA                 1	        ADD BP, DX 
 17ED  03 E9                 1	        ADD BP, CX 
 17EF  83 ED 03              1	        SUB BP ,3 
 17F2  A1 A79D R             1	        MOV AX, STARTPOS_X_PLAYER1 
 17F5  03 C1                 1	        ADD AX, CX 
 17F7  8B 1E A7EE R          1	        MOV BX, STARTPOS_X_GHOST2 
 17FB  03 DA                 1	        ADD BX, DX 
 17FD  3B C3                 1	        CMP AX,BX 
 17FF  7C 09                 1	        JL ??00A8 
 1801  2B C3                 1	        SUB AX ,BX 
 1803  3B C5                 1	        CMP AX, BP 
 1805  77 30                 1	        JA ??00AA 
 1807  EB 07 90              1	        JMP ??00A9 
 180A                        1	        ??00A8: 
 180A  2B D8                 1	            SUB BX, AX 
 180C  3B DD                 1	            CMP BX, BP 
 180E  77 27                 1	            JA ??00AA 
 1810                        1	        ??00A9: 
 1810  A1 A79F R             1	        MOV AX, STARTPOS_Y_PLAYER1 
 1813  03 C1                 1	        ADD AX, CX 
 1815  8B 1E A7F0 R          1	        MOV BX, STARTPOS_Y_GHOST2 
 1819  03 DA                 1	        ADD BX, DX 
 181B  3B C3                 1	        CMP AX, BX 
 181D  7C 09                 1	        JL ??00AB 
 181F  2B C3                 1	        SUB AX,BX 
 1821  3B C5                 1	        CMP AX, BP 
 1823  77 12                 1	        JA ??00AA 
 1825  EB 07 90              1	        JMP ??00AC 
 1828                        1	        ??00AB: 
 1828  2B D8                 1	            SUB BX, AX 
 182A  3B DD                 1	            CMP BX, BP 
 182C  77 09                 1	            JA ??00AA 
 182E                        1	        ??00AC: 
 182E  C7 06 A7F2 R 0000     1	        MOV EXISTS_GHOST2, 0 
 1834  EB 07 90              1	        JMP ??00AD 
 1837                        1	    ??00AA: 
 1837  C7 06 A7F2 R 0001     1	    MOV EXISTS_GHOST2, 1 
 183D                        1	    ??00AD: 
 183D  5D                    1	    POP BP 
 183E  5A                    1	    POP DX 
 183F  59                    1	    POP CX 
 1840  5B                    1	    POP BX 
 1841  58                    1	    POP AX 
				      ;{IF GHOST1 COLLIDED -> EXISTS = 0
 1842  83 3E A7F2 R 00		         CMP EXISTS_GHOST2,0
 1847  75 1B			         JNE TANK1_SAFE2
				      ;MOVE GHOST1 OUT OF BOUNDARIES TO AVOID C
				OLLIDING WITH BULLETS WHILE BEING TRANSPARENT
 1849  81 2E A7F0 R 0258	         SUB STARTPOS_Y_GHOST2, 600   
				      ;REDUCE THE TANK HP, WILL BE SPLIT IN A D
				IFFERENT PROC
 184F  83 3E A7A1 R 01		         CMP TANK_HP_1,1
 1854  75 09			         JNZ DECREASE_HP1_G2
Microsoft (R) Macro Assembler Version 5.10                  12/6/19 16:06:45
                                                             Page     1-311


 1856  C7 06 A824 R 0002	         MOV WINNER,2
 185C  E8 1BC8 R		         CALL PLAYER_LOST
				
 185F				      DECREASE_HP1_G2:
 185F  83 2E A7A1 R 01		         SUB TANK_HP_1,1
				      ;}   
 1864				   TANK1_SAFE2:   
 1864  5A			   POP DX
 1865  5B			   POP BX
 1866  59			   POP CX
 1867  5A			   POP DX
 1868  C3			   RET
 1869				CHECK_HIT_GHOST2_TANK1 ENDP
				
				;----------------------------------------------
				-----------------------------------------
				;CHECK IF GHOST3 HITS TANK 1
				;----------------------------------------------
				-----------------------------------------
 1869				CHECK_HIT_GHOST3_TANK1 PROC
 1869  50			   PUSH AX
 186A  53			   PUSH BX
 186B  51			   PUSH CX
 186C  52			   PUSH DX
				      DETECT_COLLISION STARTPOS_X_PLAYER1, STAR
				TPOS_Y_PLAYER1, TANKSIZE, STARTPOS_X_GHOST3, ST
				ARTPOS_Y_GHOST3, GHOSTSIZE, EXISTS_GHOST3
 186D  50                    1	    PUSH AX 
 186E  53                    1	    PUSH BX 
 186F  51                    1	    PUSH CX 
 1870  52                    1	    PUSH DX 
 1871  55                    1	    PUSH BP 
 1872  8B 0E A81A R          1	        MOV CX, TANKSIZE 
 1876  D1 E9                 1	        SHR CX, 1 
 1878  8B 16 A81E R          1	        MOV DX, GHOSTSIZE 
 187C  D1 EA                 1	        SHR DX, 1 
 187E  BD 0000               1	        MOV BP , 0 
 1881  03 EA                 1	        ADD BP, DX 
 1883  03 E9                 1	        ADD BP, CX 
 1885  83 ED 03              1	        SUB BP ,3 
 1888  A1 A79D R             1	        MOV AX, STARTPOS_X_PLAYER1 
 188B  03 C1                 1	        ADD AX, CX 
 188D  8B 1E A7FD R          1	        MOV BX, STARTPOS_X_GHOST3 
 1891  03 DA                 1	        ADD BX, DX 
 1893  3B C3                 1	        CMP AX,BX 
 1895  7C 09                 1	        JL ??00AE 
 1897  2B C3                 1	        SUB AX ,BX 
 1899  3B C5                 1	        CMP AX, BP 
 189B  77 30                 1	        JA ??00B0 
 189D  EB 07 90              1	        JMP ??00AF 
 18A0                        1	        ??00AE: 
 18A0  2B D8                 1	            SUB BX, AX 
 18A2  3B DD                 1	            CMP BX, BP 
 18A4  77 27                 1	            JA ??00B0 
Microsoft (R) Macro Assembler Version 5.10                  12/6/19 16:06:45
                                                             Page     1-312


 18A6                        1	        ??00AF: 
 18A6  A1 A79F R             1	        MOV AX, STARTPOS_Y_PLAYER1 
 18A9  03 C1                 1	        ADD AX, CX 
 18AB  8B 1E A7FF R          1	        MOV BX, STARTPOS_Y_GHOST3 
 18AF  03 DA                 1	        ADD BX, DX 
 18B1  3B C3                 1	        CMP AX, BX 
 18B3  7C 09                 1	        JL ??00B1 
 18B5  2B C3                 1	        SUB AX,BX 
 18B7  3B C5                 1	        CMP AX, BP 
 18B9  77 12                 1	        JA ??00B0 
 18BB  EB 07 90              1	        JMP ??00B2 
 18BE                        1	        ??00B1: 
 18BE  2B D8                 1	            SUB BX, AX 
 18C0  3B DD                 1	            CMP BX, BP 
 18C2  77 09                 1	            JA ??00B0 
 18C4                        1	        ??00B2: 
 18C4  C7 06 A801 R 0000     1	        MOV EXISTS_GHOST3, 0 
 18CA  EB 07 90              1	        JMP ??00B3 
 18CD                        1	    ??00B0: 
 18CD  C7 06 A801 R 0001     1	    MOV EXISTS_GHOST3, 1 
 18D3                        1	    ??00B3: 
 18D3  5D                    1	    POP BP 
 18D4  5A                    1	    POP DX 
 18D5  59                    1	    POP CX 
 18D6  5B                    1	    POP BX 
 18D7  58                    1	    POP AX 
				      ;{IF GHOST1 COLLIDED -> EXISTS = 0
 18D8  83 3E A801 R 00		         CMP EXISTS_GHOST3,0
 18DD  75 1B			         JNE TANK1_SAFE3
				      ;MOVE GHOST1 OUT OF BOUNDARIES TO AVOID C
				OLLIDING WITH BULLETS WHILE BEING TRANSPARENT
 18DF  81 2E A7FF R 0258	         SUB STARTPOS_Y_GHOST3, 600   
				      ;REDUCE THE TANK HP, WILL BE SPLIT IN A D
				IFFERENT PROC
 18E5  83 3E A7A1 R 01		         CMP TANK_HP_1,1
 18EA  75 09			         JNZ DECREASE_HP1_G3
 18EC  C7 06 A824 R 0002	         MOV WINNER,2
 18F2  E8 1BC8 R		         CALL PLAYER_LOST
				        
 18F5				      DECREASE_HP1_G3:
 18F5  83 2E A7A1 R 01		         SUB TANK_HP_1,1
				        
				      ;}   
 18FA				   TANK1_SAFE3:   
 18FA  5A			   POP DX
 18FB  5B			   POP BX
 18FC  59			   POP CX
 18FD  5A			   POP DX
 18FE  C3			   RET
 18FF				CHECK_HIT_GHOST3_TANK1 ENDP
				
				;----------------------------------------------
				-----------------------------------------
				;CHECK IF GHOST1 HITS TANK 2
Microsoft (R) Macro Assembler Version 5.10                  12/6/19 16:06:45
                                                             Page     1-313


				;----------------------------------------------
				-----------------------------------------
 18FF				CHECK_HIT_GHOST1_TANK2 PROC
 18FF  50			   PUSH AX
 1900  53			   PUSH BX
 1901  51			   PUSH CX
 1902  52			   PUSH DX
				      DETECT_COLLISION STARTPOS_X_PLAYER2, STAR
				TPOS_Y_PLAYER2, TANKSIZE, STARTPOS_X_GHOST1, ST
				ARTPOS_Y_GHOST1, GHOSTSIZE, EXISTS_GHOST1
 1903  50                    1	    PUSH AX 
 1904  53                    1	    PUSH BX 
 1905  51                    1	    PUSH CX 
 1906  52                    1	    PUSH DX 
 1907  55                    1	    PUSH BP 
 1908  8B 0E A81A R          1	        MOV CX, TANKSIZE 
 190C  D1 E9                 1	        SHR CX, 1 
 190E  8B 16 A81E R          1	        MOV DX, GHOSTSIZE 
 1912  D1 EA                 1	        SHR DX, 1 
 1914  BD 0000               1	        MOV BP , 0 
 1917  03 EA                 1	        ADD BP, DX 
 1919  03 E9                 1	        ADD BP, CX 
 191B  83 ED 03              1	        SUB BP ,3 
 191E  A1 A7AD R             1	        MOV AX, STARTPOS_X_PLAYER2 
 1921  03 C1                 1	        ADD AX, CX 
 1923  8B 1E A7DF R          1	        MOV BX, STARTPOS_X_GHOST1 
 1927  03 DA                 1	        ADD BX, DX 
 1929  3B C3                 1	        CMP AX,BX 
 192B  7C 09                 1	        JL ??00B4 
 192D  2B C3                 1	        SUB AX ,BX 
 192F  3B C5                 1	        CMP AX, BP 
 1931  77 30                 1	        JA ??00B6 
 1933  EB 07 90              1	        JMP ??00B5 
 1936                        1	        ??00B4: 
 1936  2B D8                 1	            SUB BX, AX 
 1938  3B DD                 1	            CMP BX, BP 
 193A  77 27                 1	            JA ??00B6 
 193C                        1	        ??00B5: 
 193C  A1 A7AF R             1	        MOV AX, STARTPOS_Y_PLAYER2 
 193F  03 C1                 1	        ADD AX, CX 
 1941  8B 1E A7E1 R          1	        MOV BX, STARTPOS_Y_GHOST1 
 1945  03 DA                 1	        ADD BX, DX 
 1947  3B C3                 1	        CMP AX, BX 
 1949  7C 09                 1	        JL ??00B7 
 194B  2B C3                 1	        SUB AX,BX 
 194D  3B C5                 1	        CMP AX, BP 
 194F  77 12                 1	        JA ??00B6 
 1951  EB 07 90              1	        JMP ??00B8 
 1954                        1	        ??00B7: 
 1954  2B D8                 1	            SUB BX, AX 
 1956  3B DD                 1	            CMP BX, BP 
 1958  77 09                 1	            JA ??00B6 
 195A                        1	        ??00B8: 
 195A  C7 06 A7E3 R 0000     1	        MOV EXISTS_GHOST1, 0 
Microsoft (R) Macro Assembler Version 5.10                  12/6/19 16:06:45
                                                             Page     1-314


 1960  EB 07 90              1	        JMP ??00B9 
 1963                        1	    ??00B6: 
 1963  C7 06 A7E3 R 0001     1	    MOV EXISTS_GHOST1, 1 
 1969                        1	    ??00B9: 
 1969  5D                    1	    POP BP 
 196A  5A                    1	    POP DX 
 196B  59                    1	    POP CX 
 196C  5B                    1	    POP BX 
 196D  58                    1	    POP AX 
				      ;{IF GHOST1 COLLIDED -> EXISTS = 0
 196E  83 3E A7E3 R 00		         CMP EXISTS_GHOST1,0
 1973  75 1B			         JNE TANK2_SAFE1
				      ;MOVE GHOST1 OUT OF BOUNDARIES TO AVOID C
				OLLIDING WITH BULLETS WHILE BEING TRANSPARENT
 1975  81 2E A7E1 R 0258	         SUB STARTPOS_Y_GHOST1, 600   
				      ;REDUCE THE TANK HP, WILL BE SPLIT IN A D
				IFFERENT PROC
 197B  83 3E A7B1 R 01		         CMP TANK_HP_2,1
 1980  75 09			         JNZ DECREASE_HP2_G1
 1982  C7 06 A824 R 0001	         MOV WINNER,1
 1988  E8 1BC8 R		         CALL PLAYER_LOST
				        
 198B				      DECREASE_HP2_G1:
 198B  83 2E A7B1 R 01		        SUB TANK_HP_2,1
				
				      ;}   
 1990				   TANK2_SAFE1:   
 1990  5A			   POP DX
 1991  5B			   POP BX
 1992  59			   POP CX
 1993  5A			   POP DX
 1994  C3			   RET
 1995				CHECK_HIT_GHOST1_TANK2 ENDP
				
				;----------------------------------------------
				-----------------------------------------
				;CHECK IF GHOST2 HITS TANK 2
				;----------------------------------------------
				-----------------------------------------
 1995				CHECK_HIT_GHOST2_TANK2 PROC
 1995  50			   PUSH AX
 1996  53			   PUSH BX
 1997  51			   PUSH CX
 1998  52			   PUSH DX
				      DETECT_COLLISION STARTPOS_X_PLAYER2, STAR
				TPOS_Y_PLAYER2, TANKSIZE, STARTPOS_X_GHOST2, ST
				ARTPOS_Y_GHOST2, GHOSTSIZE, EXISTS_GHOST2
 1999  50                    1	    PUSH AX 
 199A  53                    1	    PUSH BX 
 199B  51                    1	    PUSH CX 
 199C  52                    1	    PUSH DX 
 199D  55                    1	    PUSH BP 
 199E  8B 0E A81A R          1	        MOV CX, TANKSIZE 
 19A2  D1 E9                 1	        SHR CX, 1 
Microsoft (R) Macro Assembler Version 5.10                  12/6/19 16:06:45
                                                             Page     1-315


 19A4  8B 16 A81E R          1	        MOV DX, GHOSTSIZE 
 19A8  D1 EA                 1	        SHR DX, 1 
 19AA  BD 0000               1	        MOV BP , 0 
 19AD  03 EA                 1	        ADD BP, DX 
 19AF  03 E9                 1	        ADD BP, CX 
 19B1  83 ED 03              1	        SUB BP ,3 
 19B4  A1 A7AD R             1	        MOV AX, STARTPOS_X_PLAYER2 
 19B7  03 C1                 1	        ADD AX, CX 
 19B9  8B 1E A7EE R          1	        MOV BX, STARTPOS_X_GHOST2 
 19BD  03 DA                 1	        ADD BX, DX 
 19BF  3B C3                 1	        CMP AX,BX 
 19C1  7C 09                 1	        JL ??00BA 
 19C3  2B C3                 1	        SUB AX ,BX 
 19C5  3B C5                 1	        CMP AX, BP 
 19C7  77 30                 1	        JA ??00BC 
 19C9  EB 07 90              1	        JMP ??00BB 
 19CC                        1	        ??00BA: 
 19CC  2B D8                 1	            SUB BX, AX 
 19CE  3B DD                 1	            CMP BX, BP 
 19D0  77 27                 1	            JA ??00BC 
 19D2                        1	        ??00BB: 
 19D2  A1 A7AF R             1	        MOV AX, STARTPOS_Y_PLAYER2 
 19D5  03 C1                 1	        ADD AX, CX 
 19D7  8B 1E A7F0 R          1	        MOV BX, STARTPOS_Y_GHOST2 
 19DB  03 DA                 1	        ADD BX, DX 
 19DD  3B C3                 1	        CMP AX, BX 
 19DF  7C 09                 1	        JL ??00BD 
 19E1  2B C3                 1	        SUB AX,BX 
 19E3  3B C5                 1	        CMP AX, BP 
 19E5  77 12                 1	        JA ??00BC 
 19E7  EB 07 90              1	        JMP ??00BE 
 19EA                        1	        ??00BD: 
 19EA  2B D8                 1	            SUB BX, AX 
 19EC  3B DD                 1	            CMP BX, BP 
 19EE  77 09                 1	            JA ??00BC 
 19F0                        1	        ??00BE: 
 19F0  C7 06 A7F2 R 0000     1	        MOV EXISTS_GHOST2, 0 
 19F6  EB 07 90              1	        JMP ??00BF 
 19F9                        1	    ??00BC: 
 19F9  C7 06 A7F2 R 0001     1	    MOV EXISTS_GHOST2, 1 
 19FF                        1	    ??00BF: 
 19FF  5D                    1	    POP BP 
 1A00  5A                    1	    POP DX 
 1A01  59                    1	    POP CX 
 1A02  5B                    1	    POP BX 
 1A03  58                    1	    POP AX 
				      ;{IF GHOST1 COLLIDED -> EXISTS = 0
 1A04  83 3E A7F2 R 00		         CMP EXISTS_GHOST2,0
 1A09  75 1B			         JNE TANK2_SAFE2
				      ;MOVE GHOST1 OUT OF BOUNDARIES TO AVOID C
				OLLIDING WITH BULLETS WHILE BEING TRANSPARENT
 1A0B  81 2E A7F0 R 0258	         SUB STARTPOS_Y_GHOST2, 600   
				      ;REDUCE THE TANK HP, WILL BE SPLIT IN A D
				IFFERENT PROC
Microsoft (R) Macro Assembler Version 5.10                  12/6/19 16:06:45
                                                             Page     1-316


 1A11  83 3E A7B1 R 01		           CMP TANK_HP_2,1
 1A16  75 09			           JNZ DECREASE_HP2_G2
 1A18  C7 06 A824 R 0001	           MOV WINNER,1
 1A1E  E8 1BC8 R		           CALL PLAYER_LOST
				         
 1A21				      DECREASE_HP2_G2:
 1A21  83 2E A7B1 R 01		        SUB TANK_HP_2,1
				        
				      ;}   
 1A26				   TANK2_SAFE2:   
 1A26  5A			   POP DX
 1A27  5B			   POP BX
 1A28  59			   POP CX
 1A29  5A			   POP DX
 1A2A  C3			   RET
 1A2B				CHECK_HIT_GHOST2_TANK2 ENDP
				
				;----------------------------------------------
				-----------------------------------------
				;CHECK IF GHOST3 HITS TANK 2
				;----------------------------------------------
				-----------------------------------------
 1A2B				CHECK_HIT_GHOST3_TANK2 PROC
 1A2B  50			   PUSH AX
 1A2C  53			   PUSH BX
 1A2D  51			   PUSH CX
 1A2E  52			   PUSH DX
				      DETECT_COLLISION STARTPOS_X_PLAYER2, STAR
				TPOS_Y_PLAYER2, TANKSIZE, STARTPOS_X_GHOST3, ST
				ARTPOS_Y_GHOST3, GHOSTSIZE, EXISTS_GHOST3
 1A2F  50                    1	    PUSH AX 
 1A30  53                    1	    PUSH BX 
 1A31  51                    1	    PUSH CX 
 1A32  52                    1	    PUSH DX 
 1A33  55                    1	    PUSH BP 
 1A34  8B 0E A81A R          1	        MOV CX, TANKSIZE 
 1A38  D1 E9                 1	        SHR CX, 1 
 1A3A  8B 16 A81E R          1	        MOV DX, GHOSTSIZE 
 1A3E  D1 EA                 1	        SHR DX, 1 
 1A40  BD 0000               1	        MOV BP , 0 
 1A43  03 EA                 1	        ADD BP, DX 
 1A45  03 E9                 1	        ADD BP, CX 
 1A47  83 ED 03              1	        SUB BP ,3 
 1A4A  A1 A7AD R             1	        MOV AX, STARTPOS_X_PLAYER2 
 1A4D  03 C1                 1	        ADD AX, CX 
 1A4F  8B 1E A7FD R          1	        MOV BX, STARTPOS_X_GHOST3 
 1A53  03 DA                 1	        ADD BX, DX 
 1A55  3B C3                 1	        CMP AX,BX 
 1A57  7C 09                 1	        JL ??00C0 
 1A59  2B C3                 1	        SUB AX ,BX 
 1A5B  3B C5                 1	        CMP AX, BP 
 1A5D  77 30                 1	        JA ??00C2 
 1A5F  EB 07 90              1	        JMP ??00C1 
 1A62                        1	        ??00C0: 
Microsoft (R) Macro Assembler Version 5.10                  12/6/19 16:06:45
                                                             Page     1-317


 1A62  2B D8                 1	            SUB BX, AX 
 1A64  3B DD                 1	            CMP BX, BP 
 1A66  77 27                 1	            JA ??00C2 
 1A68                        1	        ??00C1: 
 1A68  A1 A7AF R             1	        MOV AX, STARTPOS_Y_PLAYER2 
 1A6B  03 C1                 1	        ADD AX, CX 
 1A6D  8B 1E A7FF R          1	        MOV BX, STARTPOS_Y_GHOST3 
 1A71  03 DA                 1	        ADD BX, DX 
 1A73  3B C3                 1	        CMP AX, BX 
 1A75  7C 09                 1	        JL ??00C3 
 1A77  2B C3                 1	        SUB AX,BX 
 1A79  3B C5                 1	        CMP AX, BP 
 1A7B  77 12                 1	        JA ??00C2 
 1A7D  EB 07 90              1	        JMP ??00C4 
 1A80                        1	        ??00C3: 
 1A80  2B D8                 1	            SUB BX, AX 
 1A82  3B DD                 1	            CMP BX, BP 
 1A84  77 09                 1	            JA ??00C2 
 1A86                        1	        ??00C4: 
 1A86  C7 06 A801 R 0000     1	        MOV EXISTS_GHOST3, 0 
 1A8C  EB 07 90              1	        JMP ??00C5 
 1A8F                        1	    ??00C2: 
 1A8F  C7 06 A801 R 0001     1	    MOV EXISTS_GHOST3, 1 
 1A95                        1	    ??00C5: 
 1A95  5D                    1	    POP BP 
 1A96  5A                    1	    POP DX 
 1A97  59                    1	    POP CX 
 1A98  5B                    1	    POP BX 
 1A99  58                    1	    POP AX 
				      ;{IF GHOST1 COLLIDED -> EXISTS = 0
 1A9A  83 3E A801 R 00		         CMP EXISTS_GHOST3,0
 1A9F  75 1B			         JNE TANK2_SAFE3
				      ;MOVE GHOST1 OUT OF BOUNDARIES TO AVOID C
				OLLIDING WITH BULLETS WHILE BEING TRANSPARENT
 1AA1  81 2E A7FF R 0258	         SUB STARTPOS_Y_GHOST3, 600   
				      ;REDUCE THE TANK HP, WILL BE SPLIT IN A D
				IFFERENT PROC
				      
 1AA7  83 3E A7B1 R 01		         CMP TANK_HP_2,1
 1AAC  75 09			         JNZ DECREASE_HP2_G3
 1AAE  C7 06 A824 R 0001	         MOV WINNER,1
 1AB4  E8 1BC8 R		         CALL PLAYER_LOST
				        
 1AB7				      DECREASE_HP2_G3:
 1AB7  83 2E A7B1 R 01		         SUB TANK_HP_2,1
				         
				      ;}   
 1ABC				   TANK2_SAFE3:   
 1ABC  5A			   POP DX
 1ABD  5B			   POP BX
 1ABE  59			   POP CX
 1ABF  5A			   POP DX
 1AC0  C3			   RET
 1AC1				CHECK_HIT_GHOST3_TANK2 ENDP
Microsoft (R) Macro Assembler Version 5.10                  12/6/19 16:06:45
                                                             Page     1-318


				;----------------------------------------------
				-------
				;  _    _  ______            _      _______  _ 
				   _    
				; | |  | ||  ____|    /\    | |    |__   __|| |
				  | | 
				; | |__| || |__      /  \   | |       | |   | |
				__| |  
				; |  __  ||  __|    / /\ \  | |       | |   |  
				__  |  
				; | |  | || |____  / ____ \ | |____   | |   | |
				  | |  
				; |_|  |_||______|/_/    \_\|______|  |_|   |_|
				  |_|  
				;----------------------------------------------
				------
 1AC1				DRAW_HEALTH_BAR_1 PROC
				;{   
 1AC1  50			   PUSH AX
 1AC2  53			   PUSH BX
 1AC3  51			   PUSH CX
 1AC4  52			   PUSH DX
				  
 1AC5  8B 0E A7A1 R		   MOV CX,TANK_HP_1                   
 1AC9  C7 06 A7B9 R 0005	   MOV HEARTS_1_START_POSITION_X,5
				
 1ACF				RED_PLAYER1:                                   
				   ;FOR PLAYER1 DRAW THE RED HEARTS FIRST
				   ;(
 1ACF  BE A474 R			MOV SI, OFFSET RED_HEART
					DRAW_OBJECT HEARTSIZE , SI ,HEARTS_1_ST
				ART_POSITION_X, HEARTS_1_START_POSITION_Y
 1AD2  51                    1	   PUSH CX 
 1AD3  53                    1	   PUSH BX 
 1AD4  8B F6                 1	   MOV SI, SI  ;TAKE THE RIGHT BITMAP FROM A RE
				GISTER CONTAINING THE OFFSET 
 1AD6  8B 16 A7BB R          1	   MOV     DX, HEARTS_1_START_POSITION_Y     ; 
				Y TO START DRAWING AT 
 1ADA  8B 2E A822 R          1	   MOV BP, HEARTSIZE 
 1ADE  8A 3C                 1	   MOV BH, [SI] 
 1AE0                        1	   ??00C7:;{ FOR(BP = 50; BD > 0; BP--) 
 1AE0  8B 0E A7B9 R          1	      MOV     CX, HEARTS_1_START_POSITION_X    
				; X TO START 
 1AE4  8B 3E A822 R          1	      MOV DI, HEARTSIZE 
 1AE8                        1	      ??00C6:;{ FOR(DX = 50; DX > 0; DX--) 
 1AE8  AC                    1	         LODSB              ; FETCH COLOR FOR T
				HIS PIXEL 
 1AE9  3A F8                 1	         CMP BH ,AL 
 1AEB  74 04                 1	         JE ??00C8 
 1AED  B4 0C                 1	         MOV     AH, 0CH    ; AH=0CH IS BIOS.WR
				ITEPIXEL 
 1AEF  CD 10                 1	         INT     10H 
 1AF1                        1	         ??00C8: 
 1AF1  41                    1	         INC     CX         ; NEXT X POSITION 
Microsoft (R) Macro Assembler Version 5.10                  12/6/19 16:06:45
                                                             Page     1-319


 1AF2  4F                    1	         DEC     DI 
 1AF3  75 F3                 1	         JNZ     ??00C6 
 1AF5  42                    1	      INC     DX         ; NEXT Y POSITION 
 1AF6  4D                    1	      DEC     BP 
 1AF7  75 E7                 1	      JNZ     ??00C7 
 1AF9  5B                    1	      POP BX 
 1AFA  59                    1	      POP CX 
 1AFB  83 06 A7B9 R 14		   ADD HEARTS_1_START_POSITION_X,20            
				   ;ADD 20 -HEART WIDTH- TO THE X POSITION
 1B00  E2 CD			   LOOP RED_PLAYER1
				   ;)
				
 1B02  B9 000A			   MOV CX,10
 1B05  2B 0E A7A1 R		   SUB CX,TANK_HP_1
 1B09  74 33			   JZ RETURN_HEALTH1                           
				  ;IF HP=10 NO WHITE HEARTS SO RETURN 
					 
 1B0B				WHITE_PLAYER1:                                 
				  ;DRAW WHITE HEARTS IF IT EXISTS
				   ;(
 1B0B  BE A604 R			MOV SI, OFFSET WHITE_HEART
					DRAW_OBJECT HEARTSIZE , SI ,HEARTS_1_ST
				ART_POSITION_X, HEARTS_1_START_POSITION_Y
 1B0E  51                    1	   PUSH CX 
 1B0F  53                    1	   PUSH BX 
 1B10  8B F6                 1	   MOV SI, SI  ;TAKE THE RIGHT BITMAP FROM A RE
				GISTER CONTAINING THE OFFSET 
 1B12  8B 16 A7BB R          1	   MOV     DX, HEARTS_1_START_POSITION_Y     ; 
				Y TO START DRAWING AT 
 1B16  8B 2E A822 R          1	   MOV BP, HEARTSIZE 
 1B1A  8A 3C                 1	   MOV BH, [SI] 
 1B1C                        1	   ??00CA:;{ FOR(BP = 50; BD > 0; BP--) 
 1B1C  8B 0E A7B9 R          1	      MOV     CX, HEARTS_1_START_POSITION_X    
				; X TO START 
 1B20  8B 3E A822 R          1	      MOV DI, HEARTSIZE 
 1B24                        1	      ??00C9:;{ FOR(DX = 50; DX > 0; DX--) 
 1B24  AC                    1	         LODSB              ; FETCH COLOR FOR T
				HIS PIXEL 
 1B25  3A F8                 1	         CMP BH ,AL 
 1B27  74 04                 1	         JE ??00CB 
 1B29  B4 0C                 1	         MOV     AH, 0CH    ; AH=0CH IS BIOS.WR
				ITEPIXEL 
 1B2B  CD 10                 1	         INT     10H 
 1B2D                        1	         ??00CB: 
 1B2D  41                    1	         INC     CX         ; NEXT X POSITION 
 1B2E  4F                    1	         DEC     DI 
 1B2F  75 F3                 1	         JNZ     ??00C9 
 1B31  42                    1	      INC     DX         ; NEXT Y POSITION 
 1B32  4D                    1	      DEC     BP 
 1B33  75 E7                 1	      JNZ     ??00CA 
 1B35  5B                    1	      POP BX 
 1B36  59                    1	      POP CX 
 1B37  83 06 A7B9 R 14		   ADD HEARTS_1_START_POSITION_X,20
 1B3C  E2 CD			   LOOP WHITE_PLAYER1
Microsoft (R) Macro Assembler Version 5.10                  12/6/19 16:06:45
                                                             Page     1-320


				   ;)
				 
 1B3E				 RETURN_HEALTH1:
 1B3E  5A			   POP DX
 1B3F  59			   POP CX
 1B40  5B			   POP BX
 1B41  58			   POP AX 
 1B42  C3			   RET
				;}
 1B43				DRAW_HEALTH_BAR_1 ENDP
				;----------------------------------------------
				-
				;DRAW THE HEALTH BAR FOR PLAYER 2
				;----------------------------------------------
				-
 1B43				DRAW_HEALTH_BAR_2 PROC
				;{   
 1B43  50			   PUSH AX
 1B44  53			   PUSH BX
 1B45  51			   PUSH CX
 1B46  52			   PUSH DX
				  
 1B47  C7 06 A7BD R 01AE	   MOV HEARTS_2_START_POSITION_X,430
 1B4D  B9 000A			   MOV CX,10
 1B50  2B 0E A7B1 R		    SUB CX,TANK_HP_2
 1B54  74 33			    JZ DRAW_RED
				
 1B56				WHITE_PLAYER2:                          ;FOR PL
				AYER2 DRAW THE WHITE HEARTS FIRST
				;(
 1B56  BE A604 R			MOV SI, OFFSET WHITE_HEART
					DRAW_OBJECT HEARTSIZE , SI ,HEARTS_2_ST
				ART_POSITION_X, HEARTS_2_START_POSITION_Y
 1B59  51                    1	   PUSH CX 
 1B5A  53                    1	   PUSH BX 
 1B5B  8B F6                 1	   MOV SI, SI  ;TAKE THE RIGHT BITMAP FROM A RE
				GISTER CONTAINING THE OFFSET 
 1B5D  8B 16 A7BF R          1	   MOV     DX, HEARTS_2_START_POSITION_Y     ; 
				Y TO START DRAWING AT 
 1B61  8B 2E A822 R          1	   MOV BP, HEARTSIZE 
 1B65  8A 3C                 1	   MOV BH, [SI] 
 1B67                        1	   ??00CD:;{ FOR(BP = 50; BD > 0; BP--) 
 1B67  8B 0E A7BD R          1	      MOV     CX, HEARTS_2_START_POSITION_X    
				; X TO START 
 1B6B  8B 3E A822 R          1	      MOV DI, HEARTSIZE 
 1B6F                        1	      ??00CC:;{ FOR(DX = 50; DX > 0; DX--) 
 1B6F  AC                    1	         LODSB              ; FETCH COLOR FOR T
				HIS PIXEL 
 1B70  3A F8                 1	         CMP BH ,AL 
 1B72  74 04                 1	         JE ??00CE 
 1B74  B4 0C                 1	         MOV     AH, 0CH    ; AH=0CH IS BIOS.WR
				ITEPIXEL 
 1B76  CD 10                 1	         INT     10H 
 1B78                        1	         ??00CE: 
Microsoft (R) Macro Assembler Version 5.10                  12/6/19 16:06:45
                                                             Page     1-321


 1B78  41                    1	         INC     CX         ; NEXT X POSITION 
 1B79  4F                    1	         DEC     DI 
 1B7A  75 F3                 1	         JNZ     ??00CC 
 1B7C  42                    1	      INC     DX         ; NEXT Y POSITION 
 1B7D  4D                    1	      DEC     BP 
 1B7E  75 E7                 1	      JNZ     ??00CD 
 1B80  5B                    1	      POP BX 
 1B81  59                    1	      POP CX 
 1B82  83 06 A7BD R 14		   ADD HEARTS_2_START_POSITION_X,20
 1B87  E2 CD			   LOOP WHITE_PLAYER2 
				 ;)
				
 1B89				DRAW_RED:
				;(
 1B89  8B 0E A7B1 R		   MOV CX,TANK_HP_2
 1B8D				   RED_PLAYER2:
				      ;(
 1B8D  BE A474 R		      MOV SI, OFFSET RED_HEART
				      DRAW_OBJECT HEARTSIZE , SI ,HEARTS_2_STAR
				T_POSITION_X, HEARTS_2_START_POSITION_Y
 1B90  51                    1	   PUSH CX 
 1B91  53                    1	   PUSH BX 
 1B92  8B F6                 1	   MOV SI, SI  ;TAKE THE RIGHT BITMAP FROM A RE
				GISTER CONTAINING THE OFFSET 
 1B94  8B 16 A7BF R          1	   MOV     DX, HEARTS_2_START_POSITION_Y     ; 
				Y TO START DRAWING AT 
 1B98  8B 2E A822 R          1	   MOV BP, HEARTSIZE 
 1B9C  8A 3C                 1	   MOV BH, [SI] 
 1B9E                        1	   ??00D0:;{ FOR(BP = 50; BD > 0; BP--) 
 1B9E  8B 0E A7BD R          1	      MOV     CX, HEARTS_2_START_POSITION_X    
				; X TO START 
 1BA2  8B 3E A822 R          1	      MOV DI, HEARTSIZE 
 1BA6                        1	      ??00CF:;{ FOR(DX = 50; DX > 0; DX--) 
 1BA6  AC                    1	         LODSB              ; FETCH COLOR FOR T
				HIS PIXEL 
 1BA7  3A F8                 1	         CMP BH ,AL 
 1BA9  74 04                 1	         JE ??00D1 
 1BAB  B4 0C                 1	         MOV     AH, 0CH    ; AH=0CH IS BIOS.WR
				ITEPIXEL 
 1BAD  CD 10                 1	         INT     10H 
 1BAF                        1	         ??00D1: 
 1BAF  41                    1	         INC     CX         ; NEXT X POSITION 
 1BB0  4F                    1	         DEC     DI 
 1BB1  75 F3                 1	         JNZ     ??00CF 
 1BB3  42                    1	      INC     DX         ; NEXT Y POSITION 
 1BB4  4D                    1	      DEC     BP 
 1BB5  75 E7                 1	      JNZ     ??00D0 
 1BB7  5B                    1	      POP BX 
 1BB8  59                    1	      POP CX 
 1BB9  83 06 A7BD R 14		      ADD HEARTS_2_START_POSITION_X,20
 1BBE  49			      DEC CX
 1BBF  75 CC			      JNZ RED_PLAYER2  
				      ;)
 1BC1  74 00			   JZ RETURN_DATA2
Microsoft (R) Macro Assembler Version 5.10                  12/6/19 16:06:45
                                                             Page     1-322


				;)
 1BC3				 RETURN_DATA2:
 1BC3  5A			   POP DX
 1BC4  59			   POP CX
 1BC5  5B			   POP BX
 1BC6  58			   POP AX 
 1BC7  C3			   RET
				;}
 1BC8				DRAW_HEALTH_BAR_2 ENDP
				;---------------------------
				; LOSSER 
				;---------------------------
 1BC8				PLAYER_LOST PROC 
				
 1BC8  B8 4F02			         MOV    AX, 4F02H     ; THIS TO HANDLE 
				FLICKERING WE REOPEN THE VIDEO MODE EVERYTIME 
 1BCB  BB 0100			         MOV    BX, 100H
 1BCE  CD 10			         INT    10H
				 
				YWN 40,40,150,220,04              ;DRAW YOU WON
 1BD0  50                    1	PUSH AX 
 1BD1  51                    1	PUSH CX 
 1BD2  52                    1	PUSH DX 
 1BD3  53                    1	PUSH BX 
 1BD4  56                    1	PUSH SI 
 1BD5  57                    1	PUSH DI 
 1BD6  BA 00DC               1	    MOV DX,220 ; Y = 250 
 1BD9  B9 0096               1	    MOV CX,150 ; X = 400 
 1BDC  B0 04                 1	    MOV AL,04 
 1BDE  B4 0C                 1	    MOV AH,0CH 
 1BE0                        1	    ??00D2: 
 1BE0                        1	        ??00D3: 
 1BE0  81 FA 00F0            1	                CMP DX,220 + 40 / 2 
 1BE4  77 0D                 1	                JA ??00D4 
 1BE6  CD 10                 1	                INT 10H 
 1BE8  83 C1 1E              1	                ADD CX, 40 - 10 
 1BEB  CD 10                 1	                INT 10H 
 1BED  83 E9 1E              1	                SUB CX,40 - 10 
 1BF0  EB 0F 90              1	                JMP ??00D5 
 1BF3                        1	                ??00D4: 
 1BF3  83 C1 14              1	                ADD CX,40 / 2 
 1BF6  83 E9 05              1	                SUB CX,5 
 1BF9  CD 10                 1	                INT 10H 
 1BFB  83 C1 05              1	                ADD CX,5 
 1BFE  83 E9 14              1	                SUB CX,40 / 2 
 1C01                        1	         ??00D5: 
 1C01  83 C1 32              1	                ADD CX,40 + 10 
 1C04  CD 10                 1	                INT 10H 
 1C06  83 C1 1E              1	                ADD CX,40 -10 
 1C09  CD 10                 1	                INT 10H 
 1C0B  83 C1 14              1	            ADD CX,20 
 1C0E  CD 10                 1	            INT 10H 
 1C10  83 C1 1E              1	            ADD CX,40 -10 
 1C13  CD 10                 1	            INT 10H 
Microsoft (R) Macro Assembler Version 5.10                  12/6/19 16:06:45
                                                             Page     1-323


 1C15  83 C1 1E              1	            ADD CX,30 
 1C18  CD 10                 1	            INT 10H 
 1C1A  83 C1 14              1	            ADD CX,40/2 
 1C1D  83 E9 05              1	            SUB CX,5 
 1C20  CD 10                 1	            INT 10H 
 1C22  83 E9 14              1	            SUB CX,40/2 
 1C25  83 C1 05              1	            ADD CX,5 
 1C28  83 C1 1E              1	            ADD CX,40 -10 
 1C2B  CD 10                 1	            INT 10H 
 1C2D  83 C1 14              1	            ADD CX,20 
 1C30  CD 10                 1	            INT 10H 
 1C32  83 C1 1E              1	            ADD CX,40 -10 
 1C35  CD 10                 1	            INT 10H 
 1C37  83 C1 14              1	                 ADD CX,20 
 1C3A  CD 10                 1	                 INT 10H 
 1C3C  83 C1 21              1	                 ADD CX,40 - 7 
 1C3F  CD 10                 1	                 INT 10H 
 1C41  81 E9 0125            1	         SUB CX,6*40 + 53 
 1C45  42                    1	        INC DX 
 1C46  81 FA 0104            1	        CMP DX,220 + 40 
 1C4A  75 94                 1	        JNZ ??00D3 
 1C4C  BA 00DC               1	    MOV DX,220 
 1C4F  41                    1	    INC CX 
 1C50  81 F9 00A0            1	    CMP CX,150 + 10 
 1C54  75 8A                 1	    JNZ ??00D2 
 1C56  B9 0096               1	    MOV CX,150 
 1C59  BA 00F0               1	    MOV DX,220 + 40 / 2 
 1C5C                        1	    ??00D6: 
 1C5C                        1	        ??00D8: 
 1C5C  CD 10                 1	            INT 10H 
 1C5E  83 C2 0A              1	            ADD DX,40 / 2 - 10 
 1C61  83 C1 32              1	            ADD CX, 40 + 10 
 1C64  CD 10                 1	            INT 10H 
 1C66  83 EA 1E              1	            SUB DX, 40 - 10 
 1C69  CD 10                 1	            INT 10H 
 1C6B  83 C2 1E              1	            ADD DX,40 -10 
 1C6E  83 C1 32              1	            ADD CX,40 + 10 
 1C71  CD 10                 1	            INT 10H 
 1C73  83 C1 3C              1	            ADD CX,40 + 20 
 1C76  CD 10                 1	            INT 10H 
 1C78  83 C1 32              1	            ADD CX,40 + 10 
 1C7B  CD 10                 1	            INT 10H 
 1C7D  83 EA 1E              1	            SUB DX,40 -10 
 1C80  CD 10                 1	            INT 10H 
 1C82  81 E9 00D2            1	            SUB CX,4*40+50 
 1C86  83 C2 14              1	            ADD DX,40/2 
 1C89  41                    1	        INC CX 
 1C8A  81 F9 00BE            1	        CMP CX,150 + 40 
 1C8E  75 CC                 1	        JNZ ??00D8 
 1C90  B9 0096               1	    MOV CX,150 
 1C93  42                    1	    INC DX 
 1C94  81 FA 00FA            1	    CMP DX,220 + 40 / 2 + 10 
 1C98  75 C2                 1	    JNZ ??00D6 
 1C9A  B9 01A4               1	    MOV CX,150 + 5* 40 + 70 
Microsoft (R) Macro Assembler Version 5.10                  12/6/19 16:06:45
                                                             Page     1-324


 1C9D  BA 00DC               1	    MOV DX,220 
 1CA0  BE 00DC               1	    MOV SI,220 
 1CA3                        1	    ??00D7: 
 1CA3                        1	        ??00D9: 
 1CA3  CD 10                 1	            INT 10H 
 1CA5  41                    1	            INC CX 
 1CA6  42                    1	            INC DX 
 1CA7  81 F9 01BF            1	            CMP CX,150 + 6* 40 + 57 
 1CAB  75 F6                 1	        JNZ ??00D9 
 1CAD  83 C6 01              1	            ADD SI,1 
 1CB0  B9 01A4               1	            MOV CX,150 + 5* 40 + 70 
 1CB3  8B D6                 1	            MOV DX,SI 
 1CB5  81 FA 00EA            1	            CMP DX,220 + 14 
 1CB9  75 E8                 1	    JNZ ??00D7 
 1CBB  5F                    1	POP DI 
 1CBC  5E                    1	POP SI 
 1CBD  5B                    1	POP BX 
 1CBE  5A                    1	POP DX 
 1CBF  59                    1	POP CX 
 1CC0  58                    1	POP AX 
				
 1CC1  83 3E A824 R 01		CMP WINNER,1
 1CC6  75 2D			JNZ PLAYER2_WON
				;(                                     DRAW TAN
				K 1 IF PLAYER 1 IS THE WINNER
 1CC8  BE 30D4 R		   MOV SI,OFFSET BITMAP_UP_PLAYER1
				   DRAW_OBJECT TANKSIZE ,SI,280,100
 1CCB  51                    1	   PUSH CX 
 1CCC  53                    1	   PUSH BX 
 1CCD  8B F6                 1	   MOV SI, SI  ;TAKE THE RIGHT BITMAP FROM A RE
				GISTER CONTAINING THE OFFSET 
 1CCF  BA 0064               1	   MOV     DX, 100     ; Y TO START DRAWING AT 
 1CD2  8B 2E A81A R          1	   MOV BP, TANKSIZE 
 1CD6  8A 3C                 1	   MOV BH, [SI] 
 1CD8                        1	   ??00DB:;{ FOR(BP = 50; BD > 0; BP--) 
 1CD8  B9 0118               1	      MOV     CX, 280    ; X TO START 
 1CDB  8B 3E A81A R          1	      MOV DI, TANKSIZE 
 1CDF                        1	      ??00DA:;{ FOR(DX = 50; DX > 0; DX--) 
 1CDF  AC                    1	         LODSB              ; FETCH COLOR FOR T
				HIS PIXEL 
 1CE0  3A F8                 1	         CMP BH ,AL 
 1CE2  74 04                 1	         JE ??00DC 
 1CE4  B4 0C                 1	         MOV     AH, 0CH    ; AH=0CH IS BIOS.WR
				ITEPIXEL 
 1CE6  CD 10                 1	         INT     10H 
 1CE8                        1	         ??00DC: 
 1CE8  41                    1	         INC     CX         ; NEXT X POSITION 
 1CE9  4F                    1	         DEC     DI 
 1CEA  75 F3                 1	         JNZ     ??00DA 
 1CEC  42                    1	      INC     DX         ; NEXT Y POSITION 
 1CED  4D                    1	      DEC     BP 
 1CEE  75 E8                 1	      JNZ     ??00DB 
 1CF0  5B                    1	      POP BX 
 1CF1  59                    1	      POP CX 
Microsoft (R) Macro Assembler Version 5.10                  12/6/19 16:06:45
                                                             Page     1-325


 1CF2  EB 2B 90			   JMP PRESS_TO_MENU
				;)
 1CF5				PLAYER2_WON:
				;(
 1CF5  BE 1388 R		   MOV SI,OFFSET BITMAP_UP_PLAYER2
				   DRAW_OBJECT TANKSIZE ,SI,280,100 
 1CF8  51                    1	   PUSH CX 
 1CF9  53                    1	   PUSH BX 
 1CFA  8B F6                 1	   MOV SI, SI  ;TAKE THE RIGHT BITMAP FROM A RE
				GISTER CONTAINING THE OFFSET 
 1CFC  BA 0064               1	   MOV     DX, 100     ; Y TO START DRAWING AT 
 1CFF  8B 2E A81A R          1	   MOV BP, TANKSIZE 
 1D03  8A 3C                 1	   MOV BH, [SI] 
 1D05                        1	   ??00DE:;{ FOR(BP = 50; BD > 0; BP--) 
 1D05  B9 0118               1	      MOV     CX, 280    ; X TO START 
 1D08  8B 3E A81A R          1	      MOV DI, TANKSIZE 
 1D0C                        1	      ??00DD:;{ FOR(DX = 50; DX > 0; DX--) 
 1D0C  AC                    1	         LODSB              ; FETCH COLOR FOR T
				HIS PIXEL 
 1D0D  3A F8                 1	         CMP BH ,AL 
 1D0F  74 04                 1	         JE ??00DF 
 1D11  B4 0C                 1	         MOV     AH, 0CH    ; AH=0CH IS BIOS.WR
				ITEPIXEL 
 1D13  CD 10                 1	         INT     10H 
 1D15                        1	         ??00DF: 
 1D15  41                    1	         INC     CX         ; NEXT X POSITION 
 1D16  4F                    1	         DEC     DI 
 1D17  75 F3                 1	         JNZ     ??00DD 
 1D19  42                    1	      INC     DX         ; NEXT Y POSITION 
 1D1A  4D                    1	      DEC     BP 
 1D1B  75 E8                 1	      JNZ     ??00DE 
 1D1D  5B                    1	      POP BX 
 1D1E  59                    1	      POP CX 
				;)
				 
 1D1F				PRESS_TO_MENU:
 1D1F  B4 00			      MOV AH,0                        ;GET KEY 
				PRESSED FOR ENDING THE GAME
 1D21  CD 16					INT 16H
				     
 1D23  B4 4C			      MOV    AH,4CH
 1D25  CD 21			      INT    21H
 1D27				PLAYER_LOST ENDP
				;----------------------------------------------
				----------------------------------------
				;   _____  _   _  _______  ______  _____    ___
				___             _____  ______
				;  |_   _|| \ | ||__   __||  ____||  __ \  |  _
				___|   /\      / ____||  ____|
				;    | |  |  \| |   | |   | |__   | |__) | | |_
				_     /  \    | |     | |__ 
				;    | |  | . ` |   | |   |  __|  |  _  /  |  _
				_|   / /\ \   | |     |  __|
				;   _| |_ | |\  |   | |   | |____ | | \ \  | | 
Microsoft (R) Macro Assembler Version 5.10                  12/6/19 16:06:45
                                                             Page     1-326


				    / ____ \  | |____ | |____ 
				;  |_____||_| \_|   |_|   |______||_|  \_\ |_| 
				   /_/    \_\  \_____||______|
				;----------------------------------------------
				--------------------------------------
 1D27				  MAIN_MENU PROC
				   ;{ OPEN VIDEO MODE
 1D27  B8 4F02			         MOV    AX, 4F02H 
 1D2A  BB 0105			         MOV    BX, 105H      
 1D2D  CD 10			         INT    10H   
				   ;}
				
				   ;{DRAWWING THE INTERFACE
				         MENU
 1D2F  B8 4F02               1	                        MOV     AX, 4F02H 
 1D32  BB 0105               1	                        MOV     BX, 105H 
 1D35  CD 10                 1	                        INT     10H 
 1D37  B7 00                 1	                    MOV     BH, 0      ; DISPLA
				YPAGE DOESN'T CHANGE 
 1D39  BA 0000               1	                    MOV     DX, 0     ; Y TO ST
				ART 
 1D3C  B9 0000               1	                    MOV     CX, 0 
 1D3F  B0 07                 1	                    MOV     AL, 7 
 1D41  B4 0C                 1	                    MOV     AH, 0CH 
 1D43                        1	                           ??00E0: 
 1D43                        1	                                          ??00E
				1: 
 1D43  CD 10                 1	                                               
				             INT     10H 
 1D45  41                    1	                                               
				             INC     CX 
 1D46  81 F9 0400            1	                                               
				             CMP     CX, 1024 
 1D4A  75 F7                 1	                                               
				             JNZ     ??00E1 
 1D4C  B9 0000               1	                                    MOV     CX,
				0 
 1D4F  42                    1	                                    INC     DX 
				        ; NEXT Y 
 1D50  81 FA 030C            1	                                    CMP     DX,
				 780 
 1D54  75 ED                 1	                                    JNZ     ??0
				0E0 
 1D56  B8 0600               1	                    MOV     AX, 0600H 
 1D59  B7 00                 1	                    MOV     BH, 0 
 1D5B  B9 0000               1	                    MOV     CX, 0 
 1D5E  BA 184F               1	                    MOV     DX, 184FH 
 1D61  CD 10                 1	                    INT     10H 
 1D63  B4 02                 1	                    MOV     AH, 2 
 1D65  BA 1B34               1	                    MOV     DX, 1B34H 
 1D68  CD 10                 1	                    INT     10H 
 1D6A  8D 36 A826 R          1	                LEA     SI, MENUITEM1 
 1D6E                        1	                ??00E2: 
 1D6E  B4 09                 1	                        MOV     AH, 9 
Microsoft (R) Macro Assembler Version 5.10                  12/6/19 16:06:45
                                                             Page     1-327


 1D70  B7 00                 1	                        MOV     BH, 0 
 1D72  8A 04                 1	                        MOV     AL, [SI] 
 1D74  B9 0001               1	                        MOV     CX, 1 
 1D77  B3 16                 1	                        MOV     BL, 016H 
 1D79  CD 10                 1	                        INT     10H 
 1D7B  FE C2                 1	                        INC     DL 
 1D7D  B4 02                 1	                        MOV     AH, 2 
 1D7F  CD 10                 1	                        INT     10H 
 1D81  46                    1	                        INC     SI 
 1D82  8A 04                 1	                        MOV     AL, [SI] 
 1D84  3C 24                 1	                        CMP     AL, '$' 
 1D86  75 E6                 1	                        JNZ     ??00E2 
 1D88  B4 02                 1	                        MOV     AH, 2 
 1D8A  BA 1D34               1	                        MOV     DX, 1D34H 
 1D8D  CD 10                 1	                        INT     10H 
 1D8F  8D 36 A841 R          1	                    LEA     SI, MENUITEM2 
 1D93                        1	                    ??00E3: 
 1D93  B4 09                 1	                        MOV     AH, 9 
 1D95  B7 00                 1	                        MOV     BH, 0 
 1D97  8A 04                 1	                        MOV     AL, [SI] 
 1D99  B9 0001               1	                        MOV     CX, 1 
 1D9C  B3 16                 1	                        MOV     BL, 016H 
 1D9E  CD 10                 1	                        INT     10H 
 1DA0  FE C2                 1	                        INC     DL 
 1DA2  B4 02                 1	                        MOV     AH, 2 
 1DA4  CD 10                 1	                        INT     10H 
 1DA6  46                    1	                        INC     SI 
 1DA7  8A 04                 1	                        MOV     AL, [SI] 
 1DA9  3C 24                 1	                        CMP     AL, '$' 
 1DAB  75 E6                 1	                        JNZ     ??00E3 
 1DAD  B4 02                 1	                        MOV     AH, 2 
 1DAF  BA 1933               1	                        MOV     DX, 1933H 
 1DB2  CD 10                 1	                        INT     10H 
 1DB4  8D 36 A85C R          1	                    LEA     SI, MENUITEM3 
 1DB8                        1	                    ??00E4: 
 1DB8  B4 09                 1	                        MOV     AH, 9 
 1DBA  B7 00                 1	                        MOV     BH, 0 
 1DBC  8A 04                 1	                        MOV     AL, [SI] 
 1DBE  B9 0001               1	                        MOV     CX, 1 
 1DC1  B3 16                 1	                        MOV     BL, 016H 
 1DC3  CD 10                 1	                        INT     10H 
 1DC5  FE C2                 1	                        INC     DL 
 1DC7  B4 02                 1	                        MOV     AH, 2 
 1DC9  CD 10                 1	                        INT     10H 
 1DCB  46                    1	                        INC     SI 
 1DCC  8A 04                 1	                        MOV     AL, [SI] 
 1DCE  3C 24                 1	                        CMP     AL, '$' 
 1DD0  75 E6                 1	                        JNZ     ??00E4 
				         GHOSTWORD
 1DD2  BA 00FA               1	    MOV DX,250 ; Y = 250 
 1DD5  B9 0190               1	    MOV CX,400 ; X = 400 
 1DD8  B0 04                 1	    MOV AL,04 
 1DDA  B4 0C                 1	    MOV AH,0CH 
 1DDC                        1	    ??00E5: 
Microsoft (R) Macro Assembler Version 5.10                  12/6/19 16:06:45
                                                             Page     1-328


 1DDC                        1	        ??00E6: 
 1DDC  CD 10                 1	         INT 10H 
 1DDE  83 C1 1E              1	         ADD CX,30 
 1DE1  81 FA 010E            1	                CMP DX,270 
 1DE5  77 05                 1	                JA ??00EB 
 1DE7  CD 10                 1	                INT 10H 
 1DE9  EB 09 90              1	                JMP ??00E7 
 1DEC  81 FA 0122            1	                ??00EB: CMP DX,290 
 1DF0  72 02                 1	                JB ??00E7 
 1DF2  CD 10                 1	                INT 10H 
 1DF4                        1	        ??00E7: 
 1DF4  83 C1 14              1	            ADD CX,20 
 1DF7  CD 10                 1	            INT 10H 
 1DF9  83 C1 1E              1	            ADD CX,30 
 1DFC  CD 10                 1	            INT 10H 
 1DFE  83 C1 14              1	            ADD CX,20 
 1E01  CD 10                 1	            INT 10H 
 1E03  83 C1 1E              1	            ADD CX,30 
 1E06  CD 10                 1	            INT 10H 
 1E08  83 C1 14              1	         ADD CX,20 
 1E0B  81 FA 0113            1	                CMP DX,275 
 1E0F  77 05                 1	                JA ??00EC 
 1E11  CD 10                 1	                INT 10H 
 1E13  EB 09 90              1	                JMP ??00E8 
 1E16                        1	                ??00EC: 
 1E16  83 C1 1E              1	                ADD CX,30 
 1E19  CD 10                 1	                INT 10H 
 1E1B  83 E9 1E              1	                SUB CX,30 
 1E1E                        1	         ??00E8: 
 1E1E  83 C1 41              1	                ADD CX,65 
 1E21  CD 10                 1	                INT 10H 
 1E23  81 E9 00D7            1	        SUB CX,215 
 1E27  42                    1	        INC DX 
 1E28  81 FA 0136            1	        CMP DX,310 
 1E2C  75 AE                 1	        JNZ ??00E6 
 1E2E  BA 00FA               1	    MOV DX,250 
 1E31  41                    1	    INC CX 
 1E32  81 F9 019A            1	    CMP CX,410 
 1E36  75 A4                 1	    JNZ ??00E5 
 1E38  B9 01A4               1	        MOV CX,420 
 1E3B  BA 0118               1	        MOV DX,280 
 1E3E                        1	        ??00EE: 
 1E3E                        1	            ??00ED: 
 1E3E  CD 10                 1	                INT 10H 
 1E40  41                    1	                INC CX 
 1E41  81 F9 01B8            1	                CMP CX,440 
 1E45  75 F7                 1	            JNZ ??00ED 
 1E47  B9 01A4               1	        MOV CX,420 
 1E4A  42                    1	        INC DX 
 1E4B  81 FA 0122            1	        CMP DX,290 
 1E4F  75 ED                 1	        JNZ ??00EE 
 1E51  B9 0190               1	    MOV CX,400 
 1E54  BA 00FA               1	    MOV DX,250 
 1E57                        1	    ??00E9: 
Microsoft (R) Macro Assembler Version 5.10                  12/6/19 16:06:45
                                                             Page     1-329


 1E57                        1	        ??00EA: 
 1E57  CD 10                 1	            INT 10H 
 1E59  83 C2 32              1	            ADD DX,50 
 1E5C  CD 10                 1	            INT 10H 
 1E5E  83 EA 32              1	            SUB DX,50 
 1E61  83 C1 32              1	            ADD CX,50 
 1E64  83 C2 19              1	            ADD DX,25 
 1E67  CD 10                 1	            INT 10H 
 1E69  83 EA 19              1	            SUB DX,25 
 1E6C  83 E9 32              1	            SUB CX,50 
 1E6F  83 C1 64              1	            ADD CX,100 
 1E72  CD 10                 1	            INT 10H 
 1E74  83 C2 32              1	            ADD DX,50 
 1E77  CD 10                 1	            INT 10H 
 1E79  83 EA 32              1	            SUB DX,50 
 1E7C  83 C1 32              1	            ADD CX,50 
 1E7F  CD 10                 1	            INT 10H 
 1E81  83 C2 19              1	            ADD DX,25 
 1E84  CD 10                 1	            INT 10H 
 1E86  83 EA 19              1	            SUB DX,25 
 1E89  83 C2 32              1	            ADD DX,50 
 1E8C  CD 10                 1	            INT 10H 
 1E8E  83 EA 32              1	            SUB DX,50 
 1E91  83 C1 32              1	            ADD CX,50 
 1E94  CD 10                 1	            INT 10H 
 1E96  81 E9 00C8            1	        SUB CX,200 
 1E9A  41                    1	        INC CX 
 1E9B  81 F9 01B8            1	        CMP CX,440 
 1E9F  75 B6                 1	        JNZ ??00EA 
 1EA1  B9 0190               1	    MOV CX,400 
 1EA4  42                    1	    INC DX 
 1EA5  81 FA 0104            1	    CMP DX,260 
 1EA9  75 AC                 1	    JNZ ??00E9 
				         BUSTERWORD
 1EAB  BA 0140               1	    MOV DX,320 ; Y = 320 
 1EAE  B9 017C               1	    MOV CX,380 ; X = 380 
 1EB1  B0 01                 1	    MOV AL,01 
 1EB3  B4 0C                 1	    MOV AH,0CH 
 1EB5                        1	    ??00EF: 
 1EB5                        1	        ??00F0: 
 1EB5  CD 10                 1	         INT 10H 
 1EB7  83 C1 1E              1	         ADD CX,30 
 1EBA  81 FA 0159            1	                CMP DX,345 
 1EBE  77 05                 1	                JA ??00F5 
 1EC0  CD 10                 1	                INT 10H 
 1EC2  EB 09 90              1	                JMP ??00F1 
 1EC5  81 FA 0163            1	                ??00F5: CMP DX,355 
 1EC9  72 02                 1	                JB ??00F1 
 1ECB  CD 10                 1	                INT 10H 
 1ECD                        1	        ??00F1: 
 1ECD  83 C1 14              1	            ADD CX,20 
 1ED0  CD 10                 1	            INT 10H 
 1ED2  83 C1 1E              1	            ADD CX,30 
 1ED5  CD 10                 1	            INT 10H 
Microsoft (R) Macro Assembler Version 5.10                  12/6/19 16:06:45
                                                             Page     1-330


 1ED7  83 C1 14              1	         ADD CX,20 
 1EDA  81 FA 0159            1	                CMP DX,345 
 1EDE  77 05                 1	                JA ??00F6 
 1EE0  CD 10                 1	                INT 10H 
 1EE2  EB 09 90              1	                JMP ??00F2 
 1EE5                        1	                ??00F6: 
 1EE5  83 C1 1E              1	                ADD CX,30 
 1EE8  CD 10                 1	                INT 10H 
 1EEA  83 E9 1E              1	                SUB CX,30 
 1EED                        1	         ??00F2: 
 1EED  83 C1 41              1	                ADD CX,65 
 1EF0  CD 10                 1	                INT 10H 
 1EF2  83 C1 23              1	            ADD CX,35 
 1EF5  CD 10                 1	            INT 10H 
 1EF7  83 C1 32              1	            ADD CX,50 
 1EFA  CD 10                 1	            INT 10H 
 1EFC  83 C1 1E              1	            ADD CX,30 
 1EFF  81 FA 0159            1	                    CMP DX,345 
 1F03  77 05                 1	                    JA ??00F8 
 1F05  CD 10                 1	                    INT 10H 
 1F07  EB 09 90              1	                    JMP ??00F7 
 1F0A  81 FA 0163            1	                    ??00F8: CMP DX,355 
 1F0E  72 02                 1	                    JB ??00F7 
 1F10  CD 10                 1	                    INT 10H 
 1F12                        1	        ??00F7: 
 1F12  81 E9 0118            1	        SUB CX,280 
 1F16  42                    1	        INC DX 
 1F17  81 FA 017C            1	        CMP DX,380 
 1F1B  75 98                 1	        JNZ ??00F0 
 1F1D  BA 0140               1	    MOV DX,320 
 1F20  41                    1	    INC CX 
 1F21  81 F9 0186            1	    CMP CX,390 
 1F25  75 8E                 1	    JNZ ??00EF 
 1F27  BA 0140               1	    MOV DX,320 
 1F2A  B9 017C               1	    MOV CX,380 
 1F2D                        1	    ??00F3: 
 1F2D                        1	        ??00F4: 
 1F2D  CD 10                 1	            INT 10H 
 1F2F  83 C2 14              1	            ADD DX,20 
 1F32  81 F9 019F            1	                CMP CX,415 
 1F36  77 05                 1	                JA ??00FB 
 1F38  CD 10                 1	                INT 10H 
 1F3A  EB 11 90              1	                JMP ??00FC 
 1F3D  81 FA 0159            1	                ??00FB: CMP DX,345 
 1F41  77 02                 1	                JA ??00FA 
 1F43  CD 10                 1	                INT 10H 
 1F45  81 FA 0163            1	                ??00FA: CMP DX,355 
 1F49  72 02                 1	                JB ??00FC 
 1F4B  CD 10                 1	                INT 10H 
 1F4D  83 C2 0A              1	                ??00FC: ADD DX,10 
 1F50  81 F9 019F            1	                CMP CX,415 
 1F54  77 05                 1	                JA ??00F9 
 1F56  CD 10                 1	                INT 10H 
 1F58  EB 11 90              1	                JMP ??00FE 
Microsoft (R) Macro Assembler Version 5.10                  12/6/19 16:06:45
                                                             Page     1-331


 1F5B  81 FA 0159            1	                ??00F9: CMP DX,345 
 1F5F  77 02                 1	                JA ??00FD 
 1F61  CD 10                 1	                INT 10H 
 1F63  81 FA 0163            1	                ??00FD: CMP DX,355 
 1F67  72 02                 1	                JB ??00FE 
 1F69  CD 10                 1	                INT 10H 
 1F6B                        1	                ??00FE: 
 1F6B  83 C2 14              1	                ADD DX,20 
 1F6E  CD 10                 1	                INT 10H 
 1F70  83 EA 32              1	        SUB DX,50 
 1F73  83 C1 32              1	            ADD CX,50 
 1F76  83 C2 32              1	            ADD DX,50 
 1F79  CD 10                 1	            INT 10H 
 1F7B  83 E9 32              1	            SUB CX,50 
 1F7E  83 EA 32              1	            SUB DX,50 
 1F81  83 C1 64              1	            ADD CX,100 
 1F84  CD 10                 1	            INT 10H 
 1F86  83 C2 19              1	            ADD DX,25 
 1F89  CD 10                 1	            INT 10H 
 1F8B  83 EA 19              1	            SUB DX,25 
 1F8E  83 C2 32              1	            ADD DX,50 
 1F91  CD 10                 1	            INT 10H 
 1F93  83 EA 32              1	            SUB DX,50 
 1F96  83 E9 64              1	            SUB CX,100 
 1F99  41                    1	    INC CX 
 1F9A  81 F9 01A4            1	    CMP CX,420 
 1F9E  75 8D                 1	    JNZ ??00F4 
 1FA0  B9 017C               1	    MOV CX,380 
 1FA3  42                    1	    INC DX 
 1FA4  81 FA 014A            1	    CMP DX,330 
 1FA8  75 83                 1	    JNZ ??00F3 
 1FAA  BA 0140               1	    MOV DX,320 
 1FAD  B9 0212               1	    MOV CX,530 
 1FB0                        1	    ??00FF: 
 1FB0                        1	        ??0100: 
 1FB0  CD 10                 1	        INT 10H 
 1FB2  83 C1 32              1	            ADD CX,50 
 1FB5  CD 10                 1	            INT 10H 
 1FB7  83 C2 19              1	            ADD DX,25 
 1FBA  CD 10                 1	            INT 10H 
 1FBC  83 C2 19              1	            ADD DX,25 
 1FBF  CD 10                 1	            INT 10H 
 1FC1  83 E9 32              1	            SUB CX,50 
 1FC4  83 EA 32              1	            SUB DX,50 
 1FC7  83 C1 64              1	            ADD CX,100 
 1FCA  CD 10                 1	            INT 10H 
 1FCC  83 C2 14              1	            ADD DX,20 
 1FCF  81 F9 0299            1	                CMP CX,665 
 1FD3  77 05                 1	                JA ??0101 
 1FD5  CD 10                 1	                INT 10H 
 1FD7  EB 11 90              1	                JMP ??0103 
 1FDA  81 FA 0159            1	                ??0101: CMP DX,345 
 1FDE  77 0A                 1	                JA ??0103 
 1FE0  CD 10                 1	                INT 10H 
Microsoft (R) Macro Assembler Version 5.10                  12/6/19 16:06:45
                                                             Page     1-332


 1FE2  81 FA 0163            1	                ??0102: CMP DX,355 
 1FE6  72 02                 1	                JB ??0103 
 1FE8  CD 10                 1	                INT 10H 
 1FEA  83 C2 0A              1	                ??0103: ADD DX,10 
 1FED  81 F9 0299            1	                CMP CX,665 
 1FF1  77 05                 1	                JA ??0105 
 1FF3  CD 10                 1	                INT 10H 
 1FF5  EB 11 90              1	                JMP ??0104 
 1FF8  81 FA 0159            1	                ??0105: CMP DX,345 
 1FFC  77 02                 1	                JA ??0106 
 1FFE  CD 10                 1	                INT 10H 
 2000  81 FA 0163            1	                ??0106: CMP DX,355 
 2004  72 02                 1	                JB ??0104 
 2006  CD 10                 1	                INT 10H 
 2008                        1	                ??0104: 
 2008  83 EA 1E              1	        SUB DX,30 
 200B  83 E9 64              1	        SUB CX,100 
 200E  41                    1	        INC CX 
 200F  81 F9 023A            1	        CMP CX,570 
 2013  75 9B                 1	        JNZ ??0100 
 2015  B9 0212               1	    MOV CX,530 
 2018  42                    1	    INC DX 
 2019  81 FA 014A            1	    CMP DX,330 
 201D  75 91                 1	    JNZ ??00FF 
				   ;}
				
 201F				   MENUEE:
				   ;{ IF(USER PRESS ANY KEY)
 201F  B4 01			         MOV    AH, 1
 2021  CD 16			         INT    16H
 2023  75 FA			         JNZ    MENUEE
				   ;}
				
				   ;{TAKE INPUT AND CLEAR KEYBOARD BUFFER
 2025  B4 00			         MOV     AH, 0
 2027  CD 16			         INT     16H 
 2029  E8 02FA R		         CALL    CLEARKEYBOARDBUFFER  
				   ;}
				   
				   ;{ IF(USER PRESS ECS)
 202C  3C 1B			         CMP     AL,1BH
 202E  75 0C			         JNZ     F1LABEL
				            ;{ THIS TO HANDLE FLICKERING
 2030  B8 4F02			                  MOV    AX, 4F02H 
 2033  BB 0100			                  MOV    BX, 100H
 2036  CD 10			                  INT    10H
				            ;}
 2038  B4 4C			         MOV    AH,4CH
 203A  CD 21			         INT    21H
				   ;}
				
 203C				   F1LABEL:
				   ;{ IF(USER PRESS F1)
				   ;     CMP    AH,3BH
Microsoft (R) Macro Assembler Version 5.10                  12/6/19 16:06:45
                                                             Page     1-333


 203C  EB 01 90			         JMP    F2LABEL
				   ;}
 203F				   F2LABEL:
				   ;{ IF(USER PRESS F2)
 203F  80 FC 3C			         CMP    AH,3CH
 2042  75 DB			         JNZ    MENUEE
				   ;}
 2044  B4 2C			   MOV    AH, 2CH  ;GET SYSTEM TIME
 2046  CD 21			   INT    21H
 2048  88 36 A815 R		   MOV    PREV_SYS_SECOND, DH  ;STORE THE CURRE
				NT SECOND OF THE SYSTEM
 204C  C3			   RET
 204D				   MAIN_MENU ENDP
				   
				END MAIN 

Microsoft (R) Macro Assembler Version 5.10                  12/6/19 16:06:45
                                                             Symbols-1


Macros:

		N a m e			Lines

BUSTERWORD . . . . . . . . . . .  	 194
DETECT_COLLISION . . . . . . . .  	  68
DRAW . . . . . . . . . . . . . .  	 208
DRAW_OBJECT  . . . . . . . . . .  	  27
GHOSTWORD  . . . . . . . . . . .  	 125
MENU . . . . . . . . . . . . . .  	  96
PRINTNUM . . . . . . . . . . . .  	  22
RANDOMIZE  . . . . . . . . . . .  	  29
WITHIN_BOUNDARIES  . . . . . . .  	  48
YWN  . . . . . . . . . . . . . .  	 142

Segments and Groups:

                N a m e         	Length	 Align	Combine Class

DGROUP . . . . . . . . . . . . .  	GROUP
  _DATA  . . . . . . . . . . . .  	A87C	WORD	PUBLIC	'DATA'
  STACK  . . . . . . . . . . . .  	0040	PARA	STACK	'STACK'
_TEXT  . . . . . . . . . . . . .  	204D	WORD	PUBLIC	'CODE'

Symbols:            

                N a m e         	Type	 Value	 Attr

BACKTOMAINLOOP . . . . . . . . .  	L NEAR	0401	_TEXT
BACKTOMAINLOOP_1 . . . . . . . .  	L NEAR	037A	_TEXT
BITMAP_DOWNLEFT_PLAYER2  . . . .  	L BYTE	1D4C	_DATA
BITMAP_DOWNRIGHT_PLAYER1 . . . .  	L BYTE	4E20	_DATA
BITMAP_DOWN_PLAYER1  . . . . . .  	L BYTE	3A98	_DATA
BITMAP_DOWN_PLAYER2  . . . . . .  	L BYTE	2710	_DATA
BITMAP_LEFT_PLAYER2  . . . . . .  	L BYTE	0000	_DATA
BITMAP_RIGHT_PLAYER1 . . . . . .  	L BYTE	445C	_DATA
BITMAP_UPLEFT_PLAYER2  . . . . .  	L BYTE	09C4	_DATA
BITMAP_UPRIGHT_PLAYER1 . . . . .  	L BYTE	57E4	_DATA
BITMAP_UP_PLAYER1  . . . . . . .  	L BYTE	30D4	_DATA
BITMAP_UP_PLAYER2  . . . . . . .  	L BYTE	1388	_DATA
BUFFER . . . . . . . . . . . . .  	L BYTE	A79C	_DATA
BULLETSIZE . . . . . . . . . . .  	L WORD	A820	_DATA
BULLETS_HIT  . . . . . . . . . .  	N PROC	16BD	_TEXT	Length = 0080
BULLET_1_MODEL . . . . . . . . .  	L BYTE	A3AC	_DATA
BULLET_1_MOTION_TYPE . . . . . .  	L WORD	A7CB	_DATA
BULLET_1_POSITION_X  . . . . . .  	L WORD	A7C5	_DATA
BULLET_1_POSITION_Y  . . . . . .  	L WORD	A7C7	_DATA
BULLET_1_SPEED . . . . . . . . .  	L WORD	A7CD	_DATA
BULLET_1_SPEED_POWER_NUM . . . .  	L WORD	A7CF	_DATA
BULLET_1_START_POSITION_X  . . .  	L WORD	A7A9	_DATA
BULLET_1_START_POSITION_Y  . . .  	L WORD	A7AB	_DATA
BULLET_1_STATUS  . . . . . . . .  	L WORD	A7C9	_DATA
BULLET_2_MODEL . . . . . . . . .  	L BYTE	A410	_DATA
Microsoft (R) Macro Assembler Version 5.10                  12/6/19 16:06:45
                                                             Symbols-2


BULLET_2_MOTION_TYPE . . . . . .  	L WORD	A7D7	_DATA
BULLET_2_POSITION_X  . . . . . .  	L WORD	A7D1	_DATA
BULLET_2_POSITION_Y  . . . . . .  	L WORD	A7D3	_DATA
BULLET_2_SPEED . . . . . . . . .  	L WORD	A7D9	_DATA
BULLET_2_SPEED_POWER_NUM . . . .  	L WORD	A7DB	_DATA
BULLET_2_START_POSITION_X  . . .  	L WORD	A7C1	_DATA
BULLET_2_START_POSITION_Y  . . .  	L WORD	A7C3	_DATA
BULLET_2_STATUS  . . . . . . . .  	L WORD	A7D5	_DATA
BULLET_SPEED_POWERUPS  . . . . .  	L WORD	A7DD	_DATA

CHECKKEY . . . . . . . . . . . .  	L NEAR	0162	_TEXT
CHECK_HIT_BUL1_GHOST1  . . . . .  	N PROC	1197	_TEXT	Length = 00C3
CHECK_HIT_BUL1_GHOST2  . . . . .  	N PROC	125A	_TEXT	Length = 00C3
CHECK_HIT_BUL1_GHOST3  . . . . .  	N PROC	131D	_TEXT	Length = 00C3
CHECK_HIT_BUL1_TANK2 . . . . . .  	N PROC	1103	_TEXT	Length = 0094
CHECK_HIT_BUL2_GHOST1  . . . . .  	N PROC	1474	_TEXT	Length = 00C3
CHECK_HIT_BUL2_GHOST2  . . . . .  	N PROC	1537	_TEXT	Length = 00C3
CHECK_HIT_BUL2_GHOST3  . . . . .  	N PROC	15FA	_TEXT	Length = 00C3
CHECK_HIT_BUL2_TANK1 . . . . . .  	N PROC	13E0	_TEXT	Length = 0094
CHECK_HIT_GHOST1_TANK1 . . . . .  	N PROC	173D	_TEXT	Length = 0096
CHECK_HIT_GHOST1_TANK2 . . . . .  	N PROC	18FF	_TEXT	Length = 0096
CHECK_HIT_GHOST2_TANK1 . . . . .  	N PROC	17D3	_TEXT	Length = 0096
CHECK_HIT_GHOST2_TANK2 . . . . .  	N PROC	1995	_TEXT	Length = 0096
CHECK_HIT_GHOST3_TANK1 . . . . .  	N PROC	1869	_TEXT	Length = 0096
CHECK_HIT_GHOST3_TANK2 . . . . .  	N PROC	1A2B	_TEXT	Length = 0096
CLEARKEYBOARDBUFFER  . . . . . .  	N PROC	02FA	_TEXT	Length = 0018
CN . . . . . . . . . . . . . . .  	L NEAR	0248	_TEXT
COLDD  . . . . . . . . . . . . .  	L NEAR	0217	_TEXT
COLRAW . . . . . . . . . . . . .  	L NEAR	0230	_TEXT

DECREASE_HP1_G1  . . . . . . . .  	L NEAR	17C9	_TEXT
DECREASE_HP1_G2  . . . . . . . .  	L NEAR	185F	_TEXT
DECREASE_HP1_G3  . . . . . . . .  	L NEAR	18F5	_TEXT
DECREASE_HP2_G1  . . . . . . . .  	L NEAR	198B	_TEXT
DECREASE_HP2_G2  . . . . . . . .  	L NEAR	1A21	_TEXT
DECREASE_HP2_G3  . . . . . . . .  	L NEAR	1AB7	_TEXT
DOWN1  . . . . . . . . . . . . .  	L NEAR	04B1	_TEXT
DOWN2  . . . . . . . . . . . . .  	L NEAR	05B8	_TEXT
DOWNB  . . . . . . . . . . . . .  	L NEAR	0FB9	_TEXT
DOWNB2 . . . . . . . . . . . . .  	L NEAR	10FA	_TEXT
DOWNLEFT . . . . . . . . . . . .  	L NEAR	0593	_TEXT
DOWNLEFTB  . . . . . . . . . . .  	L NEAR	10E2	_TEXT
DOWNLEFT_GHOST1  . . . . . . . .  	L NEAR	0B6B	_TEXT
DOWNLEFT_GHOST2  . . . . . . . .  	L NEAR	0C86	_TEXT
DOWNLEFT_GHOST3  . . . . . . . .  	L NEAR	0DA3	_TEXT
DOWNRIGHT  . . . . . . . . . . .  	L NEAR	0490	_TEXT
DOWNRIGHTB . . . . . . . . . . .  	L NEAR	0FA1	_TEXT
DOWNRIGHT_GHOST1 . . . . . . . .  	L NEAR	0B57	_TEXT
DOWNRIGHT_GHOST2 . . . . . . . .  	L NEAR	0C72	_TEXT
DOWNRIGHT_GHOST3 . . . . . . . .  	L NEAR	0D8F	_TEXT
DRAW1  . . . . . . . . . . . . .  	L NEAR	0B1E	_TEXT
DRAW2  . . . . . . . . . . . . .  	L NEAR	0C39	_TEXT
DRAW3  . . . . . . . . . . . . .  	L NEAR	0D56	_TEXT
DRAWTANK . . . . . . . . . . . .  	L NEAR	04D5	_TEXT
Microsoft (R) Macro Assembler Version 5.10                  12/6/19 16:06:45
                                                             Symbols-3


DRAWTANK2  . . . . . . . . . . .  	L NEAR	05DC	_TEXT
DRAW_BULLET_1  . . . . . . . . .  	N PROC	0EAE	_TEXT	Length = 00B1
DRAW_BULLET_2  . . . . . . . . .  	N PROC	0FF3	_TEXT	Length = 00AD
DRAW_CASE  . . . . . . . . . . .  	L NEAR	0185	_TEXT
DRAW_GHOST1  . . . . . . . . . .  	N PROC	0A8B	_TEXT	Length = 00C1
DRAW_GHOST2  . . . . . . . . . .  	N PROC	0BA6	_TEXT	Length = 00C1
DRAW_GHOST3  . . . . . . . . . .  	N PROC	0CC3	_TEXT	Length = 00C1
DRAW_HEALTH_BAR_1  . . . . . . .  	N PROC	1AC1	_TEXT	Length = 0082
DRAW_HEALTH_BAR_2  . . . . . . .  	N PROC	1B43	_TEXT	Length = 0085
DRAW_PORTALS . . . . . . . . . .  	N PROC	0DE0	_TEXT	Length = 009D
DRAW_RED . . . . . . . . . . . .  	L NEAR	1B89	_TEXT
DRAW_TANK1 . . . . . . . . . . .  	N PROC	0406	_TEXT	Length = 00FD
DRAW_TANK2 . . . . . . . . . . .  	N PROC	0503	_TEXT	Length = 0107

ENDDRAW_GHOST1 . . . . . . . . .  	L NEAR	0B47	_TEXT
ENDDRAW_GHOST11  . . . . . . . .  	L NEAR	0B05	_TEXT
ENDDRAW_GHOST2 . . . . . . . . .  	L NEAR	0C62	_TEXT
ENDDRAW_GHOST21  . . . . . . . .  	L NEAR	0C20	_TEXT
ENDDRAW_GHOST3 . . . . . . . . .  	L NEAR	0D7F	_TEXT
ENDDRAW_GHOST31  . . . . . . . .  	L NEAR	0D3D	_TEXT
ENDMOVE_GHOST1 . . . . . . . . .  	L NEAR	0BA1	_TEXT
ENDMOVE_GHOST2 . . . . . . . . .  	L NEAR	0CBE	_TEXT
ENDMOVE_GHOST3 . . . . . . . . .  	L NEAR	0DDB	_TEXT
ENDPROGRAM . . . . . . . . . . .  	L NEAR	0168	_TEXT
ENDPROGRAM1  . . . . . . . . . .  	L NEAR	00C7	_TEXT
EXISTS_GHOST1  . . . . . . . . .  	L WORD	A7E3	_DATA
EXISTS_GHOST2  . . . . . . . . .  	L WORD	A7F2	_DATA
EXISTS_GHOST3  . . . . . . . . .  	L WORD	A801	_DATA
EXITPROG . . . . . . . . . . . .  	L NEAR	03F1	_TEXT

F1LABEL  . . . . . . . . . . . .  	L NEAR	203C	_TEXT
F2LABEL  . . . . . . . . . . . .  	L NEAR	203F	_TEXT
FIREBULLET1  . . . . . . . . . .  	L NEAR	037D	_TEXT
FIRE_BULLET2 . . . . . . . . . .  	N PROC	0FC2	_TEXT	Length = 0031
FIRE_BULLET_1  . . . . . . . . .  	N PROC	0E7D	_TEXT	Length = 0031
FIRE_BULLET_2  . . . . . . . . .  	L NEAR	03E7	_TEXT

GHOST1_0 . . . . . . . . . . . .  	L BYTE	61A8	_DATA
GHOST1_1 . . . . . . . . . . . .  	L BYTE	67E8	_DATA
GHOST1_2 . . . . . . . . . . . .  	L BYTE	6E28	_DATA
GHOST1_LIVES . . . . . . . . . .  	L NEAR	1255	_TEXT
GHOST1_LIVES2  . . . . . . . . .  	L NEAR	1532	_TEXT
GHOST2_0 . . . . . . . . . . . .  	L BYTE	7468	_DATA
GHOST2_1 . . . . . . . . . . . .  	L BYTE	7AA8	_DATA
GHOST2_2 . . . . . . . . . . . .  	L BYTE	80E8	_DATA
GHOST2_LIVES . . . . . . . . . .  	L NEAR	1318	_TEXT
GHOST2_LIVES2  . . . . . . . . .  	L NEAR	15F5	_TEXT
GHOST3_0 . . . . . . . . . . . .  	L BYTE	8728	_DATA
GHOST3_1 . . . . . . . . . . . .  	L BYTE	8D68	_DATA
GHOST3_2 . . . . . . . . . . . .  	L BYTE	93A8	_DATA
GHOST3_LIVES . . . . . . . . . .  	L NEAR	13DB	_TEXT
GHOST3_LIVES2  . . . . . . . . .  	L NEAR	16B8	_TEXT
GHOSTSIZE  . . . . . . . . . . .  	L WORD	A81E	_DATA

Microsoft (R) Macro Assembler Version 5.10                  12/6/19 16:06:45
                                                             Symbols-4


HEARTSIZE  . . . . . . . . . . .  	L WORD	A822	_DATA
HEARTS_1_START_POSITION_X  . . .  	L WORD	A7B9	_DATA
HEARTS_1_START_POSITION_Y  . . .  	L WORD	A7BB	_DATA
HEARTS_2_START_POSITION_X  . . .  	L WORD	A7BD	_DATA
HEARTS_2_START_POSITION_Y  . . .  	L WORD	A7BF	_DATA
HP2_LIMIT1 . . . . . . . . . . .  	L NEAR	14F3	_TEXT
HP2_LIMIT2 . . . . . . . . . . .  	L NEAR	15B6	_TEXT
HP2_LIMIT3 . . . . . . . . . . .  	L NEAR	1679	_TEXT
HP_LIMIT1  . . . . . . . . . . .  	L NEAR	1216	_TEXT
HP_LIMIT2  . . . . . . . . . . .  	L NEAR	12D9	_TEXT
HP_LIMIT3  . . . . . . . . . . .  	L NEAR	139C	_TEXT

INCREASE2_DAMAGE1  . . . . . . .  	L NEAR	150B	_TEXT
INCREASE2_DAMAGE2  . . . . . . .  	L NEAR	15CE	_TEXT
INCREASE2_DAMAGE3  . . . . . . .  	L NEAR	1691	_TEXT
INCREASE_DAMAGE1 . . . . . . . .  	L NEAR	122E	_TEXT
INCREASE_DAMAGE2 . . . . . . . .  	L NEAR	12F1	_TEXT
INCREASE_DAMAGE3 . . . . . . . .  	L NEAR	13B4	_TEXT

LEFT . . . . . . . . . . . . . .  	L NEAR	055E	_TEXT
LEFTB  . . . . . . . . . . . . .  	L NEAR	10D4	_TEXT
LEFTBOUND_X  . . . . . . . . . .  	L WORD	A798	_DATA
LOSER1 . . . . . . . . . . . . .  	L NEAR	1466	_TEXT
LOSER2 . . . . . . . . . . . . .  	L NEAR	1189	_TEXT
LOWER4MACRO  . . . . . . . . . .  	L WORD	A816	_DATA
LOWERBOUND_Y . . . . . . . . . .  	L WORD	A796	_DATA

MAIN . . . . . . . . . . . . . .  	F PROC	0000	_TEXT	Length = 02FA
MAINLOOP . . . . . . . . . . . .  	L NEAR	0012	_TEXT
MAIN_MENU  . . . . . . . . . . .  	N PROC	1D27	_TEXT	Length = 0326
MENUEE . . . . . . . . . . . . .  	L NEAR	201F	_TEXT
MENUITEM1  . . . . . . . . . . .  	L BYTE	A826	_DATA
MENUITEM2  . . . . . . . . . . .  	L BYTE	A841	_DATA
MENUITEM3  . . . . . . . . . . .  	L BYTE	A85C	_DATA
MOTION_GHOST1  . . . . . . . . .  	L WORD	A7E5	_DATA
MOTION_GHOST2  . . . . . . . . .  	L WORD	A7F4	_DATA
MOTION_GHOST3  . . . . . . . . .  	L WORD	A803	_DATA
MOVEDOWN1  . . . . . . . . . . .  	L NEAR	0338	_TEXT
MOVEDOWN2  . . . . . . . . . . .  	L NEAR	03A2	_TEXT
MOVEUP1  . . . . . . . . . . . .  	L NEAR	031D	_TEXT
MOVEUP2  . . . . . . . . . . . .  	L NEAR	0387	_TEXT
MOVE_BULLET_1  . . . . . . . . .  	N PROC	0F5F	_TEXT	Length = 0063
MOVE_BULLET_2  . . . . . . . . .  	N PROC	10A0	_TEXT	Length = 0063
MOVE_GHOST1  . . . . . . . . . .  	N PROC	0B4C	_TEXT	Length = 005A
MOVE_GHOST2  . . . . . . . . . .  	N PROC	0C67	_TEXT	Length = 005C
MOVE_GHOST3  . . . . . . . . . .  	N PROC	0D84	_TEXT	Length = 005C
MOV_DOWNLEFT2  . . . . . . . . .  	L NEAR	07D7	_TEXT
MOV_DOWNRIGHT3 . . . . . . . . .  	L NEAR	095B	_TEXT
MOV_UPLEFT2  . . . . . . . . . .  	L NEAR	07DD	_TEXT
MOV_UPRIGHT3 . . . . . . . . . .  	L NEAR	0961	_TEXT

NOGHOST1 . . . . . . . . . . . .  	L NEAR	0E14	_TEXT
NOGHOST2 . . . . . . . . . . . .  	L NEAR	0E48	_TEXT
NOGHOST3 . . . . . . . . . . . .  	L NEAR	0E7C	_TEXT
Microsoft (R) Macro Assembler Version 5.10                  12/6/19 16:06:45
                                                             Symbols-5


NOGHOSTWAVE  . . . . . . . . . .  	L NEAR	007B	_TEXT
NOHIT1 . . . . . . . . . . . . .  	L NEAR	1192	_TEXT
NOHIT2 . . . . . . . . . . . . .  	L NEAR	146F	_TEXT
NOTIMECHANGE . . . . . . . . . .  	L NEAR	007B	_TEXT
NOT_HITTING  . . . . . . . . . .  	L NEAR	1739	_TEXT

ORIENTATION_PLAYER1  . . . . . .  	L WORD	A7A7	_DATA
ORIENTATION_PLAYER2  . . . . . .  	L WORD	A7B7	_DATA
ORIENT_DOWN1 . . . . . . . . . .  	L NEAR	036A	_TEXT
ORIENT_DOWN2 . . . . . . . . . .  	L NEAR	03D4	_TEXT
ORIENT_UP1 . . . . . . . . . . .  	L NEAR	0357	_TEXT
ORIENT_UP2 . . . . . . . . . . .  	L NEAR	03C1	_TEXT

PLAYER1_WON  . . . . . . . . . .  	L NEAR	017C	_TEXT
PLAYER2_WON  . . . . . . . . . .  	L NEAR	1CF5	_TEXT
PLAYER_LOST  . . . . . . . . . .  	N PROC	1BC8	_TEXT	Length = 015F
PORTAL . . . . . . . . . . . . .  	L BYTE	99E8	_DATA
PORTAL_SIZE  . . . . . . . . . .  	L WORD	A81C	_DATA
POWERUP_GHOST1 . . . . . . . . .  	L WORD	A7E7	_DATA
POWERUP_GHOST2 . . . . . . . . .  	L WORD	A7F6	_DATA
POWERUP_GHOST3 . . . . . . . . .  	L WORD	A805	_DATA
PRESS_TO_MENU  . . . . . . . . .  	L NEAR	1D1F	_TEXT
PREV_SYS_SECOND  . . . . . . . .  	L BYTE	A815	_DATA

RANDOMIZE_GHOST1 . . . . . . . .  	N PROC	060A	_TEXT	Length = 0179
RANDOMIZE_GHOST2 . . . . . . . .  	N PROC	0783	_TEXT	Length = 0184
RANDOMIZE_GHOST3 . . . . . . . .  	N PROC	0907	_TEXT	Length = 0184
RANDSEED . . . . . . . . . . . .  	L WORD	A813	_DATA
RED_HEART  . . . . . . . . . . .  	L BYTE	A474	_DATA
RED_PLAYER1  . . . . . . . . . .  	L NEAR	1ACF	_TEXT
RED_PLAYER2  . . . . . . . . . .  	L NEAR	1B8D	_TEXT
RESULT . . . . . . . . . . . . .  	L NEAR	0182	_TEXT
RETURN_DATA2 . . . . . . . . . .  	L NEAR	1BC3	_TEXT
RETURN_HEALTH1 . . . . . . . . .  	L NEAR	1B3E	_TEXT
RET_DRW_BUL_1  . . . . . . . . .  	L NEAR	0F5A	_TEXT
RET_DRW_BUL_11 . . . . . . . . .  	L NEAR	0F28	_TEXT
RET_DRW_BUL_2  . . . . . . . . .  	L NEAR	109B	_TEXT
RET_DRW_BUL_22 . . . . . . . . .  	L NEAR	106D	_TEXT
RET_FIRE_BUL_1 . . . . . . . . .  	L NEAR	0EA9	_TEXT
RET_FIRE_BUL_2 . . . . . . . . .  	L NEAR	0FEE	_TEXT
RET_MOV_BUL_1  . . . . . . . . .  	L NEAR	0FBD	_TEXT
RET_MOV_BUL_2  . . . . . . . . .  	L NEAR	10FE	_TEXT
RIGHT  . . . . . . . . . . . . .  	L NEAR	045F	_TEXT
RIGHTB . . . . . . . . . . . . .  	L NEAR	0F93	_TEXT
RIGHTBOUND_X . . . . . . . . . .  	L WORD	A79A	_DATA

SKIP1  . . . . . . . . . . . . .  	L NEAR	00CA	_TEXT
SKIP_BUL1_CHECKS1  . . . . . . .  	L NEAR	00F2	_TEXT
SKIP_BUL1_CHECKS2  . . . . . . .  	L NEAR	00FC	_TEXT
SKIP_BUL1_CHECKS3  . . . . . . .  	L NEAR	0106	_TEXT
SKIP_BUL1_CHECKS4  . . . . . . .  	L NEAR	0110	_TEXT
SKIP_BUL2_CHECKS1  . . . . . . .  	L NEAR	011A	_TEXT
SKIP_BUL2_CHECKS2  . . . . . . .  	L NEAR	0124	_TEXT
SKIP_BUL2_CHECKS3  . . . . . . .  	L NEAR	012E	_TEXT
Microsoft (R) Macro Assembler Version 5.10                  12/6/19 16:06:45
                                                             Symbols-6


SKIP_BUL2_CHECKS4  . . . . . . .  	L NEAR	0138	_TEXT
SKIP_GHOST1_CHECK1 . . . . . . .  	L NEAR	0092	_TEXT
SKIP_GHOST1_CHECK2 . . . . . . .  	L NEAR	00B0	_TEXT
SKIP_GHOST2_CHECK1 . . . . . . .  	L NEAR	009C	_TEXT
SKIP_GHOST2_CHECK2 . . . . . . .  	L NEAR	00BA	_TEXT
SKIP_GHOST3_CHECK1 . . . . . . .  	L NEAR	00A6	_TEXT
SKIP_GHOST3_CHECK3 . . . . . . .  	L NEAR	00C4	_TEXT
SKIP_HITTING_CHECK . . . . . . .  	L NEAR	0149	_TEXT
SPEED2_INCREASE1 . . . . . . . .  	L NEAR	1502	_TEXT
SPEED2_INCREASE2 . . . . . . . .  	L NEAR	15C5	_TEXT
SPEED2_INCREASE3 . . . . . . . .  	L NEAR	1688	_TEXT
SPEED2_LIMIT1  . . . . . . . . .  	L NEAR	1514	_TEXT
SPEED2_LIMIT2  . . . . . . . . .  	L NEAR	15D7	_TEXT
SPEED2_LIMIT3  . . . . . . . . .  	L NEAR	169A	_TEXT
SPEED_INCREASE1  . . . . . . . .  	L NEAR	1225	_TEXT
SPEED_INCREASE2  . . . . . . . .  	L NEAR	12E8	_TEXT
SPEED_INCREASE3  . . . . . . . .  	L NEAR	13AB	_TEXT
SPEED_LIMIT1 . . . . . . . . . .  	L NEAR	1237	_TEXT
SPEED_LIMIT2 . . . . . . . . . .  	L NEAR	12FA	_TEXT
SPEED_LIMIT3 . . . . . . . . . .  	L NEAR	13BD	_TEXT
STARTPOS_X_GHOST1  . . . . . . .  	L WORD	A7DF	_DATA
STARTPOS_X_GHOST2  . . . . . . .  	L WORD	A7EE	_DATA
STARTPOS_X_GHOST3  . . . . . . .  	L WORD	A7FD	_DATA
STARTPOS_X_PLAYER1 . . . . . . .  	L WORD	A79D	_DATA
STARTPOS_X_PLAYER2 . . . . . . .  	L WORD	A7AD	_DATA
STARTPOS_X_PORTAL1 . . . . . . .  	L WORD	A7E9	_DATA
STARTPOS_X_PORTAL2 . . . . . . .  	L WORD	A7F8	_DATA
STARTPOS_X_PORTAL3 . . . . . . .  	L WORD	A807	_DATA
STARTPOS_Y_GHOST1  . . . . . . .  	L WORD	A7E1	_DATA
STARTPOS_Y_GHOST2  . . . . . . .  	L WORD	A7F0	_DATA
STARTPOS_Y_GHOST3  . . . . . . .  	L WORD	A7FF	_DATA
STARTPOS_Y_PLAYER1 . . . . . . .  	L WORD	A79F	_DATA
STARTPOS_Y_PLAYER2 . . . . . . .  	L WORD	A7AF	_DATA
STARTPOS_Y_PORTAL1 . . . . . . .  	L WORD	A7EB	_DATA
STARTPOS_Y_PORTAL2 . . . . . . .  	L WORD	A7FA	_DATA
STARTPOS_Y_PORTAL3 . . . . . . .  	L WORD	A809	_DATA

T1_KILL_G1 . . . . . . . . . . .  	L NEAR	1249	_TEXT
T1_KILL_G2 . . . . . . . . . . .  	L NEAR	130C	_TEXT
T1_KILL_G3 . . . . . . . . . . .  	L NEAR	13CF	_TEXT
T2_KILL_G1 . . . . . . . . . . .  	L NEAR	1526	_TEXT
T2_KILL_G2 . . . . . . . . . . .  	L NEAR	15E9	_TEXT
T2_KILL_G3 . . . . . . . . . . .  	L NEAR	16AC	_TEXT
TANK1_SAFE1  . . . . . . . . . .  	L NEAR	17CE	_TEXT
TANK1_SAFE2  . . . . . . . . . .  	L NEAR	1864	_TEXT
TANK1_SAFE3  . . . . . . . . . .  	L NEAR	18FA	_TEXT
TANK2_SAFE1  . . . . . . . . . .  	L NEAR	1990	_TEXT
TANK2_SAFE2  . . . . . . . . . .  	L NEAR	1A26	_TEXT
TANK2_SAFE3  . . . . . . . . . .  	L NEAR	1ABC	_TEXT
TANKSIZE . . . . . . . . . . . .  	L WORD	A81A	_DATA
TANK_DMG_1 . . . . . . . . . . .  	L WORD	A7A5	_DATA
TANK_DMG_2 . . . . . . . . . . .  	L WORD	A7B5	_DATA
TANK_HP_1  . . . . . . . . . . .  	L WORD	A7A1	_DATA
TANK_HP_2  . . . . . . . . . . .  	L WORD	A7B1	_DATA
Microsoft (R) Macro Assembler Version 5.10                  12/6/19 16:06:45
                                                             Symbols-7


TANK_SPEED_1 . . . . . . . . . .  	L WORD	A7A3	_DATA
TANK_SPEED_2 . . . . . . . . . .  	L WORD	A7B3	_DATA
TIME . . . . . . . . . . . . . .  	L WORD	A80D	_DATA
TIME_DECIMAL . . . . . . . . . .  	L BYTE	A80F	_DATA	Length = 0004
TYPE_GHOST1  . . . . . . . . . .  	L BYTE	A7ED	_DATA
TYPE_GHOST2  . . . . . . . . . .  	L BYTE	A7FC	_DATA
TYPE_GHOST3  . . . . . . . . . .  	L WORD	A80B	_DATA

UPLEFT . . . . . . . . . . . . .  	L NEAR	0539	_TEXT
UPLEFTB  . . . . . . . . . . . .  	L NEAR	10BC	_TEXT
UPLEFT_GHOST1  . . . . . . . . .  	L NEAR	0B91	_TEXT
UPLEFT_GHOST2  . . . . . . . . .  	L NEAR	0CAC	_TEXT
UPLEFT_GHOST3  . . . . . . . . .  	L NEAR	0DC9	_TEXT
UPPER4MACRO  . . . . . . . . . .  	L WORD	A818	_DATA
UPPERBOUND_Y . . . . . . . . . .  	L WORD	A794	_DATA
UPRIGHT  . . . . . . . . . . . .  	L NEAR	043C	_TEXT
UPRIGHTB . . . . . . . . . . . .  	L NEAR	0F7B	_TEXT
UPRIGHT_GHOST1 . . . . . . . . .  	L NEAR	0B7E	_TEXT
UPRIGHT_GHOST2 . . . . . . . . .  	L NEAR	0C99	_TEXT
UPRIGHT_GHOST3 . . . . . . . . .  	L NEAR	0DB6	_TEXT
USERINPUT  . . . . . . . . . . .  	N PROC	0312	_TEXT	Length = 00F4

WHITE_HEART  . . . . . . . . . .  	L BYTE	A604	_DATA
WHITE_PLAYER1  . . . . . . . . .  	L NEAR	1B0B	_TEXT
WHITE_PLAYER2  . . . . . . . . .  	L NEAR	1B56	_TEXT
WINNER . . . . . . . . . . . . .  	L WORD	A824	_DATA

??0000 . . . . . . . . . . . . .  	L NEAR	0031	_TEXT
??0001 . . . . . . . . . . . . .  	L NEAR	0195	_TEXT
??0002 . . . . . . . . . . . . .  	L NEAR	0195	_TEXT
??0004 . . . . . . . . . . . . .  	L NEAR	019C	_TEXT
??0005 . . . . . . . . . . . . .  	L NEAR	01B6	_TEXT
??0006 . . . . . . . . . . . . .  	L NEAR	01FB	_TEXT
??0007 . . . . . . . . . . . . .  	L NEAR	01B6	_TEXT
??0008 . . . . . . . . . . . . .  	L NEAR	01FB	_TEXT
??0009 . . . . . . . . . . . . .  	L NEAR	01DA	_TEXT
??000A . . . . . . . . . . . . .  	L NEAR	01DA	_TEXT
??000C . . . . . . . . . . . . .  	L NEAR	0217	_TEXT
??000D . . . . . . . . . . . . .  	L NEAR	0240	_TEXT
??000E . . . . . . . . . . . . .  	L NEAR	0230	_TEXT
??000F . . . . . . . . . . . . .  	L NEAR	0285	_TEXT
??0010 . . . . . . . . . . . . .  	L NEAR	0285	_TEXT
??0011 . . . . . . . . . . . . .  	L NEAR	0295	_TEXT
??0012 . . . . . . . . . . . . .  	L NEAR	02A5	_TEXT
??0013 . . . . . . . . . . . . .  	L NEAR	02C3	_TEXT
??0014 . . . . . . . . . . . . .  	L NEAR	02BB	_TEXT
??0015 . . . . . . . . . . . . .  	L NEAR	029D	_TEXT
??0016 . . . . . . . . . . . . .  	L NEAR	02B3	_TEXT
??0017 . . . . . . . . . . . . .  	L NEAR	04EB	_TEXT
??0018 . . . . . . . . . . . . .  	L NEAR	04E3	_TEXT
??0019 . . . . . . . . . . . . .  	L NEAR	04F4	_TEXT
??001A . . . . . . . . . . . . .  	L NEAR	05F2	_TEXT
??001B . . . . . . . . . . . . .  	L NEAR	05EA	_TEXT
??001C . . . . . . . . . . . . .  	L NEAR	05FB	_TEXT
Microsoft (R) Macro Assembler Version 5.10                  12/6/19 16:06:45
                                                             Symbols-8


??001D . . . . . . . . . . . . .  	L NEAR	0630	_TEXT
??001E . . . . . . . . . . . . .  	L NEAR	0643	_TEXT
??001F . . . . . . . . . . . . .  	L NEAR	066A	_TEXT
??0020 . . . . . . . . . . . . .  	L NEAR	067D	_TEXT
??0021 . . . . . . . . . . . . .  	L NEAR	06A4	_TEXT
??0022 . . . . . . . . . . . . .  	L NEAR	06B7	_TEXT
??0023 . . . . . . . . . . . . .  	L NEAR	06F6	_TEXT
??0024 . . . . . . . . . . . . .  	L NEAR	070B	_TEXT
??0025 . . . . . . . . . . . . .  	L NEAR	074B	_TEXT
??0026 . . . . . . . . . . . . .  	L NEAR	0760	_TEXT
??0027 . . . . . . . . . . . . .  	L NEAR	07A9	_TEXT
??0028 . . . . . . . . . . . . .  	L NEAR	07BC	_TEXT
??0029 . . . . . . . . . . . . .  	L NEAR	07F9	_TEXT
??002A . . . . . . . . . . . . .  	L NEAR	080C	_TEXT
??002B . . . . . . . . . . . . .  	L NEAR	0833	_TEXT
??002C . . . . . . . . . . . . .  	L NEAR	0846	_TEXT
??002D . . . . . . . . . . . . .  	L NEAR	087C	_TEXT
??002E . . . . . . . . . . . . .  	L NEAR	0891	_TEXT
??002F . . . . . . . . . . . . .  	L NEAR	08CF	_TEXT
??0030 . . . . . . . . . . . . .  	L NEAR	08E4	_TEXT
??0031 . . . . . . . . . . . . .  	L NEAR	092D	_TEXT
??0032 . . . . . . . . . . . . .  	L NEAR	0940	_TEXT
??0033 . . . . . . . . . . . . .  	L NEAR	097D	_TEXT
??0034 . . . . . . . . . . . . .  	L NEAR	0990	_TEXT
??0035 . . . . . . . . . . . . .  	L NEAR	09B7	_TEXT
??0036 . . . . . . . . . . . . .  	L NEAR	09CA	_TEXT
??0037 . . . . . . . . . . . . .  	L NEAR	0A00	_TEXT
??0038 . . . . . . . . . . . . .  	L NEAR	0A15	_TEXT
??0039 . . . . . . . . . . . . .  	L NEAR	0A53	_TEXT
??003A . . . . . . . . . . . . .  	L NEAR	0A68	_TEXT
??003B . . . . . . . . . . . . .  	L NEAR	0AA0	_TEXT
??003C . . . . . . . . . . . . .  	L NEAR	0AB5	_TEXT
??003D . . . . . . . . . . . . .  	L NEAR	0AE7	_TEXT
??003E . . . . . . . . . . . . .  	L NEAR	0ACE	_TEXT
??003F . . . . . . . . . . . . .  	L NEAR	0AFC	_TEXT
??0040 . . . . . . . . . . . . .  	L NEAR	0B34	_TEXT
??0041 . . . . . . . . . . . . .  	L NEAR	0B2C	_TEXT
??0042 . . . . . . . . . . . . .  	L NEAR	0B3D	_TEXT
??0043 . . . . . . . . . . . . .  	L NEAR	0BBB	_TEXT
??0044 . . . . . . . . . . . . .  	L NEAR	0BD0	_TEXT
??0045 . . . . . . . . . . . . .  	L NEAR	0C02	_TEXT
??0046 . . . . . . . . . . . . .  	L NEAR	0BE9	_TEXT
??0047 . . . . . . . . . . . . .  	L NEAR	0C17	_TEXT
??0048 . . . . . . . . . . . . .  	L NEAR	0C4F	_TEXT
??0049 . . . . . . . . . . . . .  	L NEAR	0C47	_TEXT
??004A . . . . . . . . . . . . .  	L NEAR	0C58	_TEXT
??004B . . . . . . . . . . . . .  	L NEAR	0CD8	_TEXT
??004C . . . . . . . . . . . . .  	L NEAR	0CED	_TEXT
??004D . . . . . . . . . . . . .  	L NEAR	0D1F	_TEXT
??004E . . . . . . . . . . . . .  	L NEAR	0D06	_TEXT
??004F . . . . . . . . . . . . .  	L NEAR	0D34	_TEXT
??0050 . . . . . . . . . . . . .  	L NEAR	0D6C	_TEXT
??0051 . . . . . . . . . . . . .  	L NEAR	0D64	_TEXT
??0052 . . . . . . . . . . . . .  	L NEAR	0D75	_TEXT
Microsoft (R) Macro Assembler Version 5.10                  12/6/19 16:06:45
                                                             Symbols-9


??0053 . . . . . . . . . . . . .  	L NEAR	0E01	_TEXT
??0054 . . . . . . . . . . . . .  	L NEAR	0DF9	_TEXT
??0055 . . . . . . . . . . . . .  	L NEAR	0E0A	_TEXT
??0056 . . . . . . . . . . . . .  	L NEAR	0E35	_TEXT
??0057 . . . . . . . . . . . . .  	L NEAR	0E2D	_TEXT
??0058 . . . . . . . . . . . . .  	L NEAR	0E3E	_TEXT
??0059 . . . . . . . . . . . . .  	L NEAR	0E69	_TEXT
??005A . . . . . . . . . . . . .  	L NEAR	0E61	_TEXT
??005B . . . . . . . . . . . . .  	L NEAR	0E72	_TEXT
??005C . . . . . . . . . . . . .  	L NEAR	0EC3	_TEXT
??005D . . . . . . . . . . . . .  	L NEAR	0ED8	_TEXT
??005E . . . . . . . . . . . . .  	L NEAR	0F0A	_TEXT
??005F . . . . . . . . . . . . .  	L NEAR	0EF1	_TEXT
??0060 . . . . . . . . . . . . .  	L NEAR	0F1F	_TEXT
??0061 . . . . . . . . . . . . .  	L NEAR	0F47	_TEXT
??0062 . . . . . . . . . . . . .  	L NEAR	0F3F	_TEXT
??0063 . . . . . . . . . . . . .  	L NEAR	0F50	_TEXT
??0064 . . . . . . . . . . . . .  	L NEAR	1008	_TEXT
??0065 . . . . . . . . . . . . .  	L NEAR	101D	_TEXT
??0066 . . . . . . . . . . . . .  	L NEAR	104F	_TEXT
??0067 . . . . . . . . . . . . .  	L NEAR	1036	_TEXT
??0068 . . . . . . . . . . . . .  	L NEAR	1064	_TEXT
??0069 . . . . . . . . . . . . .  	L NEAR	1088	_TEXT
??006A . . . . . . . . . . . . .  	L NEAR	1080	_TEXT
??006B . . . . . . . . . . . . .  	L NEAR	1091	_TEXT
??006C . . . . . . . . . . . . .  	L NEAR	113A	_TEXT
??006D . . . . . . . . . . . . .  	L NEAR	1140	_TEXT
??006E . . . . . . . . . . . . .  	L NEAR	1167	_TEXT
??006F . . . . . . . . . . . . .  	L NEAR	1158	_TEXT
??0070 . . . . . . . . . . . . .  	L NEAR	115E	_TEXT
??0071 . . . . . . . . . . . . .  	L NEAR	116D	_TEXT
??0072 . . . . . . . . . . . . .  	L NEAR	11CE	_TEXT
??0073 . . . . . . . . . . . . .  	L NEAR	11D4	_TEXT
??0074 . . . . . . . . . . . . .  	L NEAR	11FB	_TEXT
??0075 . . . . . . . . . . . . .  	L NEAR	11EC	_TEXT
??0076 . . . . . . . . . . . . .  	L NEAR	11F2	_TEXT
??0077 . . . . . . . . . . . . .  	L NEAR	1201	_TEXT
??0078 . . . . . . . . . . . . .  	L NEAR	1291	_TEXT
??0079 . . . . . . . . . . . . .  	L NEAR	1297	_TEXT
??007A . . . . . . . . . . . . .  	L NEAR	12BE	_TEXT
??007B . . . . . . . . . . . . .  	L NEAR	12AF	_TEXT
??007C . . . . . . . . . . . . .  	L NEAR	12B5	_TEXT
??007D . . . . . . . . . . . . .  	L NEAR	12C4	_TEXT
??007E . . . . . . . . . . . . .  	L NEAR	1354	_TEXT
??007F . . . . . . . . . . . . .  	L NEAR	135A	_TEXT
??0080 . . . . . . . . . . . . .  	L NEAR	1381	_TEXT
??0081 . . . . . . . . . . . . .  	L NEAR	1372	_TEXT
??0082 . . . . . . . . . . . . .  	L NEAR	1378	_TEXT
??0083 . . . . . . . . . . . . .  	L NEAR	1387	_TEXT
??0084 . . . . . . . . . . . . .  	L NEAR	1417	_TEXT
??0085 . . . . . . . . . . . . .  	L NEAR	141D	_TEXT
??0086 . . . . . . . . . . . . .  	L NEAR	1444	_TEXT
??0087 . . . . . . . . . . . . .  	L NEAR	1435	_TEXT
??0088 . . . . . . . . . . . . .  	L NEAR	143B	_TEXT
Microsoft (R) Macro Assembler Version 5.10                  12/6/19 16:06:45
                                                             Symbols-10


??0089 . . . . . . . . . . . . .  	L NEAR	144A	_TEXT
??008A . . . . . . . . . . . . .  	L NEAR	14AB	_TEXT
??008B . . . . . . . . . . . . .  	L NEAR	14B1	_TEXT
??008C . . . . . . . . . . . . .  	L NEAR	14D8	_TEXT
??008D . . . . . . . . . . . . .  	L NEAR	14C9	_TEXT
??008E . . . . . . . . . . . . .  	L NEAR	14CF	_TEXT
??008F . . . . . . . . . . . . .  	L NEAR	14DE	_TEXT
??0090 . . . . . . . . . . . . .  	L NEAR	156E	_TEXT
??0091 . . . . . . . . . . . . .  	L NEAR	1574	_TEXT
??0092 . . . . . . . . . . . . .  	L NEAR	159B	_TEXT
??0093 . . . . . . . . . . . . .  	L NEAR	158C	_TEXT
??0094 . . . . . . . . . . . . .  	L NEAR	1592	_TEXT
??0095 . . . . . . . . . . . . .  	L NEAR	15A1	_TEXT
??0096 . . . . . . . . . . . . .  	L NEAR	1631	_TEXT
??0097 . . . . . . . . . . . . .  	L NEAR	1637	_TEXT
??0098 . . . . . . . . . . . . .  	L NEAR	165E	_TEXT
??0099 . . . . . . . . . . . . .  	L NEAR	164F	_TEXT
??009A . . . . . . . . . . . . .  	L NEAR	1655	_TEXT
??009B . . . . . . . . . . . . .  	L NEAR	1664	_TEXT
??009C . . . . . . . . . . . . .  	L NEAR	16F4	_TEXT
??009D . . . . . . . . . . . . .  	L NEAR	16FA	_TEXT
??009E . . . . . . . . . . . . .  	L NEAR	1721	_TEXT
??009F . . . . . . . . . . . . .  	L NEAR	1712	_TEXT
??00A0 . . . . . . . . . . . . .  	L NEAR	1718	_TEXT
??00A1 . . . . . . . . . . . . .  	L NEAR	1727	_TEXT
??00A2 . . . . . . . . . . . . .  	L NEAR	1774	_TEXT
??00A3 . . . . . . . . . . . . .  	L NEAR	177A	_TEXT
??00A4 . . . . . . . . . . . . .  	L NEAR	17A1	_TEXT
??00A5 . . . . . . . . . . . . .  	L NEAR	1792	_TEXT
??00A6 . . . . . . . . . . . . .  	L NEAR	1798	_TEXT
??00A7 . . . . . . . . . . . . .  	L NEAR	17A7	_TEXT
??00A8 . . . . . . . . . . . . .  	L NEAR	180A	_TEXT
??00A9 . . . . . . . . . . . . .  	L NEAR	1810	_TEXT
??00AA . . . . . . . . . . . . .  	L NEAR	1837	_TEXT
??00AB . . . . . . . . . . . . .  	L NEAR	1828	_TEXT
??00AC . . . . . . . . . . . . .  	L NEAR	182E	_TEXT
??00AD . . . . . . . . . . . . .  	L NEAR	183D	_TEXT
??00AE . . . . . . . . . . . . .  	L NEAR	18A0	_TEXT
??00AF . . . . . . . . . . . . .  	L NEAR	18A6	_TEXT
??00B0 . . . . . . . . . . . . .  	L NEAR	18CD	_TEXT
??00B1 . . . . . . . . . . . . .  	L NEAR	18BE	_TEXT
??00B2 . . . . . . . . . . . . .  	L NEAR	18C4	_TEXT
??00B3 . . . . . . . . . . . . .  	L NEAR	18D3	_TEXT
??00B4 . . . . . . . . . . . . .  	L NEAR	1936	_TEXT
??00B5 . . . . . . . . . . . . .  	L NEAR	193C	_TEXT
??00B6 . . . . . . . . . . . . .  	L NEAR	1963	_TEXT
??00B7 . . . . . . . . . . . . .  	L NEAR	1954	_TEXT
??00B8 . . . . . . . . . . . . .  	L NEAR	195A	_TEXT
??00B9 . . . . . . . . . . . . .  	L NEAR	1969	_TEXT
??00BA . . . . . . . . . . . . .  	L NEAR	19CC	_TEXT
??00BB . . . . . . . . . . . . .  	L NEAR	19D2	_TEXT
??00BC . . . . . . . . . . . . .  	L NEAR	19F9	_TEXT
??00BD . . . . . . . . . . . . .  	L NEAR	19EA	_TEXT
??00BE . . . . . . . . . . . . .  	L NEAR	19F0	_TEXT
Microsoft (R) Macro Assembler Version 5.10                  12/6/19 16:06:45
                                                             Symbols-11


??00BF . . . . . . . . . . . . .  	L NEAR	19FF	_TEXT
??00C0 . . . . . . . . . . . . .  	L NEAR	1A62	_TEXT
??00C1 . . . . . . . . . . . . .  	L NEAR	1A68	_TEXT
??00C2 . . . . . . . . . . . . .  	L NEAR	1A8F	_TEXT
??00C3 . . . . . . . . . . . . .  	L NEAR	1A80	_TEXT
??00C4 . . . . . . . . . . . . .  	L NEAR	1A86	_TEXT
??00C5 . . . . . . . . . . . . .  	L NEAR	1A95	_TEXT
??00C6 . . . . . . . . . . . . .  	L NEAR	1AE8	_TEXT
??00C7 . . . . . . . . . . . . .  	L NEAR	1AE0	_TEXT
??00C8 . . . . . . . . . . . . .  	L NEAR	1AF1	_TEXT
??00C9 . . . . . . . . . . . . .  	L NEAR	1B24	_TEXT
??00CA . . . . . . . . . . . . .  	L NEAR	1B1C	_TEXT
??00CB . . . . . . . . . . . . .  	L NEAR	1B2D	_TEXT
??00CC . . . . . . . . . . . . .  	L NEAR	1B6F	_TEXT
??00CD . . . . . . . . . . . . .  	L NEAR	1B67	_TEXT
??00CE . . . . . . . . . . . . .  	L NEAR	1B78	_TEXT
??00CF . . . . . . . . . . . . .  	L NEAR	1BA6	_TEXT
??00D0 . . . . . . . . . . . . .  	L NEAR	1B9E	_TEXT
??00D1 . . . . . . . . . . . . .  	L NEAR	1BAF	_TEXT
??00D2 . . . . . . . . . . . . .  	L NEAR	1BE0	_TEXT
??00D3 . . . . . . . . . . . . .  	L NEAR	1BE0	_TEXT
??00D4 . . . . . . . . . . . . .  	L NEAR	1BF3	_TEXT
??00D5 . . . . . . . . . . . . .  	L NEAR	1C01	_TEXT
??00D6 . . . . . . . . . . . . .  	L NEAR	1C5C	_TEXT
??00D7 . . . . . . . . . . . . .  	L NEAR	1CA3	_TEXT
??00D8 . . . . . . . . . . . . .  	L NEAR	1C5C	_TEXT
??00D9 . . . . . . . . . . . . .  	L NEAR	1CA3	_TEXT
??00DA . . . . . . . . . . . . .  	L NEAR	1CDF	_TEXT
??00DB . . . . . . . . . . . . .  	L NEAR	1CD8	_TEXT
??00DC . . . . . . . . . . . . .  	L NEAR	1CE8	_TEXT
??00DD . . . . . . . . . . . . .  	L NEAR	1D0C	_TEXT
??00DE . . . . . . . . . . . . .  	L NEAR	1D05	_TEXT
??00DF . . . . . . . . . . . . .  	L NEAR	1D15	_TEXT
??00E0 . . . . . . . . . . . . .  	L NEAR	1D43	_TEXT
??00E1 . . . . . . . . . . . . .  	L NEAR	1D43	_TEXT
??00E2 . . . . . . . . . . . . .  	L NEAR	1D6E	_TEXT
??00E3 . . . . . . . . . . . . .  	L NEAR	1D93	_TEXT
??00E4 . . . . . . . . . . . . .  	L NEAR	1DB8	_TEXT
??00E5 . . . . . . . . . . . . .  	L NEAR	1DDC	_TEXT
??00E6 . . . . . . . . . . . . .  	L NEAR	1DDC	_TEXT
??00E7 . . . . . . . . . . . . .  	L NEAR	1DF4	_TEXT
??00E8 . . . . . . . . . . . . .  	L NEAR	1E1E	_TEXT
??00E9 . . . . . . . . . . . . .  	L NEAR	1E57	_TEXT
??00EA . . . . . . . . . . . . .  	L NEAR	1E57	_TEXT
??00EB . . . . . . . . . . . . .  	L NEAR	1DEC	_TEXT
??00EC . . . . . . . . . . . . .  	L NEAR	1E16	_TEXT
??00ED . . . . . . . . . . . . .  	L NEAR	1E3E	_TEXT
??00EE . . . . . . . . . . . . .  	L NEAR	1E3E	_TEXT
??00EF . . . . . . . . . . . . .  	L NEAR	1EB5	_TEXT
??00F0 . . . . . . . . . . . . .  	L NEAR	1EB5	_TEXT
??00F1 . . . . . . . . . . . . .  	L NEAR	1ECD	_TEXT
??00F2 . . . . . . . . . . . . .  	L NEAR	1EED	_TEXT
??00F3 . . . . . . . . . . . . .  	L NEAR	1F2D	_TEXT
??00F4 . . . . . . . . . . . . .  	L NEAR	1F2D	_TEXT
Microsoft (R) Macro Assembler Version 5.10                  12/6/19 16:06:45
                                                             Symbols-12


??00F5 . . . . . . . . . . . . .  	L NEAR	1EC5	_TEXT
??00F6 . . . . . . . . . . . . .  	L NEAR	1EE5	_TEXT
??00F7 . . . . . . . . . . . . .  	L NEAR	1F12	_TEXT
??00F8 . . . . . . . . . . . . .  	L NEAR	1F0A	_TEXT
??00F9 . . . . . . . . . . . . .  	L NEAR	1F5B	_TEXT
??00FA . . . . . . . . . . . . .  	L NEAR	1F45	_TEXT
??00FB . . . . . . . . . . . . .  	L NEAR	1F3D	_TEXT
??00FC . . . . . . . . . . . . .  	L NEAR	1F4D	_TEXT
??00FD . . . . . . . . . . . . .  	L NEAR	1F63	_TEXT
??00FE . . . . . . . . . . . . .  	L NEAR	1F6B	_TEXT
??00FF . . . . . . . . . . . . .  	L NEAR	1FB0	_TEXT
??0100 . . . . . . . . . . . . .  	L NEAR	1FB0	_TEXT
??0101 . . . . . . . . . . . . .  	L NEAR	1FDA	_TEXT
??0102 . . . . . . . . . . . . .  	L NEAR	1FE2	_TEXT
??0103 . . . . . . . . . . . . .  	L NEAR	1FEA	_TEXT
??0104 . . . . . . . . . . . . .  	L NEAR	2008	_TEXT
??0105 . . . . . . . . . . . . .  	L NEAR	1FF8	_TEXT
??0106 . . . . . . . . . . . . .  	L NEAR	2000	_TEXT
@CODE  . . . . . . . . . . . . .  	TEXT  _TEXT		
@CODESIZE  . . . . . . . . . . .  	TEXT  0		
@CPU . . . . . . . . . . . . . .  	TEXT  0101h		
@DATASIZE  . . . . . . . . . . .  	TEXT  1		
@FILENAME  . . . . . . . . . . .  	TEXT  main		
@VERSION . . . . . . . . . . . .  	TEXT  510		


   5682 Source  Lines
   8596 Total   Lines
    592 Symbols

  46508 + 350038 Bytes symbol space free

     14 Warning Errors
      0 Severe  Errors
